
./build/notmain.elf:     file format elf32-littlearm


Disassembly of section .text:

00000000 <g_pfnVectors>:
       0:	2000036c 	andcs	r0, r0, ip, ror #6
       4:	00000129 	andeq	r0, r0, r9, lsr #2
       8:	0000011d 	andeq	r0, r0, sp, lsl r1
       c:	00000121 	andeq	r0, r0, r1, lsr #2
      10:	00000125 	andeq	r0, r0, r5, lsr #2
      14:	00000125 	andeq	r0, r0, r5, lsr #2
      18:	00000125 	andeq	r0, r0, r5, lsr #2
	...
      2c:	00000125 	andeq	r0, r0, r5, lsr #2
      30:	00000125 	andeq	r0, r0, r5, lsr #2
      34:	00000000 	andeq	r0, r0, r0
      38:	00000125 	andeq	r0, r0, r5, lsr #2
      3c:	00000125 	andeq	r0, r0, r5, lsr #2
      40:	00000125 	andeq	r0, r0, r5, lsr #2
      44:	00000125 	andeq	r0, r0, r5, lsr #2
      48:	00000125 	andeq	r0, r0, r5, lsr #2
      4c:	00000125 	andeq	r0, r0, r5, lsr #2
      50:	00000125 	andeq	r0, r0, r5, lsr #2
      54:	00000125 	andeq	r0, r0, r5, lsr #2
      58:	00000125 	andeq	r0, r0, r5, lsr #2
      5c:	00000125 	andeq	r0, r0, r5, lsr #2
      60:	00000125 	andeq	r0, r0, r5, lsr #2
      64:	00000125 	andeq	r0, r0, r5, lsr #2
      68:	00000125 	andeq	r0, r0, r5, lsr #2
      6c:	00000125 	andeq	r0, r0, r5, lsr #2
      70:	00000125 	andeq	r0, r0, r5, lsr #2
      74:	00000125 	andeq	r0, r0, r5, lsr #2
      78:	00000125 	andeq	r0, r0, r5, lsr #2
      7c:	00000125 	andeq	r0, r0, r5, lsr #2
      80:	00000125 	andeq	r0, r0, r5, lsr #2
      84:	00000125 	andeq	r0, r0, r5, lsr #2
      88:	00000125 	andeq	r0, r0, r5, lsr #2
      8c:	00000125 	andeq	r0, r0, r5, lsr #2
      90:	00000125 	andeq	r0, r0, r5, lsr #2
      94:	00000125 	andeq	r0, r0, r5, lsr #2
      98:	00000125 	andeq	r0, r0, r5, lsr #2
      9c:	00000125 	andeq	r0, r0, r5, lsr #2
      a0:	00000125 	andeq	r0, r0, r5, lsr #2
      a4:	00000125 	andeq	r0, r0, r5, lsr #2
      a8:	00000125 	andeq	r0, r0, r5, lsr #2
      ac:	00000125 	andeq	r0, r0, r5, lsr #2
      b0:	00000125 	andeq	r0, r0, r5, lsr #2
      b4:	00000125 	andeq	r0, r0, r5, lsr #2
      b8:	00000125 	andeq	r0, r0, r5, lsr #2
      bc:	00000125 	andeq	r0, r0, r5, lsr #2
      c0:	00000125 	andeq	r0, r0, r5, lsr #2
      c4:	00000125 	andeq	r0, r0, r5, lsr #2
      c8:	00000125 	andeq	r0, r0, r5, lsr #2
      cc:	00000125 	andeq	r0, r0, r5, lsr #2
      d0:	00000125 	andeq	r0, r0, r5, lsr #2
      d4:	00000125 	andeq	r0, r0, r5, lsr #2
      d8:	00000125 	andeq	r0, r0, r5, lsr #2
      dc:	00000125 	andeq	r0, r0, r5, lsr #2
      e0:	00000125 	andeq	r0, r0, r5, lsr #2
      e4:	00000125 	andeq	r0, r0, r5, lsr #2
      e8:	00000125 	andeq	r0, r0, r5, lsr #2
      ec:	00000125 	andeq	r0, r0, r5, lsr #2
      f0:	00000125 	andeq	r0, r0, r5, lsr #2
      f4:	00000125 	andeq	r0, r0, r5, lsr #2
      f8:	00000125 	andeq	r0, r0, r5, lsr #2
      fc:	00000125 	andeq	r0, r0, r5, lsr #2
     100:	00000125 	andeq	r0, r0, r5, lsr #2
     104:	00000125 	andeq	r0, r0, r5, lsr #2
     108:	00000125 	andeq	r0, r0, r5, lsr #2
     10c:	00000125 	andeq	r0, r0, r5, lsr #2
     110:	00000125 	andeq	r0, r0, r5, lsr #2
     114:	00000125 	andeq	r0, r0, r5, lsr #2
     118:	00000125 	andeq	r0, r0, r5, lsr #2

0000011c <NmiSR>:
     11c:	e7fe      	b.n	11c <NmiSR>
     11e:	bf00      	nop

00000120 <FaultISR>:
     120:	e7fe      	b.n	120 <FaultISR>
     122:	bf00      	nop

00000124 <IntDefaultHandler>:
     124:	e7fe      	b.n	124 <IntDefaultHandler>
     126:	bf00      	nop

00000128 <ResetISR>:
     128:	4a10      	ldr	r2, [pc, #64]	; (16c <zero_loop+0x18>)
     12a:	4911      	ldr	r1, [pc, #68]	; (170 <zero_loop+0x1c>)
     12c:	428a      	cmp	r2, r1
     12e:	b508      	push	{r3, lr}
     130:	d20c      	bcs.n	14c <ResetISR+0x24>
     132:	3901      	subs	r1, #1
     134:	1a89      	subs	r1, r1, r2
     136:	4b0f      	ldr	r3, [pc, #60]	; (174 <zero_loop+0x20>)
     138:	f021 0103 	bic.w	r1, r1, #3
     13c:	3104      	adds	r1, #4
     13e:	4419      	add	r1, r3
     140:	f853 0b04 	ldr.w	r0, [r3], #4
     144:	f842 0b04 	str.w	r0, [r2], #4
     148:	428b      	cmp	r3, r1
     14a:	d1f9      	bne.n	140 <ResetISR+0x18>
     14c:	480a      	ldr	r0, [pc, #40]	; (178 <zero_loop+0x24>)
     14e:	490b      	ldr	r1, [pc, #44]	; (17c <zero_loop+0x28>)
     150:	f04f 0200 	mov.w	r2, #0

00000154 <zero_loop>:
     154:	4288      	cmp	r0, r1
     156:	bfb8      	it	lt
     158:	f840 2b04 	strlt.w	r2, [r0], #4
     15c:	dbfa      	blt.n	154 <zero_loop>
     15e:	f000 f80f 	bl	180 <FPU_Init>
     162:	e8bd 4008 	ldmia.w	sp!, {r3, lr}
     166:	f000 b815 	b.w	194 <main>
     16a:	bf00      	nop
     16c:	20000000 	andcs	r0, r0, r0
     170:	2000026c 	andcs	r0, r0, ip, ror #4
     174:	00001d5c 	andeq	r1, r0, ip, asr sp
     178:	2000026c 	andcs	r0, r0, ip, ror #4
     17c:	2000037c 	andcs	r0, r0, ip, ror r3

00000180 <FPU_Init>:
     180:	f8df 000c 	ldr.w	r0, [pc, #12]	; 190 <FPU_Init+0x10>
     184:	6801      	ldr	r1, [r0, #0]
     186:	f441 0170 	orr.w	r1, r1, #15728640	; 0xf00000
     18a:	6001      	str	r1, [r0, #0]
     18c:	2000      	movs	r0, #0
     18e:	4770      	bx	lr
     190:	e000ed88 	and	lr, r0, r8, lsl #27

00000194 <main>:
     194:	b530      	push	{r4, r5, lr}
     196:	ed2d 8b02 	vpush	{d8}
     19a:	4820      	ldr	r0, [pc, #128]	; (21c <main+0x88>)
     19c:	4d20      	ldr	r5, [pc, #128]	; (220 <main+0x8c>)
     19e:	ed9f 8a21 	vldr	s16, [pc, #132]	; 224 <main+0x90>
     1a2:	b083      	sub	sp, #12
     1a4:	f000 ff7e 	bl	10a4 <SysCtlClockSet>
     1a8:	481f      	ldr	r0, [pc, #124]	; (228 <main+0x94>)
     1aa:	f000 fddd 	bl	d68 <SysCtlPeripheralEnable>
     1ae:	481f      	ldr	r0, [pc, #124]	; (22c <main+0x98>)
     1b0:	f000 fdda 	bl	d68 <SysCtlPeripheralEnable>
     1b4:	2001      	movs	r0, #1
     1b6:	f000 fb17 	bl	7e8 <GPIOPinConfigure>
     1ba:	2002      	movs	r0, #2
     1bc:	f000 fb14 	bl	7e8 <GPIOPinConfigure>
     1c0:	2103      	movs	r1, #3
     1c2:	f04f 2040 	mov.w	r0, #1073758208	; 0x40004000
     1c6:	f000 fb09 	bl	7dc <GPIOPinTypeUART>
     1ca:	f001 f827 	bl	121c <SysCtlClockGet>
     1ce:	2360      	movs	r3, #96	; 0x60
     1d0:	4601      	mov	r1, r0
     1d2:	f44f 32e1 	mov.w	r2, #115200	; 0x1c200
     1d6:	4628      	mov	r0, r5
     1d8:	f001 fa4c 	bl	1674 <UARTConfigSetExpClk>
     1dc:	2121      	movs	r1, #33	; 0x21
     1de:	4628      	mov	r0, r5
     1e0:	f001 fb2a 	bl	1838 <UARTCharPut>
     1e4:	4628      	mov	r0, r5
     1e6:	f001 fb17 	bl	1818 <UARTCharGet>
     1ea:	b2c4      	uxtb	r4, r0
     1ec:	ee07 4a90 	vmov	s15, r4
     1f0:	eef8 7ae7 	vcvt.f32.s32	s15, s15
     1f4:	4628      	mov	r0, r5
     1f6:	ee67 7a88 	vmul.f32	s15, s15, s16
     1fa:	eefc 7ae7 	vcvt.u32.f32	s15, s15
     1fe:	edcd 7a01 	vstr	s15, [sp, #4]
     202:	f89d 1004 	ldrb.w	r1, [sp, #4]
     206:	f001 fb17 	bl	1838 <UARTCharPut>
     20a:	2c0a      	cmp	r4, #10
     20c:	f04f 0140 	mov.w	r1, #64	; 0x40
     210:	4628      	mov	r0, r5
     212:	d0e5      	beq.n	1e0 <main+0x4c>
     214:	2c0d      	cmp	r4, #13
     216:	d1e5      	bne.n	1e4 <main+0x50>
     218:	e7e2      	b.n	1e0 <main+0x4c>
     21a:	bf00      	nop
     21c:	07803d40 	streq	r3, [r0, r0, asr #26]
     220:	4000c000 	andmi	ip, r0, r0
     224:	3fe66666 	svccc	0x00e66666
     228:	10000001 	andne	r0, r0, r1
     22c:	20000001 	andcs	r0, r0, r1

00000230 <GPIOGetIntNumber>:
     230:	4b48      	ldr	r3, [pc, #288]	; (354 <GPIOGetIntNumber+0x124>)
     232:	4298      	cmp	r0, r3
     234:	d01e      	beq.n	274 <GPIOGetIntNumber+0x44>
     236:	d83b      	bhi.n	2b0 <GPIOGetIntNumber+0x80>
     238:	f5a3 335c 	sub.w	r3, r3, #225280	; 0x37000
     23c:	4298      	cmp	r0, r3
     23e:	d07b      	beq.n	338 <GPIOGetIntNumber+0x108>
     240:	d90c      	bls.n	25c <GPIOGetIntNumber+0x2c>
     242:	4b45      	ldr	r3, [pc, #276]	; (358 <GPIOGetIntNumber+0x128>)
     244:	4298      	cmp	r0, r3
     246:	d031      	beq.n	2ac <GPIOGetIntNumber+0x7c>
     248:	d91e      	bls.n	288 <GPIOGetIntNumber+0x58>
     24a:	4b44      	ldr	r3, [pc, #272]	; (35c <GPIOGetIntNumber+0x12c>)
     24c:	4298      	cmp	r0, r3
     24e:	d075      	beq.n	33c <GPIOGetIntNumber+0x10c>
     250:	f503 5380 	add.w	r3, r3, #4096	; 0x1000
     254:	4298      	cmp	r0, r3
     256:	d10f      	bne.n	278 <GPIOGetIntNumber+0x48>
     258:	202e      	movs	r0, #46	; 0x2e
     25a:	4770      	bx	lr
     25c:	f5a3 3300 	sub.w	r3, r3, #131072	; 0x20000
     260:	4298      	cmp	r0, r3
     262:	d073      	beq.n	34c <GPIOGetIntNumber+0x11c>
     264:	d91a      	bls.n	29c <GPIOGetIntNumber+0x6c>
     266:	4b3e      	ldr	r3, [pc, #248]	; (360 <GPIOGetIntNumber+0x130>)
     268:	4298      	cmp	r0, r3
     26a:	d0f5      	beq.n	258 <GPIOGetIntNumber+0x28>
     26c:	f503 5380 	add.w	r3, r3, #4096	; 0x1000
     270:	4298      	cmp	r0, r3
     272:	d146      	bne.n	302 <GPIOGetIntNumber+0xd2>
     274:	202f      	movs	r0, #47	; 0x2f
     276:	4770      	bx	lr
     278:	f5a3 5300 	sub.w	r3, r3, #8192	; 0x2000
     27c:	4298      	cmp	r0, r3
     27e:	bf14      	ite	ne
     280:	f04f 30ff 	movne.w	r0, #4294967295
     284:	2013      	moveq	r0, #19
     286:	4770      	bx	lr
     288:	f5a3 5300 	sub.w	r3, r3, #8192	; 0x2000
     28c:	4298      	cmp	r0, r3
     28e:	d05b      	beq.n	348 <GPIOGetIntNumber+0x118>
     290:	f503 5380 	add.w	r3, r3, #4096	; 0x1000
     294:	4298      	cmp	r0, r3
     296:	d118      	bne.n	2ca <GPIOGetIntNumber+0x9a>
     298:	2011      	movs	r0, #17
     29a:	4770      	bx	lr
     29c:	f5a3 5300 	sub.w	r3, r3, #8192	; 0x2000
     2a0:	4298      	cmp	r0, r3
     2a2:	d0f9      	beq.n	298 <GPIOGetIntNumber+0x68>
     2a4:	f503 5380 	add.w	r3, r3, #4096	; 0x1000
     2a8:	4298      	cmp	r0, r3
     2aa:	d13e      	bne.n	32a <GPIOGetIntNumber+0xfa>
     2ac:	2012      	movs	r0, #18
     2ae:	4770      	bx	lr
     2b0:	4b2c      	ldr	r3, [pc, #176]	; (364 <GPIOGetIntNumber+0x134>)
     2b2:	4298      	cmp	r0, r3
     2b4:	d04c      	beq.n	350 <GPIOGetIntNumber+0x120>
     2b6:	d918      	bls.n	2ea <GPIOGetIntNumber+0xba>
     2b8:	4b2b      	ldr	r3, [pc, #172]	; (368 <GPIOGetIntNumber+0x138>)
     2ba:	4298      	cmp	r0, r3
     2bc:	d042      	beq.n	344 <GPIOGetIntNumber+0x114>
     2be:	f503 5380 	add.w	r3, r3, #4096	; 0x1000
     2c2:	4298      	cmp	r0, r3
     2c4:	d109      	bne.n	2da <GPIOGetIntNumber+0xaa>
     2c6:	208c      	movs	r0, #140	; 0x8c
     2c8:	4770      	bx	lr
     2ca:	f5a3 33e0 	sub.w	r3, r3, #114688	; 0x1c000
     2ce:	4298      	cmp	r0, r3
     2d0:	bf14      	ite	ne
     2d2:	f04f 30ff 	movne.w	r0, #4294967295
     2d6:	2046      	moveq	r0, #70	; 0x46
     2d8:	4770      	bx	lr
     2da:	f5a3 5300 	sub.w	r3, r3, #8192	; 0x2000
     2de:	4298      	cmp	r0, r3
     2e0:	bf14      	ite	ne
     2e2:	f04f 30ff 	movne.w	r0, #4294967295
     2e6:	2080      	moveq	r0, #128	; 0x80
     2e8:	4770      	bx	lr
     2ea:	f5a3 5300 	sub.w	r3, r3, #8192	; 0x2000
     2ee:	4298      	cmp	r0, r3
     2f0:	d026      	beq.n	340 <GPIOGetIntNumber+0x110>
     2f2:	d90e      	bls.n	312 <GPIOGetIntNumber+0xe2>
     2f4:	4b1d      	ldr	r3, [pc, #116]	; (36c <GPIOGetIntNumber+0x13c>)
     2f6:	4298      	cmp	r0, r3
     2f8:	bf14      	ite	ne
     2fa:	f04f 30ff 	movne.w	r0, #4294967295
     2fe:	2048      	moveq	r0, #72	; 0x48
     300:	4770      	bx	lr
     302:	f5a3 5300 	sub.w	r3, r3, #8192	; 0x2000
     306:	4298      	cmp	r0, r3
     308:	bf14      	ite	ne
     30a:	f04f 30ff 	movne.w	r0, #4294967295
     30e:	2014      	moveq	r0, #20
     310:	4770      	bx	lr
     312:	f5a3 5300 	sub.w	r3, r3, #8192	; 0x2000
     316:	4298      	cmp	r0, r3
     318:	d00e      	beq.n	338 <GPIOGetIntNumber+0x108>
     31a:	f503 5380 	add.w	r3, r3, #4096	; 0x1000
     31e:	4298      	cmp	r0, r3
     320:	bf14      	ite	ne
     322:	f04f 30ff 	movne.w	r0, #4294967295
     326:	2046      	moveq	r0, #70	; 0x46
     328:	4770      	bx	lr
     32a:	f1b0 2f40 	cmp.w	r0, #1073758208	; 0x40004000
     32e:	bf14      	ite	ne
     330:	f04f 30ff 	movne.w	r0, #4294967295
     334:	2010      	moveq	r0, #16
     336:	4770      	bx	lr
     338:	2030      	movs	r0, #48	; 0x30
     33a:	4770      	bx	lr
     33c:	2014      	movs	r0, #20
     33e:	4770      	bx	lr
     340:	2047      	movs	r0, #71	; 0x47
     342:	4770      	bx	lr
     344:	2084      	movs	r0, #132	; 0x84
     346:	4770      	bx	lr
     348:	2010      	movs	r0, #16
     34a:	4770      	bx	lr
     34c:	2013      	movs	r0, #19
     34e:	4770      	bx	lr
     350:	207f      	movs	r0, #127	; 0x7f
     352:	4770      	bx	lr
     354:	4005e000 	andmi	lr, r5, r0
     358:	4005a000 	andmi	sl, r5, r0
     35c:	4005c000 	andmi	ip, r5, r0
     360:	40025000 	andmi	r5, r2, r0
     364:	40063000 	andmi	r3, r6, r0
     368:	40065000 	andmi	r5, r6, r0
     36c:	40062000 	andmi	r2, r6, r0

00000370 <GPIODirModeSet>:
     370:	f8d0 3400 	ldr.w	r3, [r0, #1024]	; 0x400
     374:	b410      	push	{r4}
     376:	f012 0f01 	tst.w	r2, #1
     37a:	f500 6480 	add.w	r4, r0, #1024	; 0x400
     37e:	bf14      	ite	ne
     380:	430b      	orrne	r3, r1
     382:	438b      	biceq	r3, r1
     384:	6023      	str	r3, [r4, #0]
     386:	f8d0 3420 	ldr.w	r3, [r0, #1056]	; 0x420
     38a:	f85d 4b04 	ldr.w	r4, [sp], #4
     38e:	0792      	lsls	r2, r2, #30
     390:	f500 6084 	add.w	r0, r0, #1056	; 0x420
     394:	bf4c      	ite	mi
     396:	4319      	orrmi	r1, r3
     398:	ea23 0101 	bicpl.w	r1, r3, r1
     39c:	6001      	str	r1, [r0, #0]
     39e:	4770      	bx	lr

000003a0 <GPIODirModeGet>:
     3a0:	2301      	movs	r3, #1
     3a2:	f8d0 2400 	ldr.w	r2, [r0, #1024]	; 0x400
     3a6:	fa03 f101 	lsl.w	r1, r3, r1
     3aa:	b2c9      	uxtb	r1, r1
     3ac:	f8d0 3420 	ldr.w	r3, [r0, #1056]	; 0x420
     3b0:	4211      	tst	r1, r2
     3b2:	bf14      	ite	ne
     3b4:	2001      	movne	r0, #1
     3b6:	2000      	moveq	r0, #0
     3b8:	4219      	tst	r1, r3
     3ba:	bf18      	it	ne
     3bc:	f040 0002 	orrne.w	r0, r0, #2
     3c0:	4770      	bx	lr
     3c2:	bf00      	nop

000003c4 <GPIOIntTypeSet>:
     3c4:	f8d0 3408 	ldr.w	r3, [r0, #1032]	; 0x408
     3c8:	b410      	push	{r4}
     3ca:	f012 0f01 	tst.w	r2, #1
     3ce:	f500 6481 	add.w	r4, r0, #1032	; 0x408
     3d2:	bf14      	ite	ne
     3d4:	430b      	orrne	r3, r1
     3d6:	438b      	biceq	r3, r1
     3d8:	6023      	str	r3, [r4, #0]
     3da:	f8d0 3404 	ldr.w	r3, [r0, #1028]	; 0x404
     3de:	f200 4404 	addw	r4, r0, #1028	; 0x404
     3e2:	f012 0f02 	tst.w	r2, #2
     3e6:	bf14      	ite	ne
     3e8:	430b      	orrne	r3, r1
     3ea:	438b      	biceq	r3, r1
     3ec:	6023      	str	r3, [r4, #0]
     3ee:	f8d0 340c 	ldr.w	r3, [r0, #1036]	; 0x40c
     3f2:	f85d 4b04 	ldr.w	r4, [sp], #4
     3f6:	0752      	lsls	r2, r2, #29
     3f8:	f200 400c 	addw	r0, r0, #1036	; 0x40c
     3fc:	bf4c      	ite	mi
     3fe:	4319      	orrmi	r1, r3
     400:	ea23 0101 	bicpl.w	r1, r3, r1
     404:	6001      	str	r1, [r0, #0]
     406:	4770      	bx	lr

00000408 <GPIOIntTypeGet>:
     408:	2301      	movs	r3, #1
     40a:	b410      	push	{r4}
     40c:	fa03 f101 	lsl.w	r1, r3, r1
     410:	f8d0 4408 	ldr.w	r4, [r0, #1032]	; 0x408
     414:	f8d0 2404 	ldr.w	r2, [r0, #1028]	; 0x404
     418:	f8d0 340c 	ldr.w	r3, [r0, #1036]	; 0x40c
     41c:	b2c9      	uxtb	r1, r1
     41e:	4221      	tst	r1, r4
     420:	bf14      	ite	ne
     422:	2001      	movne	r0, #1
     424:	2000      	moveq	r0, #0
     426:	4211      	tst	r1, r2
     428:	bf18      	it	ne
     42a:	f040 0002 	orrne.w	r0, r0, #2
     42e:	4219      	tst	r1, r3
     430:	bf18      	it	ne
     432:	f040 0004 	orrne.w	r0, r0, #4
     436:	f85d 4b04 	ldr.w	r4, [sp], #4
     43a:	4770      	bx	lr

0000043c <GPIOPadConfigSet>:
     43c:	b470      	push	{r4, r5, r6}
     43e:	f8d0 5500 	ldr.w	r5, [r0, #1280]	; 0x500
     442:	07d4      	lsls	r4, r2, #31
     444:	f500 66a0 	add.w	r6, r0, #1280	; 0x500
     448:	bf4c      	ite	mi
     44a:	430d      	orrmi	r5, r1
     44c:	438d      	bicpl	r5, r1
     44e:	6035      	str	r5, [r6, #0]
     450:	f8d0 5504 	ldr.w	r5, [r0, #1284]	; 0x504
     454:	43cc      	mvns	r4, r1
     456:	f012 0f02 	tst.w	r2, #2
     45a:	f200 5604 	addw	r6, r0, #1284	; 0x504
     45e:	bf14      	ite	ne
     460:	430d      	orrne	r5, r1
     462:	4025      	andeq	r5, r4
     464:	6035      	str	r5, [r6, #0]
     466:	f8d0 5508 	ldr.w	r5, [r0, #1288]	; 0x508
     46a:	f500 66a1 	add.w	r6, r0, #1288	; 0x508
     46e:	f012 0f04 	tst.w	r2, #4
     472:	bf14      	ite	ne
     474:	430d      	orrne	r5, r1
     476:	4025      	andeq	r5, r4
     478:	6035      	str	r5, [r6, #0]
     47a:	f012 0f08 	tst.w	r2, #8
     47e:	f8d0 2518 	ldr.w	r2, [r0, #1304]	; 0x518
     482:	f500 65a3 	add.w	r5, r0, #1304	; 0x518
     486:	bf14      	ite	ne
     488:	430a      	orrne	r2, r1
     48a:	4022      	andeq	r2, r4
     48c:	602a      	str	r2, [r5, #0]
     48e:	f8d0 250c 	ldr.w	r2, [r0, #1292]	; 0x50c
     492:	f200 550c 	addw	r5, r0, #1292	; 0x50c
     496:	07de      	lsls	r6, r3, #31
     498:	bf4c      	ite	mi
     49a:	430a      	orrmi	r2, r1
     49c:	4022      	andpl	r2, r4
     49e:	602a      	str	r2, [r5, #0]
     4a0:	f8d0 2510 	ldr.w	r2, [r0, #1296]	; 0x510
     4a4:	f500 65a2 	add.w	r5, r0, #1296	; 0x510
     4a8:	079e      	lsls	r6, r3, #30
     4aa:	bf4c      	ite	mi
     4ac:	430a      	orrmi	r2, r1
     4ae:	4022      	andpl	r2, r4
     4b0:	602a      	str	r2, [r5, #0]
     4b2:	f8d0 2514 	ldr.w	r2, [r0, #1300]	; 0x514
     4b6:	075e      	lsls	r6, r3, #29
     4b8:	f200 5514 	addw	r5, r0, #1300	; 0x514
     4bc:	bf4c      	ite	mi
     4be:	430a      	orrmi	r2, r1
     4c0:	4022      	andpl	r2, r4
     4c2:	602a      	str	r2, [r5, #0]
     4c4:	071a      	lsls	r2, r3, #28
     4c6:	d50c      	bpl.n	4e2 <GPIOPadConfigSet+0xa6>
     4c8:	f8d0 351c 	ldr.w	r3, [r0, #1308]	; 0x51c
     4cc:	4319      	orrs	r1, r3
     4ce:	f8c0 151c 	str.w	r1, [r0, #1308]	; 0x51c
     4d2:	f8d0 1528 	ldr.w	r1, [r0, #1320]	; 0x528
     4d6:	f500 60a5 	add.w	r0, r0, #1320	; 0x528
     4da:	4021      	ands	r1, r4
     4dc:	6001      	str	r1, [r0, #0]
     4de:	bc70      	pop	{r4, r5, r6}
     4e0:	4770      	bx	lr
     4e2:	f8d0 251c 	ldr.w	r2, [r0, #1308]	; 0x51c
     4e6:	4022      	ands	r2, r4
     4e8:	f8c0 251c 	str.w	r2, [r0, #1308]	; 0x51c
     4ec:	2b00      	cmp	r3, #0
     4ee:	d1f0      	bne.n	4d2 <GPIOPadConfigSet+0x96>
     4f0:	f8d0 3528 	ldr.w	r3, [r0, #1320]	; 0x528
     4f4:	f500 60a5 	add.w	r0, r0, #1320	; 0x528
     4f8:	4319      	orrs	r1, r3
     4fa:	bc70      	pop	{r4, r5, r6}
     4fc:	6001      	str	r1, [r0, #0]
     4fe:	4770      	bx	lr

00000500 <GPIOPadConfigGet>:
     500:	b430      	push	{r4, r5}
     502:	2401      	movs	r4, #1
     504:	fa04 f101 	lsl.w	r1, r4, r1
     508:	f8d0 4500 	ldr.w	r4, [r0, #1280]	; 0x500
     50c:	f8d0 5504 	ldr.w	r5, [r0, #1284]	; 0x504
     510:	b2c9      	uxtb	r1, r1
     512:	420c      	tst	r4, r1
     514:	bf14      	ite	ne
     516:	2401      	movne	r4, #1
     518:	2400      	moveq	r4, #0
     51a:	4229      	tst	r1, r5
     51c:	f8d0 5508 	ldr.w	r5, [r0, #1288]	; 0x508
     520:	bf18      	it	ne
     522:	f044 0402 	orrne.w	r4, r4, #2
     526:	4229      	tst	r1, r5
     528:	f8d0 5518 	ldr.w	r5, [r0, #1304]	; 0x518
     52c:	bf18      	it	ne
     52e:	f044 0404 	orrne.w	r4, r4, #4
     532:	4229      	tst	r1, r5
     534:	bf18      	it	ne
     536:	f044 0408 	orrne.w	r4, r4, #8
     53a:	6014      	str	r4, [r2, #0]
     53c:	f8d0 250c 	ldr.w	r2, [r0, #1292]	; 0x50c
     540:	f8d0 4510 	ldr.w	r4, [r0, #1296]	; 0x510
     544:	4211      	tst	r1, r2
     546:	bf14      	ite	ne
     548:	2201      	movne	r2, #1
     54a:	2200      	moveq	r2, #0
     54c:	4221      	tst	r1, r4
     54e:	f8d0 4514 	ldr.w	r4, [r0, #1300]	; 0x514
     552:	f8d0 051c 	ldr.w	r0, [r0, #1308]	; 0x51c
     556:	bf18      	it	ne
     558:	f042 0202 	orrne.w	r2, r2, #2
     55c:	4221      	tst	r1, r4
     55e:	bf18      	it	ne
     560:	f042 0204 	orrne.w	r2, r2, #4
     564:	4201      	tst	r1, r0
     566:	bf18      	it	ne
     568:	f042 0208 	orrne.w	r2, r2, #8
     56c:	bc30      	pop	{r4, r5}
     56e:	601a      	str	r2, [r3, #0]
     570:	4770      	bx	lr
     572:	bf00      	nop

00000574 <GPIOPinIntEnable>:
     574:	f8d0 3410 	ldr.w	r3, [r0, #1040]	; 0x410
     578:	4319      	orrs	r1, r3
     57a:	f8c0 1410 	str.w	r1, [r0, #1040]	; 0x410
     57e:	4770      	bx	lr

00000580 <GPIOPinIntDisable>:
     580:	f8d0 3410 	ldr.w	r3, [r0, #1040]	; 0x410
     584:	ea23 0101 	bic.w	r1, r3, r1
     588:	f8c0 1410 	str.w	r1, [r0, #1040]	; 0x410
     58c:	4770      	bx	lr
     58e:	bf00      	nop

00000590 <GPIOPinIntStatus>:
     590:	b111      	cbz	r1, 598 <GPIOPinIntStatus+0x8>
     592:	f8d0 0418 	ldr.w	r0, [r0, #1048]	; 0x418
     596:	4770      	bx	lr
     598:	f8d0 0414 	ldr.w	r0, [r0, #1044]	; 0x414
     59c:	4770      	bx	lr
     59e:	bf00      	nop

000005a0 <GPIOPinIntClear>:
     5a0:	f8c0 141c 	str.w	r1, [r0, #1052]	; 0x41c
     5a4:	4770      	bx	lr
     5a6:	bf00      	nop

000005a8 <GPIOPortIntRegister>:
     5a8:	b510      	push	{r4, lr}
     5aa:	f7ff fe41 	bl	230 <GPIOGetIntNumber>
     5ae:	4604      	mov	r4, r0
     5b0:	f000 f96a 	bl	888 <IntRegister>
     5b4:	4620      	mov	r0, r4
     5b6:	e8bd 4010 	ldmia.w	sp!, {r4, lr}
     5ba:	f000 b9d3 	b.w	964 <IntEnable>
     5be:	bf00      	nop

000005c0 <GPIOPortIntUnregister>:
     5c0:	b510      	push	{r4, lr}
     5c2:	f7ff fe35 	bl	230 <GPIOGetIntNumber>
     5c6:	4604      	mov	r4, r0
     5c8:	f000 fa02 	bl	9d0 <IntDisable>
     5cc:	4620      	mov	r0, r4
     5ce:	e8bd 4010 	ldmia.w	sp!, {r4, lr}
     5d2:	f000 b975 	b.w	8c0 <IntUnregister>
     5d6:	bf00      	nop

000005d8 <GPIOPinRead>:
     5d8:	f850 0021 	ldr.w	r0, [r0, r1, lsl #2]
     5dc:	4770      	bx	lr
     5de:	bf00      	nop

000005e0 <GPIOPinWrite>:
     5e0:	f840 2021 	str.w	r2, [r0, r1, lsl #2]
     5e4:	4770      	bx	lr
     5e6:	bf00      	nop

000005e8 <GPIOPinTypeADC>:
     5e8:	b410      	push	{r4}
     5ea:	f8d0 4400 	ldr.w	r4, [r0, #1024]	; 0x400
     5ee:	ea24 0401 	bic.w	r4, r4, r1
     5f2:	f8c0 4400 	str.w	r4, [r0, #1024]	; 0x400
     5f6:	f8d0 2420 	ldr.w	r2, [r0, #1056]	; 0x420
     5fa:	f85d 4b04 	ldr.w	r4, [sp], #4
     5fe:	ea22 0201 	bic.w	r2, r2, r1
     602:	f8c0 2420 	str.w	r2, [r0, #1056]	; 0x420
     606:	2300      	movs	r3, #0
     608:	2201      	movs	r2, #1
     60a:	f7ff bf17 	b.w	43c <GPIOPadConfigSet>
     60e:	bf00      	nop

00000610 <GPIOPinTypeCAN>:
     610:	b410      	push	{r4}
     612:	f8d0 4400 	ldr.w	r4, [r0, #1024]	; 0x400
     616:	ea24 0401 	bic.w	r4, r4, r1
     61a:	f8c0 4400 	str.w	r4, [r0, #1024]	; 0x400
     61e:	f8d0 4420 	ldr.w	r4, [r0, #1056]	; 0x420
     622:	460a      	mov	r2, r1
     624:	4322      	orrs	r2, r4
     626:	f8c0 2420 	str.w	r2, [r0, #1056]	; 0x420
     62a:	f85d 4b04 	ldr.w	r4, [sp], #4
     62e:	2308      	movs	r3, #8
     630:	2204      	movs	r2, #4
     632:	f7ff bf03 	b.w	43c <GPIOPadConfigSet>
     636:	bf00      	nop

00000638 <GPIOPinTypeComparator>:
     638:	f7ff bfd6 	b.w	5e8 <GPIOPinTypeADC>

0000063c <GPIOPinTypeEPI>:
     63c:	f7ff bfe8 	b.w	610 <GPIOPinTypeCAN>

00000640 <GPIOPinTypeEthernetLED>:
     640:	f7ff bfe6 	b.w	610 <GPIOPinTypeCAN>

00000644 <GPIOPinTypeEthernetMII>:
     644:	f7ff bfe4 	b.w	610 <GPIOPinTypeCAN>

00000648 <GPIOPinTypeFan>:
     648:	b410      	push	{r4}
     64a:	f8d0 4400 	ldr.w	r4, [r0, #1024]	; 0x400
     64e:	ea24 0401 	bic.w	r4, r4, r1
     652:	f8c0 4400 	str.w	r4, [r0, #1024]	; 0x400
     656:	f8d0 4420 	ldr.w	r4, [r0, #1056]	; 0x420
     65a:	460a      	mov	r2, r1
     65c:	4322      	orrs	r2, r4
     65e:	f8c0 2420 	str.w	r2, [r0, #1056]	; 0x420
     662:	f85d 4b04 	ldr.w	r4, [sp], #4
     666:	2308      	movs	r3, #8
     668:	2201      	movs	r2, #1
     66a:	f7ff bee7 	b.w	43c <GPIOPadConfigSet>
     66e:	bf00      	nop

00000670 <GPIOPinTypeGPIOInput>:
     670:	b410      	push	{r4}
     672:	f8d0 4400 	ldr.w	r4, [r0, #1024]	; 0x400
     676:	ea24 0401 	bic.w	r4, r4, r1
     67a:	f8c0 4400 	str.w	r4, [r0, #1024]	; 0x400
     67e:	f8d0 2420 	ldr.w	r2, [r0, #1056]	; 0x420
     682:	f85d 4b04 	ldr.w	r4, [sp], #4
     686:	ea22 0201 	bic.w	r2, r2, r1
     68a:	f8c0 2420 	str.w	r2, [r0, #1056]	; 0x420
     68e:	2308      	movs	r3, #8
     690:	2201      	movs	r2, #1
     692:	f7ff bed3 	b.w	43c <GPIOPadConfigSet>
     696:	bf00      	nop

00000698 <GPIOPinTypeGPIOOutput>:
     698:	b538      	push	{r3, r4, r5, lr}
     69a:	4604      	mov	r4, r0
     69c:	2308      	movs	r3, #8
     69e:	2201      	movs	r2, #1
     6a0:	460d      	mov	r5, r1
     6a2:	f7ff fecb 	bl	43c <GPIOPadConfigSet>
     6a6:	f8d4 3400 	ldr.w	r3, [r4, #1024]	; 0x400
     6aa:	432b      	orrs	r3, r5
     6ac:	f8c4 3400 	str.w	r3, [r4, #1024]	; 0x400
     6b0:	f8d4 1420 	ldr.w	r1, [r4, #1056]	; 0x420
     6b4:	ea21 0505 	bic.w	r5, r1, r5
     6b8:	f8c4 5420 	str.w	r5, [r4, #1056]	; 0x420
     6bc:	bd38      	pop	{r3, r4, r5, pc}
     6be:	bf00      	nop

000006c0 <GPIOPinTypeGPIOOutputOD>:
     6c0:	b538      	push	{r3, r4, r5, lr}
     6c2:	4604      	mov	r4, r0
     6c4:	2309      	movs	r3, #9
     6c6:	2201      	movs	r2, #1
     6c8:	460d      	mov	r5, r1
     6ca:	f7ff feb7 	bl	43c <GPIOPadConfigSet>
     6ce:	f8d4 3400 	ldr.w	r3, [r4, #1024]	; 0x400
     6d2:	432b      	orrs	r3, r5
     6d4:	f8c4 3400 	str.w	r3, [r4, #1024]	; 0x400
     6d8:	f8d4 1420 	ldr.w	r1, [r4, #1056]	; 0x420
     6dc:	ea21 0505 	bic.w	r5, r1, r5
     6e0:	f8c4 5420 	str.w	r5, [r4, #1056]	; 0x420
     6e4:	bd38      	pop	{r3, r4, r5, pc}
     6e6:	bf00      	nop

000006e8 <GPIOPinTypeI2C>:
     6e8:	b410      	push	{r4}
     6ea:	f8d0 4400 	ldr.w	r4, [r0, #1024]	; 0x400
     6ee:	ea24 0401 	bic.w	r4, r4, r1
     6f2:	f8c0 4400 	str.w	r4, [r0, #1024]	; 0x400
     6f6:	f8d0 4420 	ldr.w	r4, [r0, #1056]	; 0x420
     6fa:	460a      	mov	r2, r1
     6fc:	4322      	orrs	r2, r4
     6fe:	f8c0 2420 	str.w	r2, [r0, #1056]	; 0x420
     702:	f85d 4b04 	ldr.w	r4, [sp], #4
     706:	2309      	movs	r3, #9
     708:	2201      	movs	r2, #1
     70a:	f7ff be97 	b.w	43c <GPIOPadConfigSet>
     70e:	bf00      	nop

00000710 <GPIOPinTypeI2CSCL>:
     710:	b4f0      	push	{r4, r5, r6, r7}
     712:	f8d0 4400 	ldr.w	r4, [r0, #1024]	; 0x400
     716:	4e1c      	ldr	r6, [pc, #112]	; (788 <GPIOPinTypeI2CSCL+0x78>)
     718:	ea24 0401 	bic.w	r4, r4, r1
     71c:	f8c0 4400 	str.w	r4, [r0, #1024]	; 0x400
     720:	f8d0 4420 	ldr.w	r4, [r0, #1056]	; 0x420
     724:	430c      	orrs	r4, r1
     726:	f8c0 4420 	str.w	r4, [r0, #1056]	; 0x420
     72a:	6834      	ldr	r4, [r6, #0]
     72c:	f014 4fe0 	tst.w	r4, #1879048192	; 0x70000000
     730:	4603      	mov	r3, r0
     732:	460a      	mov	r2, r1
     734:	d020      	beq.n	778 <GPIOPinTypeI2CSCL+0x68>
     736:	6834      	ldr	r4, [r6, #0]
     738:	4d14      	ldr	r5, [pc, #80]	; (78c <GPIOPinTypeI2CSCL+0x7c>)
     73a:	402c      	ands	r4, r5
     73c:	f1b4 5f80 	cmp.w	r4, #268435456	; 0x10000000
     740:	d01a      	beq.n	778 <GPIOPinTypeI2CSCL+0x68>
     742:	6834      	ldr	r4, [r6, #0]
     744:	4f12      	ldr	r7, [pc, #72]	; (790 <GPIOPinTypeI2CSCL+0x80>)
     746:	402c      	ands	r4, r5
     748:	42bc      	cmp	r4, r7
     74a:	d015      	beq.n	778 <GPIOPinTypeI2CSCL+0x68>
     74c:	6834      	ldr	r4, [r6, #0]
     74e:	f507 3700 	add.w	r7, r7, #131072	; 0x20000
     752:	402c      	ands	r4, r5
     754:	42bc      	cmp	r4, r7
     756:	d00f      	beq.n	778 <GPIOPinTypeI2CSCL+0x68>
     758:	6834      	ldr	r4, [r6, #0]
     75a:	f507 3780 	add.w	r7, r7, #65536	; 0x10000
     75e:	402c      	ands	r4, r5
     760:	42bc      	cmp	r4, r7
     762:	d009      	beq.n	778 <GPIOPinTypeI2CSCL+0x68>
     764:	6834      	ldr	r4, [r6, #0]
     766:	4e0b      	ldr	r6, [pc, #44]	; (794 <GPIOPinTypeI2CSCL+0x84>)
     768:	4025      	ands	r5, r4
     76a:	42b5      	cmp	r5, r6
     76c:	d004      	beq.n	778 <GPIOPinTypeI2CSCL+0x68>
     76e:	bcf0      	pop	{r4, r5, r6, r7}
     770:	2308      	movs	r3, #8
     772:	2201      	movs	r2, #1
     774:	f7ff be62 	b.w	43c <GPIOPadConfigSet>
     778:	4611      	mov	r1, r2
     77a:	4618      	mov	r0, r3
     77c:	bcf0      	pop	{r4, r5, r6, r7}
     77e:	2309      	movs	r3, #9
     780:	2201      	movs	r2, #1
     782:	f7ff be5b 	b.w	43c <GPIOPadConfigSet>
     786:	bf00      	nop
     788:	400fe000 	andmi	lr, pc, r0
     78c:	70ff0000 	rscsvc	r0, pc, r0
     790:	10010000 	andne	r0, r1, r0
     794:	10060000 	andne	r0, r6, r0

00000798 <GPIOPinTypeI2S>:
     798:	f7ff bf56 	b.w	648 <GPIOPinTypeFan>

0000079c <GPIOPinTypeLPC>:
     79c:	f7ff bf38 	b.w	610 <GPIOPinTypeCAN>

000007a0 <GPIOPinTypePECIRx>:
     7a0:	f7ff bf22 	b.w	5e8 <GPIOPinTypeADC>

000007a4 <GPIOPinTypePECITx>:
     7a4:	f7ff bf50 	b.w	648 <GPIOPinTypeFan>

000007a8 <GPIOPinTypePWM>:
     7a8:	f7ff bf4e 	b.w	648 <GPIOPinTypeFan>

000007ac <GPIOPinTypeQEI>:
     7ac:	b410      	push	{r4}
     7ae:	f8d0 4400 	ldr.w	r4, [r0, #1024]	; 0x400
     7b2:	ea24 0401 	bic.w	r4, r4, r1
     7b6:	f8c0 4400 	str.w	r4, [r0, #1024]	; 0x400
     7ba:	f8d0 4420 	ldr.w	r4, [r0, #1056]	; 0x420
     7be:	460a      	mov	r2, r1
     7c0:	4322      	orrs	r2, r4
     7c2:	f8c0 2420 	str.w	r2, [r0, #1056]	; 0x420
     7c6:	f85d 4b04 	ldr.w	r4, [sp], #4
     7ca:	230a      	movs	r3, #10
     7cc:	2201      	movs	r2, #1
     7ce:	f7ff be35 	b.w	43c <GPIOPadConfigSet>
     7d2:	bf00      	nop

000007d4 <GPIOPinTypeSSI>:
     7d4:	f7ff bf38 	b.w	648 <GPIOPinTypeFan>

000007d8 <GPIOPinTypeTimer>:
     7d8:	f7ff bf36 	b.w	648 <GPIOPinTypeFan>

000007dc <GPIOPinTypeUART>:
     7dc:	f7ff bf34 	b.w	648 <GPIOPinTypeFan>

000007e0 <GPIOPinTypeUSBAnalog>:
     7e0:	f7ff bf02 	b.w	5e8 <GPIOPinTypeADC>

000007e4 <GPIOPinTypeUSBDigital>:
     7e4:	f7ff bf30 	b.w	648 <GPIOPinTypeFan>

000007e8 <GPIOPinConfigure>:
     7e8:	4910      	ldr	r1, [pc, #64]	; (82c <GPIOPinConfigure+0x44>)
     7ea:	f3c0 4307 	ubfx	r3, r0, #16, #8
     7ee:	6809      	ldr	r1, [r1, #0]
     7f0:	2201      	movs	r2, #1
     7f2:	409a      	lsls	r2, r3
     7f4:	420a      	tst	r2, r1
     7f6:	b410      	push	{r4}
     7f8:	d014      	beq.n	824 <GPIOPinConfigure+0x3c>
     7fa:	005b      	lsls	r3, r3, #1
     7fc:	4a0c      	ldr	r2, [pc, #48]	; (830 <GPIOPinConfigure+0x48>)
     7fe:	3301      	adds	r3, #1
     800:	f852 1023 	ldr.w	r1, [r2, r3, lsl #2]
     804:	f8d1 352c 	ldr.w	r3, [r1, #1324]	; 0x52c
     808:	f3c0 2407 	ubfx	r4, r0, #8, #8
     80c:	220f      	movs	r2, #15
     80e:	4010      	ands	r0, r2
     810:	40a2      	lsls	r2, r4
     812:	40a0      	lsls	r0, r4
     814:	ea23 0302 	bic.w	r3, r3, r2
     818:	4318      	orrs	r0, r3
     81a:	f85d 4b04 	ldr.w	r4, [sp], #4
     81e:	f8c1 052c 	str.w	r0, [r1, #1324]	; 0x52c
     822:	4770      	bx	lr
     824:	4a02      	ldr	r2, [pc, #8]	; (830 <GPIOPinConfigure+0x48>)
     826:	f852 1033 	ldr.w	r1, [r2, r3, lsl #3]
     82a:	e7eb      	b.n	804 <GPIOPinConfigure+0x1c>
     82c:	400fe06c 	andmi	lr, pc, ip, rrx
     830:	000019cc 	andeq	r1, r0, ip, asr #19

00000834 <GPIODMATriggerEnable>:
     834:	f8d0 3534 	ldr.w	r3, [r0, #1332]	; 0x534
     838:	4319      	orrs	r1, r3
     83a:	f8c0 1534 	str.w	r1, [r0, #1332]	; 0x534
     83e:	4770      	bx	lr

00000840 <GPIODMATriggerDisable>:
     840:	f8d0 3534 	ldr.w	r3, [r0, #1332]	; 0x534
     844:	ea23 0101 	bic.w	r1, r3, r1
     848:	f8c0 1534 	str.w	r1, [r0, #1332]	; 0x534
     84c:	4770      	bx	lr
     84e:	bf00      	nop

00000850 <GPIOADCTriggerEnable>:
     850:	f8d0 3530 	ldr.w	r3, [r0, #1328]	; 0x530
     854:	4319      	orrs	r1, r3
     856:	f8c0 1530 	str.w	r1, [r0, #1328]	; 0x530
     85a:	4770      	bx	lr

0000085c <GPIOADCTriggerDisable>:
     85c:	f8d0 3530 	ldr.w	r3, [r0, #1328]	; 0x530
     860:	ea23 0101 	bic.w	r1, r3, r1
     864:	f8c0 1530 	str.w	r1, [r0, #1328]	; 0x530
     868:	4770      	bx	lr
     86a:	bf00      	nop

0000086c <IntDefaultHandler>:
     86c:	e7fe      	b.n	86c <IntDefaultHandler>
     86e:	bf00      	nop

00000870 <IntMasterEnable>:
     870:	b508      	push	{r3, lr}
     872:	f001 f89d 	bl	19b0 <CPUcpsie>
     876:	b2c0      	uxtb	r0, r0
     878:	bd08      	pop	{r3, pc}
     87a:	bf00      	nop

0000087c <IntMasterDisable>:
     87c:	b508      	push	{r3, lr}
     87e:	f001 f88f 	bl	19a0 <CPUcpsid>
     882:	b2c0      	uxtb	r0, r0
     884:	bd08      	pop	{r3, pc}
     886:	bf00      	nop

00000888 <IntRegister>:
     888:	4b0b      	ldr	r3, [pc, #44]	; (8b8 <IntRegister+0x30>)
     88a:	b470      	push	{r4, r5, r6}
     88c:	681a      	ldr	r2, [r3, #0]
     88e:	4e0b      	ldr	r6, [pc, #44]	; (8bc <IntRegister+0x34>)
     890:	42b2      	cmp	r2, r6
     892:	d00c      	beq.n	8ae <IntRegister+0x26>
     894:	681c      	ldr	r4, [r3, #0]
     896:	3404      	adds	r4, #4
     898:	1ba4      	subs	r4, r4, r6
     89a:	1f33      	subs	r3, r6, #4
     89c:	f506 751a 	add.w	r5, r6, #616	; 0x268
     8a0:	58e2      	ldr	r2, [r4, r3]
     8a2:	f843 2f04 	str.w	r2, [r3, #4]!
     8a6:	42ab      	cmp	r3, r5
     8a8:	d1fa      	bne.n	8a0 <IntRegister+0x18>
     8aa:	4b03      	ldr	r3, [pc, #12]	; (8b8 <IntRegister+0x30>)
     8ac:	601e      	str	r6, [r3, #0]
     8ae:	f846 1020 	str.w	r1, [r6, r0, lsl #2]
     8b2:	bc70      	pop	{r4, r5, r6}
     8b4:	4770      	bx	lr
     8b6:	bf00      	nop
     8b8:	e000ed08 	and	lr, r0, r8, lsl #26
     8bc:	20000000 	andcs	r0, r0, r0

000008c0 <IntUnregister>:
     8c0:	4b02      	ldr	r3, [pc, #8]	; (8cc <IntUnregister+0xc>)
     8c2:	4a03      	ldr	r2, [pc, #12]	; (8d0 <IntUnregister+0x10>)
     8c4:	f843 2020 	str.w	r2, [r3, r0, lsl #2]
     8c8:	4770      	bx	lr
     8ca:	bf00      	nop
     8cc:	20000000 	andcs	r0, r0, r0
     8d0:	0000086d 	andeq	r0, r0, sp, ror #16

000008d4 <IntPriorityGroupingSet>:
     8d4:	4b04      	ldr	r3, [pc, #16]	; (8e8 <IntPriorityGroupingSet+0x14>)
     8d6:	4a05      	ldr	r2, [pc, #20]	; (8ec <IntPriorityGroupingSet+0x18>)
     8d8:	f853 3020 	ldr.w	r3, [r3, r0, lsl #2]
     8dc:	f043 63bf 	orr.w	r3, r3, #100139008	; 0x5f80000
     8e0:	f443 3300 	orr.w	r3, r3, #131072	; 0x20000
     8e4:	6013      	str	r3, [r2, #0]
     8e6:	4770      	bx	lr
     8e8:	00001a44 	andeq	r1, r0, r4, asr #20
     8ec:	e000ed0c 	and	lr, r0, ip, lsl #26

000008f0 <IntPriorityGroupingGet>:
     8f0:	4b07      	ldr	r3, [pc, #28]	; (910 <IntPriorityGroupingGet+0x20>)
     8f2:	4a08      	ldr	r2, [pc, #32]	; (914 <IntPriorityGroupingGet+0x24>)
     8f4:	6819      	ldr	r1, [r3, #0]
     8f6:	f44f 63e0 	mov.w	r3, #1792	; 0x700
     8fa:	4019      	ands	r1, r3
     8fc:	2000      	movs	r0, #0
     8fe:	e001      	b.n	904 <IntPriorityGroupingGet+0x14>
     900:	f852 3b04 	ldr.w	r3, [r2], #4
     904:	4299      	cmp	r1, r3
     906:	d002      	beq.n	90e <IntPriorityGroupingGet+0x1e>
     908:	3001      	adds	r0, #1
     90a:	2808      	cmp	r0, #8
     90c:	d1f8      	bne.n	900 <IntPriorityGroupingGet+0x10>
     90e:	4770      	bx	lr
     910:	e000ed0c 	and	lr, r0, ip, lsl #26
     914:	00001a48 	andeq	r1, r0, r8, asr #20

00000918 <IntPrioritySet>:
     918:	4b09      	ldr	r3, [pc, #36]	; (940 <IntPrioritySet+0x28>)
     91a:	f020 0203 	bic.w	r2, r0, #3
     91e:	4413      	add	r3, r2
     920:	b410      	push	{r4}
     922:	6a1c      	ldr	r4, [r3, #32]
     924:	f000 0003 	and.w	r0, r0, #3
     928:	6823      	ldr	r3, [r4, #0]
     92a:	00c0      	lsls	r0, r0, #3
     92c:	22ff      	movs	r2, #255	; 0xff
     92e:	4082      	lsls	r2, r0
     930:	4081      	lsls	r1, r0
     932:	ea23 0002 	bic.w	r0, r3, r2
     936:	4308      	orrs	r0, r1
     938:	6020      	str	r0, [r4, #0]
     93a:	f85d 4b04 	ldr.w	r4, [sp], #4
     93e:	4770      	bx	lr
     940:	00001a44 	andeq	r1, r0, r4, asr #20

00000944 <IntPriorityGet>:
     944:	4b06      	ldr	r3, [pc, #24]	; (960 <IntPriorityGet+0x1c>)
     946:	f020 0203 	bic.w	r2, r0, #3
     94a:	4413      	add	r3, r2
     94c:	f000 0003 	and.w	r0, r0, #3
     950:	6a1b      	ldr	r3, [r3, #32]
     952:	681b      	ldr	r3, [r3, #0]
     954:	00c0      	lsls	r0, r0, #3
     956:	fa23 f000 	lsr.w	r0, r3, r0
     95a:	b2c0      	uxtb	r0, r0
     95c:	4770      	bx	lr
     95e:	bf00      	nop
     960:	00001a44 	andeq	r1, r0, r4, asr #20

00000964 <IntEnable>:
     964:	2804      	cmp	r0, #4
     966:	d01a      	beq.n	99e <IntEnable+0x3a>
     968:	2805      	cmp	r0, #5
     96a:	d012      	beq.n	992 <IntEnable+0x2e>
     96c:	2806      	cmp	r0, #6
     96e:	d022      	beq.n	9b6 <IntEnable+0x52>
     970:	280f      	cmp	r0, #15
     972:	d01a      	beq.n	9aa <IntEnable+0x46>
     974:	d90c      	bls.n	990 <IntEnable+0x2c>
     976:	3810      	subs	r0, #16
     978:	4b12      	ldr	r3, [pc, #72]	; (9c4 <IntEnable+0x60>)
     97a:	0942      	lsrs	r2, r0, #5
     97c:	eb03 0382 	add.w	r3, r3, r2, lsl #2
     980:	f000 001f 	and.w	r0, r0, #31
     984:	f8d3 20bc 	ldr.w	r2, [r3, #188]	; 0xbc
     988:	2301      	movs	r3, #1
     98a:	fa03 f000 	lsl.w	r0, r3, r0
     98e:	6010      	str	r0, [r2, #0]
     990:	4770      	bx	lr
     992:	4a0d      	ldr	r2, [pc, #52]	; (9c8 <IntEnable+0x64>)
     994:	6813      	ldr	r3, [r2, #0]
     996:	f443 3300 	orr.w	r3, r3, #131072	; 0x20000
     99a:	6013      	str	r3, [r2, #0]
     99c:	4770      	bx	lr
     99e:	4a0a      	ldr	r2, [pc, #40]	; (9c8 <IntEnable+0x64>)
     9a0:	6813      	ldr	r3, [r2, #0]
     9a2:	f443 3380 	orr.w	r3, r3, #65536	; 0x10000
     9a6:	6013      	str	r3, [r2, #0]
     9a8:	4770      	bx	lr
     9aa:	4a08      	ldr	r2, [pc, #32]	; (9cc <IntEnable+0x68>)
     9ac:	6813      	ldr	r3, [r2, #0]
     9ae:	f043 0302 	orr.w	r3, r3, #2
     9b2:	6013      	str	r3, [r2, #0]
     9b4:	4770      	bx	lr
     9b6:	4a04      	ldr	r2, [pc, #16]	; (9c8 <IntEnable+0x64>)
     9b8:	6813      	ldr	r3, [r2, #0]
     9ba:	f443 2380 	orr.w	r3, r3, #262144	; 0x40000
     9be:	6013      	str	r3, [r2, #0]
     9c0:	4770      	bx	lr
     9c2:	bf00      	nop
     9c4:	00001a44 	andeq	r1, r0, r4, asr #20
     9c8:	e000ed24 	and	lr, r0, r4, lsr #26
     9cc:	e000e010 	and	lr, r0, r0, lsl r0

000009d0 <IntDisable>:
     9d0:	2804      	cmp	r0, #4
     9d2:	d01a      	beq.n	a0a <IntDisable+0x3a>
     9d4:	2805      	cmp	r0, #5
     9d6:	d012      	beq.n	9fe <IntDisable+0x2e>
     9d8:	2806      	cmp	r0, #6
     9da:	d022      	beq.n	a22 <IntDisable+0x52>
     9dc:	280f      	cmp	r0, #15
     9de:	d01a      	beq.n	a16 <IntDisable+0x46>
     9e0:	d90c      	bls.n	9fc <IntDisable+0x2c>
     9e2:	3810      	subs	r0, #16
     9e4:	4b12      	ldr	r3, [pc, #72]	; (a30 <IntDisable+0x60>)
     9e6:	0942      	lsrs	r2, r0, #5
     9e8:	eb03 0382 	add.w	r3, r3, r2, lsl #2
     9ec:	f000 001f 	and.w	r0, r0, #31
     9f0:	f8d3 20d0 	ldr.w	r2, [r3, #208]	; 0xd0
     9f4:	2301      	movs	r3, #1
     9f6:	fa03 f000 	lsl.w	r0, r3, r0
     9fa:	6010      	str	r0, [r2, #0]
     9fc:	4770      	bx	lr
     9fe:	4a0d      	ldr	r2, [pc, #52]	; (a34 <IntDisable+0x64>)
     a00:	6813      	ldr	r3, [r2, #0]
     a02:	f423 3300 	bic.w	r3, r3, #131072	; 0x20000
     a06:	6013      	str	r3, [r2, #0]
     a08:	4770      	bx	lr
     a0a:	4a0a      	ldr	r2, [pc, #40]	; (a34 <IntDisable+0x64>)
     a0c:	6813      	ldr	r3, [r2, #0]
     a0e:	f423 3380 	bic.w	r3, r3, #65536	; 0x10000
     a12:	6013      	str	r3, [r2, #0]
     a14:	4770      	bx	lr
     a16:	4a08      	ldr	r2, [pc, #32]	; (a38 <IntDisable+0x68>)
     a18:	6813      	ldr	r3, [r2, #0]
     a1a:	f023 0302 	bic.w	r3, r3, #2
     a1e:	6013      	str	r3, [r2, #0]
     a20:	4770      	bx	lr
     a22:	4a04      	ldr	r2, [pc, #16]	; (a34 <IntDisable+0x64>)
     a24:	6813      	ldr	r3, [r2, #0]
     a26:	f423 2380 	bic.w	r3, r3, #262144	; 0x40000
     a2a:	6013      	str	r3, [r2, #0]
     a2c:	4770      	bx	lr
     a2e:	bf00      	nop
     a30:	00001a44 	andeq	r1, r0, r4, asr #20
     a34:	e000ed24 	and	lr, r0, r4, lsr #26
     a38:	e000e010 	and	lr, r0, r0, lsl r0

00000a3c <IntIsEnabled>:
     a3c:	2804      	cmp	r0, #4
     a3e:	d01a      	beq.n	a76 <IntIsEnabled+0x3a>
     a40:	2805      	cmp	r0, #5
     a42:	d013      	beq.n	a6c <IntIsEnabled+0x30>
     a44:	2806      	cmp	r0, #6
     a46:	d020      	beq.n	a8a <IntIsEnabled+0x4e>
     a48:	280f      	cmp	r0, #15
     a4a:	d019      	beq.n	a80 <IntIsEnabled+0x44>
     a4c:	d922      	bls.n	a94 <IntIsEnabled+0x58>
     a4e:	3810      	subs	r0, #16
     a50:	4b11      	ldr	r3, [pc, #68]	; (a98 <IntIsEnabled+0x5c>)
     a52:	0942      	lsrs	r2, r0, #5
     a54:	eb03 0382 	add.w	r3, r3, r2, lsl #2
     a58:	f000 001f 	and.w	r0, r0, #31
     a5c:	f8d3 20bc 	ldr.w	r2, [r3, #188]	; 0xbc
     a60:	2301      	movs	r3, #1
     a62:	6812      	ldr	r2, [r2, #0]
     a64:	fa03 f000 	lsl.w	r0, r3, r0
     a68:	4010      	ands	r0, r2
     a6a:	4770      	bx	lr
     a6c:	4b0b      	ldr	r3, [pc, #44]	; (a9c <IntIsEnabled+0x60>)
     a6e:	6818      	ldr	r0, [r3, #0]
     a70:	f400 3000 	and.w	r0, r0, #131072	; 0x20000
     a74:	4770      	bx	lr
     a76:	4b09      	ldr	r3, [pc, #36]	; (a9c <IntIsEnabled+0x60>)
     a78:	6818      	ldr	r0, [r3, #0]
     a7a:	f400 3080 	and.w	r0, r0, #65536	; 0x10000
     a7e:	4770      	bx	lr
     a80:	4b07      	ldr	r3, [pc, #28]	; (aa0 <IntIsEnabled+0x64>)
     a82:	6818      	ldr	r0, [r3, #0]
     a84:	f000 0002 	and.w	r0, r0, #2
     a88:	4770      	bx	lr
     a8a:	4b04      	ldr	r3, [pc, #16]	; (a9c <IntIsEnabled+0x60>)
     a8c:	6818      	ldr	r0, [r3, #0]
     a8e:	f400 2080 	and.w	r0, r0, #262144	; 0x40000
     a92:	4770      	bx	lr
     a94:	2000      	movs	r0, #0
     a96:	4770      	bx	lr
     a98:	00001a44 	andeq	r1, r0, r4, asr #20
     a9c:	e000ed24 	and	lr, r0, r4, lsr #26
     aa0:	e000e010 	and	lr, r0, r0, lsl r0

00000aa4 <IntPendSet>:
     aa4:	2802      	cmp	r0, #2
     aa6:	d018      	beq.n	ada <IntPendSet+0x36>
     aa8:	280e      	cmp	r0, #14
     aaa:	d010      	beq.n	ace <IntPendSet+0x2a>
     aac:	280f      	cmp	r0, #15
     aae:	d01a      	beq.n	ae6 <IntPendSet+0x42>
     ab0:	d90c      	bls.n	acc <IntPendSet+0x28>
     ab2:	3810      	subs	r0, #16
     ab4:	4b0f      	ldr	r3, [pc, #60]	; (af4 <IntPendSet+0x50>)
     ab6:	0942      	lsrs	r2, r0, #5
     ab8:	eb03 0382 	add.w	r3, r3, r2, lsl #2
     abc:	f000 001f 	and.w	r0, r0, #31
     ac0:	f8d3 20e4 	ldr.w	r2, [r3, #228]	; 0xe4
     ac4:	2301      	movs	r3, #1
     ac6:	fa03 f000 	lsl.w	r0, r3, r0
     aca:	6010      	str	r0, [r2, #0]
     acc:	4770      	bx	lr
     ace:	4a0a      	ldr	r2, [pc, #40]	; (af8 <IntPendSet+0x54>)
     ad0:	6813      	ldr	r3, [r2, #0]
     ad2:	f043 5380 	orr.w	r3, r3, #268435456	; 0x10000000
     ad6:	6013      	str	r3, [r2, #0]
     ad8:	4770      	bx	lr
     ada:	4a07      	ldr	r2, [pc, #28]	; (af8 <IntPendSet+0x54>)
     adc:	6813      	ldr	r3, [r2, #0]
     ade:	f043 4300 	orr.w	r3, r3, #2147483648	; 0x80000000
     ae2:	6013      	str	r3, [r2, #0]
     ae4:	4770      	bx	lr
     ae6:	4a04      	ldr	r2, [pc, #16]	; (af8 <IntPendSet+0x54>)
     ae8:	6813      	ldr	r3, [r2, #0]
     aea:	f043 6380 	orr.w	r3, r3, #67108864	; 0x4000000
     aee:	6013      	str	r3, [r2, #0]
     af0:	4770      	bx	lr
     af2:	bf00      	nop
     af4:	00001a44 	andeq	r1, r0, r4, asr #20
     af8:	e000ed04 	and	lr, r0, r4, lsl #26

00000afc <IntPendClear>:
     afc:	280e      	cmp	r0, #14
     afe:	d016      	beq.n	b2e <IntPendClear+0x32>
     b00:	280f      	cmp	r0, #15
     b02:	d00e      	beq.n	b22 <IntPendClear+0x26>
     b04:	d90c      	bls.n	b20 <IntPendClear+0x24>
     b06:	3810      	subs	r0, #16
     b08:	4b0c      	ldr	r3, [pc, #48]	; (b3c <IntPendClear+0x40>)
     b0a:	0942      	lsrs	r2, r0, #5
     b0c:	eb03 0382 	add.w	r3, r3, r2, lsl #2
     b10:	f000 001f 	and.w	r0, r0, #31
     b14:	f8d3 20f8 	ldr.w	r2, [r3, #248]	; 0xf8
     b18:	2301      	movs	r3, #1
     b1a:	fa03 f000 	lsl.w	r0, r3, r0
     b1e:	6010      	str	r0, [r2, #0]
     b20:	4770      	bx	lr
     b22:	4a07      	ldr	r2, [pc, #28]	; (b40 <IntPendClear+0x44>)
     b24:	6813      	ldr	r3, [r2, #0]
     b26:	f043 7300 	orr.w	r3, r3, #33554432	; 0x2000000
     b2a:	6013      	str	r3, [r2, #0]
     b2c:	4770      	bx	lr
     b2e:	4a04      	ldr	r2, [pc, #16]	; (b40 <IntPendClear+0x44>)
     b30:	6813      	ldr	r3, [r2, #0]
     b32:	f043 6300 	orr.w	r3, r3, #134217728	; 0x8000000
     b36:	6013      	str	r3, [r2, #0]
     b38:	4770      	bx	lr
     b3a:	bf00      	nop
     b3c:	00001a44 	andeq	r1, r0, r4, asr #20
     b40:	e000ed04 	and	lr, r0, r4, lsl #26

00000b44 <IntPriorityMaskSet>:
     b44:	f000 bf3a 	b.w	19bc <CPUbasepriSet>

00000b48 <IntPriorityMaskGet>:
     b48:	f000 bf3c 	b.w	19c4 <CPUbasepriGet>

00000b4c <SysCtlSRAMSizeGet>:
     b4c:	4b03      	ldr	r3, [pc, #12]	; (b5c <SysCtlSRAMSizeGet+0x10>)
     b4e:	4804      	ldr	r0, [pc, #16]	; (b60 <SysCtlSRAMSizeGet+0x14>)
     b50:	681b      	ldr	r3, [r3, #0]
     b52:	ea00 2013 	and.w	r0, r0, r3, lsr #8
     b56:	f500 7080 	add.w	r0, r0, #256	; 0x100
     b5a:	4770      	bx	lr
     b5c:	400fe008 	andmi	lr, pc, r8
     b60:	00ffff00 	rscseq	pc, pc, r0, lsl #30

00000b64 <SysCtlFlashSizeGet>:
     b64:	4b03      	ldr	r3, [pc, #12]	; (b74 <SysCtlFlashSizeGet+0x10>)
     b66:	4804      	ldr	r0, [pc, #16]	; (b78 <SysCtlFlashSizeGet+0x14>)
     b68:	681b      	ldr	r3, [r3, #0]
     b6a:	ea00 20c3 	and.w	r0, r0, r3, lsl #11
     b6e:	f500 6000 	add.w	r0, r0, #2048	; 0x800
     b72:	4770      	bx	lr
     b74:	400fe008 	andmi	lr, pc, r8
     b78:	07fff800 	ldrbeq	pc, [pc, r0, lsl #16]!	; <UNPREDICTABLE>

00000b7c <SysCtlPinPresent>:
     b7c:	4b03      	ldr	r3, [pc, #12]	; (b8c <SysCtlPinPresent+0x10>)
     b7e:	681b      	ldr	r3, [r3, #0]
     b80:	4203      	tst	r3, r0
     b82:	bf14      	ite	ne
     b84:	2001      	movne	r0, #1
     b86:	2000      	moveq	r0, #0
     b88:	4770      	bx	lr
     b8a:	bf00      	nop
     b8c:	400fe018 	andmi	lr, pc, r8, lsl r0	; <UNPREDICTABLE>

00000b90 <SysCtlPeripheralPresent>:
     b90:	f000 4370 	and.w	r3, r0, #4026531840	; 0xf0000000
     b94:	f1b3 4f70 	cmp.w	r3, #4026531840	; 0xf0000000
     b98:	d018      	beq.n	bcc <SysCtlPeripheralPresent+0x3c>
     b9a:	4b13      	ldr	r3, [pc, #76]	; (be8 <SysCtlPeripheralPresent+0x58>)
     b9c:	4298      	cmp	r0, r3
     b9e:	d00e      	beq.n	bbe <SysCtlPeripheralPresent+0x2e>
     ba0:	0f01      	lsrs	r1, r0, #28
     ba2:	4a12      	ldr	r2, [pc, #72]	; (bec <SysCtlPeripheralPresent+0x5c>)
     ba4:	f852 2021 	ldr.w	r2, [r2, r1, lsl #2]
     ba8:	b283      	uxth	r3, r0
     baa:	6812      	ldr	r2, [r2, #0]
     bac:	f3c0 4004 	ubfx	r0, r0, #16, #5
     bb0:	fa03 f000 	lsl.w	r0, r3, r0
     bb4:	4210      	tst	r0, r2
     bb6:	bf14      	ite	ne
     bb8:	2001      	movne	r0, #1
     bba:	2000      	moveq	r0, #0
     bbc:	4770      	bx	lr
     bbe:	4b0c      	ldr	r3, [pc, #48]	; (bf0 <SysCtlPeripheralPresent+0x60>)
     bc0:	6818      	ldr	r0, [r3, #0]
     bc2:	f010 0003 	ands.w	r0, r0, #3
     bc6:	bf18      	it	ne
     bc8:	2001      	movne	r0, #1
     bca:	4770      	bx	lr
     bcc:	4a09      	ldr	r2, [pc, #36]	; (bf4 <SysCtlPeripheralPresent+0x64>)
     bce:	f3c0 2107 	ubfx	r1, r0, #8, #8
     bd2:	0083      	lsls	r3, r0, #2
     bd4:	440a      	add	r2, r1
     bd6:	f403 737f 	and.w	r3, r3, #1020	; 0x3fc
     bda:	ea43 1342 	orr.w	r3, r3, r2, lsl #5
     bde:	f043 4384 	orr.w	r3, r3, #1107296256	; 0x42000000
     be2:	6818      	ldr	r0, [r3, #0]
     be4:	b2c0      	uxtb	r0, r0
     be6:	4770      	bx	lr
     be8:	20100001 	andscs	r0, r0, r1
     bec:	00001b50 	andeq	r1, r0, r0, asr fp
     bf0:	400fe024 	andmi	lr, pc, r4, lsr #32
     bf4:	400fe300 	andmi	lr, pc, r0, lsl #6

00000bf8 <SysCtlPeripheralReady>:
     bf8:	4a0e      	ldr	r2, [pc, #56]	; (c34 <SysCtlPeripheralReady+0x3c>)
     bfa:	490f      	ldr	r1, [pc, #60]	; (c38 <SysCtlPeripheralReady+0x40>)
     bfc:	2300      	movs	r3, #0
     bfe:	e004      	b.n	c0a <SysCtlPeripheralReady+0x12>
     c00:	3301      	adds	r3, #1
     c02:	2b24      	cmp	r3, #36	; 0x24
     c04:	d007      	beq.n	c16 <SysCtlPeripheralReady+0x1e>
     c06:	f851 2033 	ldr.w	r2, [r1, r3, lsl #3]
     c0a:	4290      	cmp	r0, r2
     c0c:	d1f8      	bne.n	c00 <SysCtlPeripheralReady+0x8>
     c0e:	4a0b      	ldr	r2, [pc, #44]	; (c3c <SysCtlPeripheralReady+0x44>)
     c10:	eb02 03c3 	add.w	r3, r2, r3, lsl #3
     c14:	6958      	ldr	r0, [r3, #20]
     c16:	4a0a      	ldr	r2, [pc, #40]	; (c40 <SysCtlPeripheralReady+0x48>)
     c18:	f3c0 2107 	ubfx	r1, r0, #8, #8
     c1c:	0083      	lsls	r3, r0, #2
     c1e:	440a      	add	r2, r1
     c20:	f403 737f 	and.w	r3, r3, #1020	; 0x3fc
     c24:	ea43 1342 	orr.w	r3, r3, r2, lsl #5
     c28:	f043 4384 	orr.w	r3, r3, #1107296256	; 0x42000000
     c2c:	6818      	ldr	r0, [r3, #0]
     c2e:	b2c0      	uxtb	r0, r0
     c30:	4770      	bx	lr
     c32:	bf00      	nop
     c34:	00100001 	andseq	r0, r0, r1
     c38:	00001b60 	andeq	r1, r0, r0, ror #22
     c3c:	00001b50 	andeq	r1, r0, r0, asr fp
     c40:	400fea00 	andmi	lr, pc, r0, lsl #20

00000c44 <SysCtlPeripheralPowerOn>:
     c44:	4a0e      	ldr	r2, [pc, #56]	; (c80 <SysCtlPeripheralPowerOn+0x3c>)
     c46:	490f      	ldr	r1, [pc, #60]	; (c84 <SysCtlPeripheralPowerOn+0x40>)
     c48:	2300      	movs	r3, #0
     c4a:	e004      	b.n	c56 <SysCtlPeripheralPowerOn+0x12>
     c4c:	3301      	adds	r3, #1
     c4e:	2b24      	cmp	r3, #36	; 0x24
     c50:	d007      	beq.n	c62 <SysCtlPeripheralPowerOn+0x1e>
     c52:	f851 2033 	ldr.w	r2, [r1, r3, lsl #3]
     c56:	4290      	cmp	r0, r2
     c58:	d1f8      	bne.n	c4c <SysCtlPeripheralPowerOn+0x8>
     c5a:	4a0b      	ldr	r2, [pc, #44]	; (c88 <SysCtlPeripheralPowerOn+0x44>)
     c5c:	eb02 03c3 	add.w	r3, r2, r3, lsl #3
     c60:	6958      	ldr	r0, [r3, #20]
     c62:	4a0a      	ldr	r2, [pc, #40]	; (c8c <SysCtlPeripheralPowerOn+0x48>)
     c64:	f3c0 2107 	ubfx	r1, r0, #8, #8
     c68:	0083      	lsls	r3, r0, #2
     c6a:	440a      	add	r2, r1
     c6c:	f403 737f 	and.w	r3, r3, #1020	; 0x3fc
     c70:	ea43 1342 	orr.w	r3, r3, r2, lsl #5
     c74:	f043 4384 	orr.w	r3, r3, #1107296256	; 0x42000000
     c78:	2201      	movs	r2, #1
     c7a:	601a      	str	r2, [r3, #0]
     c7c:	4770      	bx	lr
     c7e:	bf00      	nop
     c80:	00100001 	andseq	r0, r0, r1
     c84:	00001b60 	andeq	r1, r0, r0, ror #22
     c88:	00001b50 	andeq	r1, r0, r0, asr fp
     c8c:	400fe900 	andmi	lr, pc, r0, lsl #18

00000c90 <SysCtlPeripheralPowerOff>:
     c90:	4a0e      	ldr	r2, [pc, #56]	; (ccc <SysCtlPeripheralPowerOff+0x3c>)
     c92:	490f      	ldr	r1, [pc, #60]	; (cd0 <SysCtlPeripheralPowerOff+0x40>)
     c94:	2300      	movs	r3, #0
     c96:	e004      	b.n	ca2 <SysCtlPeripheralPowerOff+0x12>
     c98:	3301      	adds	r3, #1
     c9a:	2b24      	cmp	r3, #36	; 0x24
     c9c:	d007      	beq.n	cae <SysCtlPeripheralPowerOff+0x1e>
     c9e:	f851 2033 	ldr.w	r2, [r1, r3, lsl #3]
     ca2:	4290      	cmp	r0, r2
     ca4:	d1f8      	bne.n	c98 <SysCtlPeripheralPowerOff+0x8>
     ca6:	4a0b      	ldr	r2, [pc, #44]	; (cd4 <SysCtlPeripheralPowerOff+0x44>)
     ca8:	eb02 03c3 	add.w	r3, r2, r3, lsl #3
     cac:	6958      	ldr	r0, [r3, #20]
     cae:	4a0a      	ldr	r2, [pc, #40]	; (cd8 <SysCtlPeripheralPowerOff+0x48>)
     cb0:	f3c0 2107 	ubfx	r1, r0, #8, #8
     cb4:	0083      	lsls	r3, r0, #2
     cb6:	440a      	add	r2, r1
     cb8:	f403 737f 	and.w	r3, r3, #1020	; 0x3fc
     cbc:	ea43 1342 	orr.w	r3, r3, r2, lsl #5
     cc0:	f043 4384 	orr.w	r3, r3, #1107296256	; 0x42000000
     cc4:	2200      	movs	r2, #0
     cc6:	601a      	str	r2, [r3, #0]
     cc8:	4770      	bx	lr
     cca:	bf00      	nop
     ccc:	00100001 	andseq	r0, r0, r1
     cd0:	00001b60 	andeq	r1, r0, r0, ror #22
     cd4:	00001b50 	andeq	r1, r0, r0, asr fp
     cd8:	400fe900 	andmi	lr, pc, r0, lsl #18

00000cdc <SysCtlPeripheralReset>:
     cdc:	f000 4370 	and.w	r3, r0, #4026531840	; 0xf0000000
     ce0:	f1b3 4f70 	cmp.w	r3, #4026531840	; 0xf0000000
     ce4:	b082      	sub	sp, #8
     ce6:	d01f      	beq.n	d28 <SysCtlPeripheralReset+0x4c>
     ce8:	4a1d      	ldr	r2, [pc, #116]	; (d60 <SysCtlPeripheralReset+0x84>)
     cea:	0f03      	lsrs	r3, r0, #28
     cec:	eb02 0283 	add.w	r2, r2, r3, lsl #2
     cf0:	b283      	uxth	r3, r0
     cf2:	f8d2 2130 	ldr.w	r2, [r2, #304]	; 0x130
     cf6:	f3c0 4004 	ubfx	r0, r0, #16, #5
     cfa:	6811      	ldr	r1, [r2, #0]
     cfc:	fa03 f000 	lsl.w	r0, r3, r0
     d00:	ea41 0300 	orr.w	r3, r1, r0
     d04:	2100      	movs	r1, #0
     d06:	6013      	str	r3, [r2, #0]
     d08:	9101      	str	r1, [sp, #4]
     d0a:	9b01      	ldr	r3, [sp, #4]
     d0c:	2b0f      	cmp	r3, #15
     d0e:	d805      	bhi.n	d1c <SysCtlPeripheralReset+0x40>
     d10:	9b01      	ldr	r3, [sp, #4]
     d12:	3301      	adds	r3, #1
     d14:	9301      	str	r3, [sp, #4]
     d16:	9b01      	ldr	r3, [sp, #4]
     d18:	2b0f      	cmp	r3, #15
     d1a:	d9f9      	bls.n	d10 <SysCtlPeripheralReset+0x34>
     d1c:	6813      	ldr	r3, [r2, #0]
     d1e:	ea23 0000 	bic.w	r0, r3, r0
     d22:	6010      	str	r0, [r2, #0]
     d24:	b002      	add	sp, #8
     d26:	4770      	bx	lr
     d28:	4b0e      	ldr	r3, [pc, #56]	; (d64 <SysCtlPeripheralReset+0x88>)
     d2a:	f3c0 2107 	ubfx	r1, r0, #8, #8
     d2e:	0082      	lsls	r2, r0, #2
     d30:	440b      	add	r3, r1
     d32:	f402 727f 	and.w	r2, r2, #1020	; 0x3fc
     d36:	ea42 1243 	orr.w	r2, r2, r3, lsl #5
     d3a:	f042 4284 	orr.w	r2, r2, #1107296256	; 0x42000000
     d3e:	2300      	movs	r3, #0
     d40:	2101      	movs	r1, #1
     d42:	6011      	str	r1, [r2, #0]
     d44:	9301      	str	r3, [sp, #4]
     d46:	9b01      	ldr	r3, [sp, #4]
     d48:	2b0f      	cmp	r3, #15
     d4a:	d805      	bhi.n	d58 <SysCtlPeripheralReset+0x7c>
     d4c:	9b01      	ldr	r3, [sp, #4]
     d4e:	3301      	adds	r3, #1
     d50:	9301      	str	r3, [sp, #4]
     d52:	9b01      	ldr	r3, [sp, #4]
     d54:	2b0f      	cmp	r3, #15
     d56:	d9f9      	bls.n	d4c <SysCtlPeripheralReset+0x70>
     d58:	2300      	movs	r3, #0
     d5a:	6013      	str	r3, [r2, #0]
     d5c:	b002      	add	sp, #8
     d5e:	4770      	bx	lr
     d60:	00001b50 	andeq	r1, r0, r0, asr fp
     d64:	400fe500 	andmi	lr, pc, r0, lsl #10

00000d68 <SysCtlPeripheralEnable>:
     d68:	f000 4370 	and.w	r3, r0, #4026531840	; 0xf0000000
     d6c:	f1b3 4f70 	cmp.w	r3, #4026531840	; 0xf0000000
     d70:	d00e      	beq.n	d90 <SysCtlPeripheralEnable+0x28>
     d72:	4a0e      	ldr	r2, [pc, #56]	; (dac <SysCtlPeripheralEnable+0x44>)
     d74:	0f03      	lsrs	r3, r0, #28
     d76:	eb02 0283 	add.w	r2, r2, r3, lsl #2
     d7a:	b283      	uxth	r3, r0
     d7c:	f8d2 213c 	ldr.w	r2, [r2, #316]	; 0x13c
     d80:	f3c0 4004 	ubfx	r0, r0, #16, #5
     d84:	6811      	ldr	r1, [r2, #0]
     d86:	fa03 f000 	lsl.w	r0, r3, r0
     d8a:	4308      	orrs	r0, r1
     d8c:	6010      	str	r0, [r2, #0]
     d8e:	4770      	bx	lr
     d90:	4b07      	ldr	r3, [pc, #28]	; (db0 <SysCtlPeripheralEnable+0x48>)
     d92:	f3c0 2207 	ubfx	r2, r0, #8, #8
     d96:	0080      	lsls	r0, r0, #2
     d98:	4413      	add	r3, r2
     d9a:	f400 707f 	and.w	r0, r0, #1020	; 0x3fc
     d9e:	ea40 1043 	orr.w	r0, r0, r3, lsl #5
     da2:	f040 4084 	orr.w	r0, r0, #1107296256	; 0x42000000
     da6:	2301      	movs	r3, #1
     da8:	6003      	str	r3, [r0, #0]
     daa:	4770      	bx	lr
     dac:	00001b50 	andeq	r1, r0, r0, asr fp
     db0:	400fe600 	andmi	lr, pc, r0, lsl #12

00000db4 <SysCtlPeripheralDisable>:
     db4:	f000 4370 	and.w	r3, r0, #4026531840	; 0xf0000000
     db8:	f1b3 4f70 	cmp.w	r3, #4026531840	; 0xf0000000
     dbc:	d00f      	beq.n	dde <SysCtlPeripheralDisable+0x2a>
     dbe:	4b0f      	ldr	r3, [pc, #60]	; (dfc <SysCtlPeripheralDisable+0x48>)
     dc0:	0f02      	lsrs	r2, r0, #28
     dc2:	eb03 0382 	add.w	r3, r3, r2, lsl #2
     dc6:	b282      	uxth	r2, r0
     dc8:	f8d3 113c 	ldr.w	r1, [r3, #316]	; 0x13c
     dcc:	f3c0 4004 	ubfx	r0, r0, #16, #5
     dd0:	680b      	ldr	r3, [r1, #0]
     dd2:	fa02 f000 	lsl.w	r0, r2, r0
     dd6:	ea23 0000 	bic.w	r0, r3, r0
     dda:	6008      	str	r0, [r1, #0]
     ddc:	4770      	bx	lr
     dde:	4b08      	ldr	r3, [pc, #32]	; (e00 <SysCtlPeripheralDisable+0x4c>)
     de0:	f3c0 2207 	ubfx	r2, r0, #8, #8
     de4:	0080      	lsls	r0, r0, #2
     de6:	4413      	add	r3, r2
     de8:	f400 707f 	and.w	r0, r0, #1020	; 0x3fc
     dec:	ea40 1043 	orr.w	r0, r0, r3, lsl #5
     df0:	f040 4084 	orr.w	r0, r0, #1107296256	; 0x42000000
     df4:	2300      	movs	r3, #0
     df6:	6003      	str	r3, [r0, #0]
     df8:	4770      	bx	lr
     dfa:	bf00      	nop
     dfc:	00001b50 	andeq	r1, r0, r0, asr fp
     e00:	400fe600 	andmi	lr, pc, r0, lsl #12

00000e04 <SysCtlPeripheralSleepEnable>:
     e04:	f000 4370 	and.w	r3, r0, #4026531840	; 0xf0000000
     e08:	f1b3 4f70 	cmp.w	r3, #4026531840	; 0xf0000000
     e0c:	d00e      	beq.n	e2c <SysCtlPeripheralSleepEnable+0x28>
     e0e:	4a0e      	ldr	r2, [pc, #56]	; (e48 <SysCtlPeripheralSleepEnable+0x44>)
     e10:	0f03      	lsrs	r3, r0, #28
     e12:	eb02 0283 	add.w	r2, r2, r3, lsl #2
     e16:	b283      	uxth	r3, r0
     e18:	f8d2 2148 	ldr.w	r2, [r2, #328]	; 0x148
     e1c:	f3c0 4004 	ubfx	r0, r0, #16, #5
     e20:	6811      	ldr	r1, [r2, #0]
     e22:	fa03 f000 	lsl.w	r0, r3, r0
     e26:	4308      	orrs	r0, r1
     e28:	6010      	str	r0, [r2, #0]
     e2a:	4770      	bx	lr
     e2c:	4b07      	ldr	r3, [pc, #28]	; (e4c <SysCtlPeripheralSleepEnable+0x48>)
     e2e:	f3c0 2207 	ubfx	r2, r0, #8, #8
     e32:	0080      	lsls	r0, r0, #2
     e34:	4413      	add	r3, r2
     e36:	f400 707f 	and.w	r0, r0, #1020	; 0x3fc
     e3a:	ea40 1043 	orr.w	r0, r0, r3, lsl #5
     e3e:	f040 4084 	orr.w	r0, r0, #1107296256	; 0x42000000
     e42:	2301      	movs	r3, #1
     e44:	6003      	str	r3, [r0, #0]
     e46:	4770      	bx	lr
     e48:	00001b50 	andeq	r1, r0, r0, asr fp
     e4c:	400fe700 	andmi	lr, pc, r0, lsl #14

00000e50 <SysCtlPeripheralSleepDisable>:
     e50:	f000 4370 	and.w	r3, r0, #4026531840	; 0xf0000000
     e54:	f1b3 4f70 	cmp.w	r3, #4026531840	; 0xf0000000
     e58:	d00f      	beq.n	e7a <SysCtlPeripheralSleepDisable+0x2a>
     e5a:	4b0f      	ldr	r3, [pc, #60]	; (e98 <SysCtlPeripheralSleepDisable+0x48>)
     e5c:	0f02      	lsrs	r2, r0, #28
     e5e:	eb03 0382 	add.w	r3, r3, r2, lsl #2
     e62:	b282      	uxth	r2, r0
     e64:	f8d3 1148 	ldr.w	r1, [r3, #328]	; 0x148
     e68:	f3c0 4004 	ubfx	r0, r0, #16, #5
     e6c:	680b      	ldr	r3, [r1, #0]
     e6e:	fa02 f000 	lsl.w	r0, r2, r0
     e72:	ea23 0000 	bic.w	r0, r3, r0
     e76:	6008      	str	r0, [r1, #0]
     e78:	4770      	bx	lr
     e7a:	4b08      	ldr	r3, [pc, #32]	; (e9c <SysCtlPeripheralSleepDisable+0x4c>)
     e7c:	f3c0 2207 	ubfx	r2, r0, #8, #8
     e80:	0080      	lsls	r0, r0, #2
     e82:	4413      	add	r3, r2
     e84:	f400 707f 	and.w	r0, r0, #1020	; 0x3fc
     e88:	ea40 1043 	orr.w	r0, r0, r3, lsl #5
     e8c:	f040 4084 	orr.w	r0, r0, #1107296256	; 0x42000000
     e90:	2300      	movs	r3, #0
     e92:	6003      	str	r3, [r0, #0]
     e94:	4770      	bx	lr
     e96:	bf00      	nop
     e98:	00001b50 	andeq	r1, r0, r0, asr fp
     e9c:	400fe700 	andmi	lr, pc, r0, lsl #14

00000ea0 <SysCtlPeripheralDeepSleepEnable>:
     ea0:	f000 4370 	and.w	r3, r0, #4026531840	; 0xf0000000
     ea4:	f1b3 4f70 	cmp.w	r3, #4026531840	; 0xf0000000
     ea8:	d00e      	beq.n	ec8 <SysCtlPeripheralDeepSleepEnable+0x28>
     eaa:	4a0e      	ldr	r2, [pc, #56]	; (ee4 <SysCtlPeripheralDeepSleepEnable+0x44>)
     eac:	0f03      	lsrs	r3, r0, #28
     eae:	eb02 0283 	add.w	r2, r2, r3, lsl #2
     eb2:	b283      	uxth	r3, r0
     eb4:	f8d2 2154 	ldr.w	r2, [r2, #340]	; 0x154
     eb8:	f3c0 4004 	ubfx	r0, r0, #16, #5
     ebc:	6811      	ldr	r1, [r2, #0]
     ebe:	fa03 f000 	lsl.w	r0, r3, r0
     ec2:	4308      	orrs	r0, r1
     ec4:	6010      	str	r0, [r2, #0]
     ec6:	4770      	bx	lr
     ec8:	4b07      	ldr	r3, [pc, #28]	; (ee8 <SysCtlPeripheralDeepSleepEnable+0x48>)
     eca:	f3c0 2207 	ubfx	r2, r0, #8, #8
     ece:	0080      	lsls	r0, r0, #2
     ed0:	4413      	add	r3, r2
     ed2:	f400 707f 	and.w	r0, r0, #1020	; 0x3fc
     ed6:	ea40 1043 	orr.w	r0, r0, r3, lsl #5
     eda:	f040 4084 	orr.w	r0, r0, #1107296256	; 0x42000000
     ede:	2301      	movs	r3, #1
     ee0:	6003      	str	r3, [r0, #0]
     ee2:	4770      	bx	lr
     ee4:	00001b50 	andeq	r1, r0, r0, asr fp
     ee8:	400fe800 	andmi	lr, pc, r0, lsl #16

00000eec <SysCtlPeripheralDeepSleepDisable>:
     eec:	f000 4370 	and.w	r3, r0, #4026531840	; 0xf0000000
     ef0:	f1b3 4f70 	cmp.w	r3, #4026531840	; 0xf0000000
     ef4:	d00f      	beq.n	f16 <SysCtlPeripheralDeepSleepDisable+0x2a>
     ef6:	4b0f      	ldr	r3, [pc, #60]	; (f34 <SysCtlPeripheralDeepSleepDisable+0x48>)
     ef8:	0f02      	lsrs	r2, r0, #28
     efa:	eb03 0382 	add.w	r3, r3, r2, lsl #2
     efe:	b282      	uxth	r2, r0
     f00:	f8d3 1154 	ldr.w	r1, [r3, #340]	; 0x154
     f04:	f3c0 4004 	ubfx	r0, r0, #16, #5
     f08:	680b      	ldr	r3, [r1, #0]
     f0a:	fa02 f000 	lsl.w	r0, r2, r0
     f0e:	ea23 0000 	bic.w	r0, r3, r0
     f12:	6008      	str	r0, [r1, #0]
     f14:	4770      	bx	lr
     f16:	4b08      	ldr	r3, [pc, #32]	; (f38 <SysCtlPeripheralDeepSleepDisable+0x4c>)
     f18:	f3c0 2207 	ubfx	r2, r0, #8, #8
     f1c:	0080      	lsls	r0, r0, #2
     f1e:	4413      	add	r3, r2
     f20:	f400 707f 	and.w	r0, r0, #1020	; 0x3fc
     f24:	ea40 1043 	orr.w	r0, r0, r3, lsl #5
     f28:	f040 4084 	orr.w	r0, r0, #1107296256	; 0x42000000
     f2c:	2300      	movs	r3, #0
     f2e:	6003      	str	r3, [r0, #0]
     f30:	4770      	bx	lr
     f32:	bf00      	nop
     f34:	00001b50 	andeq	r1, r0, r0, asr fp
     f38:	400fe800 	andmi	lr, pc, r0, lsl #16

00000f3c <SysCtlPeripheralClockGating>:
     f3c:	4a05      	ldr	r2, [pc, #20]	; (f54 <SysCtlPeripheralClockGating+0x18>)
     f3e:	6813      	ldr	r3, [r2, #0]
     f40:	b118      	cbz	r0, f4a <SysCtlPeripheralClockGating+0xe>
     f42:	f043 6300 	orr.w	r3, r3, #134217728	; 0x8000000
     f46:	6013      	str	r3, [r2, #0]
     f48:	4770      	bx	lr
     f4a:	f023 6300 	bic.w	r3, r3, #134217728	; 0x8000000
     f4e:	6013      	str	r3, [r2, #0]
     f50:	4770      	bx	lr
     f52:	bf00      	nop
     f54:	400fe060 	andmi	lr, pc, r0, rrx

00000f58 <SysCtlIntRegister>:
     f58:	b508      	push	{r3, lr}
     f5a:	4601      	mov	r1, r0
     f5c:	202c      	movs	r0, #44	; 0x2c
     f5e:	f7ff fc93 	bl	888 <IntRegister>
     f62:	e8bd 4008 	ldmia.w	sp!, {r3, lr}
     f66:	202c      	movs	r0, #44	; 0x2c
     f68:	f7ff bcfc 	b.w	964 <IntEnable>

00000f6c <SysCtlIntUnregister>:
     f6c:	b508      	push	{r3, lr}
     f6e:	202c      	movs	r0, #44	; 0x2c
     f70:	f7ff fd2e 	bl	9d0 <IntDisable>
     f74:	e8bd 4008 	ldmia.w	sp!, {r3, lr}
     f78:	202c      	movs	r0, #44	; 0x2c
     f7a:	f7ff bca1 	b.w	8c0 <IntUnregister>
     f7e:	bf00      	nop

00000f80 <SysCtlIntEnable>:
     f80:	4a02      	ldr	r2, [pc, #8]	; (f8c <SysCtlIntEnable+0xc>)
     f82:	6813      	ldr	r3, [r2, #0]
     f84:	4318      	orrs	r0, r3
     f86:	6010      	str	r0, [r2, #0]
     f88:	4770      	bx	lr
     f8a:	bf00      	nop
     f8c:	400fe054 	andmi	lr, pc, r4, asr r0	; <UNPREDICTABLE>

00000f90 <SysCtlIntDisable>:
     f90:	4a02      	ldr	r2, [pc, #8]	; (f9c <SysCtlIntDisable+0xc>)
     f92:	6813      	ldr	r3, [r2, #0]
     f94:	ea23 0000 	bic.w	r0, r3, r0
     f98:	6010      	str	r0, [r2, #0]
     f9a:	4770      	bx	lr
     f9c:	400fe054 	andmi	lr, pc, r4, asr r0	; <UNPREDICTABLE>

00000fa0 <SysCtlIntClear>:
     fa0:	4b01      	ldr	r3, [pc, #4]	; (fa8 <SysCtlIntClear+0x8>)
     fa2:	6018      	str	r0, [r3, #0]
     fa4:	4770      	bx	lr
     fa6:	bf00      	nop
     fa8:	400fe058 	andmi	lr, pc, r8, asr r0	; <UNPREDICTABLE>

00000fac <SysCtlIntStatus>:
     fac:	b110      	cbz	r0, fb4 <SysCtlIntStatus+0x8>
     fae:	4b03      	ldr	r3, [pc, #12]	; (fbc <SysCtlIntStatus+0x10>)
     fb0:	6818      	ldr	r0, [r3, #0]
     fb2:	4770      	bx	lr
     fb4:	4b02      	ldr	r3, [pc, #8]	; (fc0 <SysCtlIntStatus+0x14>)
     fb6:	6818      	ldr	r0, [r3, #0]
     fb8:	4770      	bx	lr
     fba:	bf00      	nop
     fbc:	400fe058 	andmi	lr, pc, r8, asr r0	; <UNPREDICTABLE>
     fc0:	400fe050 	andmi	lr, pc, r0, asr r0	; <UNPREDICTABLE>

00000fc4 <SysCtlLDOSet>:
     fc4:	4b01      	ldr	r3, [pc, #4]	; (fcc <SysCtlLDOSet+0x8>)
     fc6:	6018      	str	r0, [r3, #0]
     fc8:	4770      	bx	lr
     fca:	bf00      	nop
     fcc:	400fe034 	andmi	lr, pc, r4, lsr r0	; <UNPREDICTABLE>

00000fd0 <SysCtlLDOGet>:
     fd0:	4b01      	ldr	r3, [pc, #4]	; (fd8 <SysCtlLDOGet+0x8>)
     fd2:	6818      	ldr	r0, [r3, #0]
     fd4:	4770      	bx	lr
     fd6:	bf00      	nop
     fd8:	400fe034 	andmi	lr, pc, r4, lsr r0	; <UNPREDICTABLE>

00000fdc <SysCtlLDOConfigSet>:
     fdc:	4b01      	ldr	r3, [pc, #4]	; (fe4 <SysCtlLDOConfigSet+0x8>)
     fde:	6018      	str	r0, [r3, #0]
     fe0:	4770      	bx	lr
     fe2:	bf00      	nop
     fe4:	400fe160 	andmi	lr, pc, r0, ror #2

00000fe8 <SysCtlReset>:
     fe8:	4b01      	ldr	r3, [pc, #4]	; (ff0 <SysCtlReset+0x8>)
     fea:	4a02      	ldr	r2, [pc, #8]	; (ff4 <SysCtlReset+0xc>)
     fec:	601a      	str	r2, [r3, #0]
     fee:	e7fe      	b.n	fee <SysCtlReset+0x6>
     ff0:	e000ed0c 	and	lr, r0, ip, lsl #26
     ff4:	05fa0004 	ldrbeq	r0, [sl, #4]!

00000ff8 <SysCtlSleep>:
     ff8:	f000 bcde 	b.w	19b8 <CPUwfi>

00000ffc <SysCtlDeepSleep>:
     ffc:	b510      	push	{r4, lr}
     ffe:	4c06      	ldr	r4, [pc, #24]	; (1018 <SysCtlDeepSleep+0x1c>)
    1000:	6823      	ldr	r3, [r4, #0]
    1002:	f043 0304 	orr.w	r3, r3, #4
    1006:	6023      	str	r3, [r4, #0]
    1008:	f000 fcd6 	bl	19b8 <CPUwfi>
    100c:	6823      	ldr	r3, [r4, #0]
    100e:	f023 0304 	bic.w	r3, r3, #4
    1012:	6023      	str	r3, [r4, #0]
    1014:	bd10      	pop	{r4, pc}
    1016:	bf00      	nop
    1018:	e000ed10 	and	lr, r0, r0, lsl sp

0000101c <SysCtlResetCauseGet>:
    101c:	4b01      	ldr	r3, [pc, #4]	; (1024 <SysCtlResetCauseGet+0x8>)
    101e:	6818      	ldr	r0, [r3, #0]
    1020:	4770      	bx	lr
    1022:	bf00      	nop
    1024:	400fe05c 	andmi	lr, pc, ip, asr r0	; <UNPREDICTABLE>

00001028 <SysCtlResetCauseClear>:
    1028:	4a02      	ldr	r2, [pc, #8]	; (1034 <SysCtlResetCauseClear+0xc>)
    102a:	6813      	ldr	r3, [r2, #0]
    102c:	ea23 0000 	bic.w	r0, r3, r0
    1030:	6010      	str	r0, [r2, #0]
    1032:	4770      	bx	lr
    1034:	400fe05c 	andmi	lr, pc, ip, asr r0	; <UNPREDICTABLE>

00001038 <SysCtlBrownOutConfigSet>:
    1038:	4b02      	ldr	r3, [pc, #8]	; (1044 <SysCtlBrownOutConfigSet+0xc>)
    103a:	ea40 0181 	orr.w	r1, r0, r1, lsl #2
    103e:	6019      	str	r1, [r3, #0]
    1040:	4770      	bx	lr
    1042:	bf00      	nop
    1044:	400fe030 	andmi	lr, pc, r0, lsr r0	; <UNPREDICTABLE>

00001048 <SysCtlDelay>:
    1048:	3801      	subs	r0, #1
    104a:	f47f affd 	bne.w	1048 <SysCtlDelay>
    104e:	4770      	bx	lr

00001050 <SysCtlMOSCConfigSet>:
    1050:	4b01      	ldr	r3, [pc, #4]	; (1058 <SysCtlMOSCConfigSet+0x8>)
    1052:	6018      	str	r0, [r3, #0]
    1054:	4770      	bx	lr
    1056:	bf00      	nop
    1058:	400fe07c 	andmi	lr, pc, ip, ror r0	; <UNPREDICTABLE>

0000105c <SysCtlPIOSCCalibrate>:
    105c:	4b0e      	ldr	r3, [pc, #56]	; (1098 <SysCtlPIOSCCalibrate+0x3c>)
    105e:	4218      	tst	r0, r3
    1060:	d006      	beq.n	1070 <SysCtlPIOSCCalibrate+0x14>
    1062:	4a0e      	ldr	r2, [pc, #56]	; (109c <SysCtlPIOSCCalibrate+0x40>)
    1064:	3b81      	subs	r3, #129	; 0x81
    1066:	4003      	ands	r3, r0
    1068:	f000 4100 	and.w	r1, r0, #2147483648	; 0x80000000
    106c:	6011      	str	r1, [r2, #0]
    106e:	6013      	str	r3, [r2, #0]
    1070:	4b0a      	ldr	r3, [pc, #40]	; (109c <SysCtlPIOSCCalibrate+0x40>)
    1072:	6018      	str	r0, [r3, #0]
    1074:	0583      	lsls	r3, r0, #22
    1076:	d50d      	bpl.n	1094 <SysCtlPIOSCCalibrate+0x38>
    1078:	4a09      	ldr	r2, [pc, #36]	; (10a0 <SysCtlPIOSCCalibrate+0x44>)
    107a:	6813      	ldr	r3, [r2, #0]
    107c:	f413 7f40 	tst.w	r3, #768	; 0x300
    1080:	d0fb      	beq.n	107a <SysCtlPIOSCCalibrate+0x1e>
    1082:	6810      	ldr	r0, [r2, #0]
    1084:	f400 7040 	and.w	r0, r0, #768	; 0x300
    1088:	f5a0 7080 	sub.w	r0, r0, #256	; 0x100
    108c:	fab0 f080 	clz	r0, r0
    1090:	0940      	lsrs	r0, r0, #5
    1092:	4770      	bx	lr
    1094:	2001      	movs	r0, #1
    1096:	4770      	bx	lr
    1098:	80000100 	andhi	r0, r0, r0, lsl #2
    109c:	400fe150 	andmi	lr, pc, r0, asr r1	; <UNPREDICTABLE>
    10a0:	400fe154 	andmi	lr, pc, r4, asr r1	; <UNPREDICTABLE>

000010a4 <SysCtlClockSet>:
    10a4:	4b54      	ldr	r3, [pc, #336]	; (11f8 <SysCtlClockSet+0x154>)
    10a6:	681a      	ldr	r2, [r3, #0]
    10a8:	f012 4fe0 	tst.w	r2, #1879048192	; 0x70000000
    10ac:	e92d 41f0 	stmdb	sp!, {r4, r5, r6, r7, r8, lr}
    10b0:	4605      	mov	r5, r0
    10b2:	f000 808b 	beq.w	11cc <SysCtlClockSet+0x128>
    10b6:	681a      	ldr	r2, [r3, #0]
    10b8:	4b50      	ldr	r3, [pc, #320]	; (11fc <SysCtlClockSet+0x158>)
    10ba:	4013      	ands	r3, r2
    10bc:	f1b3 5f80 	cmp.w	r3, #268435456	; 0x10000000
    10c0:	f000 8084 	beq.w	11cc <SysCtlClockSet+0x128>
    10c4:	494e      	ldr	r1, [pc, #312]	; (1200 <SysCtlClockSet+0x15c>)
    10c6:	4a4f      	ldr	r2, [pc, #316]	; (1204 <SysCtlClockSet+0x160>)
    10c8:	680b      	ldr	r3, [r1, #0]
    10ca:	6814      	ldr	r4, [r2, #0]
    10cc:	f423 0880 	bic.w	r8, r3, #4194304	; 0x400000
    10d0:	f448 6800 	orr.w	r8, r8, #2048	; 0x800
    10d4:	f8c1 8000 	str.w	r8, [r1]
    10d8:	f444 6000 	orr.w	r0, r4, #2048	; 0x800
    10dc:	0799      	lsls	r1, r3, #30
    10de:	6010      	str	r0, [r2, #0]
    10e0:	d56f      	bpl.n	11c2 <SysCtlClockSet+0x11e>
    10e2:	07aa      	lsls	r2, r5, #30
    10e4:	d46d      	bmi.n	11c2 <SysCtlClockSet+0x11e>
    10e6:	4a46      	ldr	r2, [pc, #280]	; (1200 <SysCtlClockSet+0x15c>)
    10e8:	f065 0303 	orn	r3, r5, #3
    10ec:	ea08 0803 	and.w	r8, r8, r3
    10f0:	2800      	cmp	r0, #0
    10f2:	f8c2 8000 	str.w	r8, [r2]
    10f6:	db76      	blt.n	11e6 <SysCtlClockSet+0x142>
    10f8:	f008 0330 	and.w	r3, r8, #48	; 0x30
    10fc:	2b30      	cmp	r3, #48	; 0x30
    10fe:	d076      	beq.n	11ee <SysCtlClockSet+0x14a>
    1100:	f44f 2000 	mov.w	r0, #524288	; 0x80000
    1104:	f7ff ffa0 	bl	1048 <SysCtlDelay>
    1108:	4a3f      	ldr	r2, [pc, #252]	; (1208 <SysCtlClockSet+0x164>)
    110a:	4e3e      	ldr	r6, [pc, #248]	; (1204 <SysCtlClockSet+0x160>)
    110c:	4f3c      	ldr	r7, [pc, #240]	; (1200 <SysCtlClockSet+0x15c>)
    110e:	f024 4300 	bic.w	r3, r4, #2147483648	; 0x80000000
    1112:	402a      	ands	r2, r5
    1114:	f023 0370 	bic.w	r3, r3, #112	; 0x70
    1118:	00ec      	lsls	r4, r5, #3
    111a:	4313      	orrs	r3, r2
    111c:	f004 0440 	and.w	r4, r4, #64	; 0x40
    1120:	f405 62fe 	and.w	r2, r5, #2032	; 0x7f0
    1124:	431c      	orrs	r4, r3
    1126:	f428 68fe 	bic.w	r8, r8, #2032	; 0x7f0
    112a:	ea42 0808 	orr.w	r8, r2, r8
    112e:	f444 6300 	orr.w	r3, r4, #2048	; 0x800
    1132:	f8c7 8000 	str.w	r8, [r7]
    1136:	2010      	movs	r0, #16
    1138:	6033      	str	r3, [r6, #0]
    113a:	f7ff ff85 	bl	1048 <SysCtlDelay>
    113e:	f424 5400 	bic.w	r4, r4, #8192	; 0x2000
    1142:	4932      	ldr	r1, [pc, #200]	; (120c <SysCtlClockSet+0x168>)
    1144:	f405 5300 	and.w	r3, r5, #8192	; 0x2000
    1148:	4323      	orrs	r3, r4
    114a:	f428 5840 	bic.w	r8, r8, #12288	; 0x3000
    114e:	f405 5240 	and.w	r2, r5, #12288	; 0x3000
    1152:	2040      	movs	r0, #64	; 0x40
    1154:	6008      	str	r0, [r1, #0]
    1156:	ea42 0208 	orr.w	r2, r2, r8
    115a:	f453 6100 	orrs.w	r1, r3, #2048	; 0x800
    115e:	4c2c      	ldr	r4, [pc, #176]	; (1210 <SysCtlClockSet+0x16c>)
    1160:	bf4a      	itet	mi
    1162:	6031      	strmi	r1, [r6, #0]
    1164:	603a      	strpl	r2, [r7, #0]
    1166:	603a      	strmi	r2, [r7, #0]
    1168:	f023 53fc 	bic.w	r3, r3, #528482304	; 0x1f800000
    116c:	f022 62f8 	bic.w	r2, r2, #130023424	; 0x7c00000
    1170:	bf58      	it	pl
    1172:	6031      	strpl	r1, [r6, #0]
    1174:	f022 0203 	bic.w	r2, r2, #3
    1178:	f443 6300 	orr.w	r3, r3, #2048	; 0x800
    117c:	402c      	ands	r4, r5
    117e:	f005 51fc 	and.w	r1, r5, #528482304	; 0x1f800000
    1182:	006e      	lsls	r6, r5, #1
    1184:	ea44 0402 	orr.w	r4, r4, r2
    1188:	ea43 0301 	orr.w	r3, r3, r1
    118c:	d423      	bmi.n	11d6 <SysCtlClockSet+0x132>
    118e:	f023 4180 	bic.w	r1, r3, #1073741824	; 0x40000000
    1192:	0528      	lsls	r0, r5, #20
    1194:	d40c      	bmi.n	11b0 <SysCtlClockSet+0x10c>
    1196:	481f      	ldr	r0, [pc, #124]	; (1214 <SysCtlClockSet+0x170>)
    1198:	f44f 4300 	mov.w	r3, #32768	; 0x8000
    119c:	e001      	b.n	11a2 <SysCtlClockSet+0xfe>
    119e:	3b01      	subs	r3, #1
    11a0:	d002      	beq.n	11a8 <SysCtlClockSet+0x104>
    11a2:	6802      	ldr	r2, [r0, #0]
    11a4:	0652      	lsls	r2, r2, #25
    11a6:	d5fa      	bpl.n	119e <SysCtlClockSet+0xfa>
    11a8:	f424 6400 	bic.w	r4, r4, #2048	; 0x800
    11ac:	f421 6100 	bic.w	r1, r1, #2048	; 0x800
    11b0:	4a13      	ldr	r2, [pc, #76]	; (1200 <SysCtlClockSet+0x15c>)
    11b2:	4b14      	ldr	r3, [pc, #80]	; (1204 <SysCtlClockSet+0x160>)
    11b4:	6014      	str	r4, [r2, #0]
    11b6:	2010      	movs	r0, #16
    11b8:	e8bd 41f0 	ldmia.w	sp!, {r4, r5, r6, r7, r8, lr}
    11bc:	6019      	str	r1, [r3, #0]
    11be:	f7ff bf43 	b.w	1048 <SysCtlDelay>
    11c2:	07db      	lsls	r3, r3, #31
    11c4:	d5a0      	bpl.n	1108 <SysCtlClockSet+0x64>
    11c6:	07ef      	lsls	r7, r5, #31
    11c8:	d49e      	bmi.n	1108 <SysCtlClockSet+0x64>
    11ca:	e78c      	b.n	10e6 <SysCtlClockSet+0x42>
    11cc:	2d00      	cmp	r5, #0
    11ce:	f6bf af79 	bge.w	10c4 <SysCtlClockSet+0x20>
    11d2:	e8bd 81f0 	ldmia.w	sp!, {r4, r5, r6, r7, r8, pc}
    11d6:	4910      	ldr	r1, [pc, #64]	; (1218 <SysCtlClockSet+0x174>)
    11d8:	f423 0380 	bic.w	r3, r3, #4194304	; 0x400000
    11dc:	4029      	ands	r1, r5
    11de:	f444 0480 	orr.w	r4, r4, #4194304	; 0x400000
    11e2:	4319      	orrs	r1, r3
    11e4:	e7d5      	b.n	1192 <SysCtlClockSet+0xee>
    11e6:	f004 0330 	and.w	r3, r4, #48	; 0x30
    11ea:	2b30      	cmp	r3, #48	; 0x30
    11ec:	d188      	bne.n	1100 <SysCtlClockSet+0x5c>
    11ee:	f44f 5080 	mov.w	r0, #4096	; 0x1000
    11f2:	f7ff ff29 	bl	1048 <SysCtlDelay>
    11f6:	e787      	b.n	1108 <SysCtlClockSet+0x64>
    11f8:	400fe000 	andmi	lr, pc, r0
    11fc:	70ff0000 	rscsvc	r0, pc, r0
    1200:	400fe060 	andmi	lr, pc, r0, rrx
    1204:	400fe070 	andmi	lr, pc, r0, ror r0	; <UNPREDICTABLE>
    1208:	80000030 	andhi	r0, r0, r0, lsr r0
    120c:	400fe058 	andmi	lr, pc, r8, asr r0	; <UNPREDICTABLE>
    1210:	07c00003 	strbeq	r0, [r0, r3]
    1214:	400fe050 	andmi	lr, pc, r0, asr r0	; <UNPREDICTABLE>
    1218:	40400000 	submi	r0, r0, r0

0000121c <SysCtlClockGet>:
    121c:	4a7e      	ldr	r2, [pc, #504]	; (1418 <SysCtlClockGet+0x1fc>)
    121e:	4b7f      	ldr	r3, [pc, #508]	; (141c <SysCtlClockGet+0x200>)
    1220:	6812      	ldr	r2, [r2, #0]
    1222:	681b      	ldr	r3, [r3, #0]
    1224:	2b00      	cmp	r3, #0
    1226:	b430      	push	{r4, r5}
    1228:	db4d      	blt.n	12c6 <SysCtlClockGet+0xaa>
    122a:	f002 0130 	and.w	r1, r2, #48	; 0x30
    122e:	2930      	cmp	r1, #48	; 0x30
    1230:	f000 80b5 	beq.w	139e <SysCtlClockGet+0x182>
    1234:	2910      	cmp	r1, #16
    1236:	f000 80b8 	beq.w	13aa <SysCtlClockGet+0x18e>
    123a:	2920      	cmp	r1, #32
    123c:	d107      	bne.n	124e <SysCtlClockGet+0x32>
    123e:	4978      	ldr	r1, [pc, #480]	; (1420 <SysCtlClockGet+0x204>)
    1240:	6808      	ldr	r0, [r1, #0]
    1242:	f010 4fe0 	tst.w	r0, #1879048192	; 0x70000000
    1246:	f040 80de 	bne.w	1406 <SysCtlClockGet+0x1ea>
    124a:	4876      	ldr	r0, [pc, #472]	; (1424 <SysCtlClockGet+0x208>)
    124c:	e00a      	b.n	1264 <SysCtlClockGet+0x48>
    124e:	2900      	cmp	r1, #0
    1250:	d168      	bne.n	1324 <SysCtlClockGet+0x108>
    1252:	4975      	ldr	r1, [pc, #468]	; (1428 <SysCtlClockGet+0x20c>)
    1254:	f3c2 1084 	ubfx	r0, r2, #6, #5
    1258:	eb01 0180 	add.w	r1, r1, r0, lsl #2
    125c:	f8d1 0160 	ldr.w	r0, [r1, #352]	; 0x160
    1260:	2b00      	cmp	r3, #0
    1262:	db0c      	blt.n	127e <SysCtlClockGet+0x62>
    1264:	0511      	lsls	r1, r2, #20
    1266:	d50c      	bpl.n	1282 <SysCtlClockGet+0x66>
    1268:	0251      	lsls	r1, r2, #9
    126a:	d425      	bmi.n	12b8 <SysCtlClockGet+0x9c>
    126c:	bc30      	pop	{r4, r5}
    126e:	4770      	bx	lr
    1270:	2960      	cmp	r1, #96	; 0x60
    1272:	d06b      	beq.n	134c <SysCtlClockGet+0x130>
    1274:	2970      	cmp	r1, #112	; 0x70
    1276:	bf08      	it	eq
    1278:	f44f 4000 	moveq.w	r0, #32768	; 0x8000
    127c:	d152      	bne.n	1324 <SysCtlClockGet+0x108>
    127e:	051d      	lsls	r5, r3, #20
    1280:	d447      	bmi.n	1312 <SysCtlClockGet+0xf6>
    1282:	496a      	ldr	r1, [pc, #424]	; (142c <SysCtlClockGet+0x210>)
    1284:	4c66      	ldr	r4, [pc, #408]	; (1420 <SysCtlClockGet+0x204>)
    1286:	6809      	ldr	r1, [r1, #0]
    1288:	6825      	ldr	r5, [r4, #0]
    128a:	f015 4fe0 	tst.w	r5, #1879048192	; 0x70000000
    128e:	d14c      	bne.n	132a <SysCtlClockGet+0x10e>
    1290:	f3c1 1548 	ubfx	r5, r1, #5, #9
    1294:	3502      	adds	r5, #2
    1296:	f001 041f 	and.w	r4, r1, #31
    129a:	fb00 f505 	mul.w	r5, r0, r5
    129e:	1ca0      	adds	r0, r4, #2
    12a0:	fbb5 f0f0 	udiv	r0, r5, r0
    12a4:	044c      	lsls	r4, r1, #17
    12a6:	bf48      	it	mi
    12a8:	0840      	lsrmi	r0, r0, #1
    12aa:	0409      	lsls	r1, r1, #16
    12ac:	bf48      	it	mi
    12ae:	0880      	lsrmi	r0, r0, #2
    12b0:	2b00      	cmp	r3, #0
    12b2:	db4e      	blt.n	1352 <SysCtlClockGet+0x136>
    12b4:	f442 0280 	orr.w	r2, r2, #4194304	; 0x400000
    12b8:	f3c2 52c3 	ubfx	r2, r2, #23, #4
    12bc:	3201      	adds	r2, #1
    12be:	bc30      	pop	{r4, r5}
    12c0:	fbb0 f0f2 	udiv	r0, r0, r2
    12c4:	4770      	bx	lr
    12c6:	f003 0170 	and.w	r1, r3, #112	; 0x70
    12ca:	2930      	cmp	r1, #48	; 0x30
    12cc:	d06a      	beq.n	13a4 <SysCtlClockGet+0x188>
    12ce:	d8cf      	bhi.n	1270 <SysCtlClockGet+0x54>
    12d0:	2910      	cmp	r1, #16
    12d2:	d049      	beq.n	1368 <SysCtlClockGet+0x14c>
    12d4:	2920      	cmp	r1, #32
    12d6:	d1ba      	bne.n	124e <SysCtlClockGet+0x32>
    12d8:	4951      	ldr	r1, [pc, #324]	; (1420 <SysCtlClockGet+0x204>)
    12da:	6808      	ldr	r0, [r1, #0]
    12dc:	f010 4fe0 	tst.w	r0, #1879048192	; 0x70000000
    12e0:	f000 808f 	beq.w	1402 <SysCtlClockGet+0x1e6>
    12e4:	6808      	ldr	r0, [r1, #0]
    12e6:	4952      	ldr	r1, [pc, #328]	; (1430 <SysCtlClockGet+0x214>)
    12e8:	4001      	ands	r1, r0
    12ea:	f1b1 5f80 	cmp.w	r1, #268435456	; 0x10000000
    12ee:	f000 8088 	beq.w	1402 <SysCtlClockGet+0x1e6>
    12f2:	484b      	ldr	r0, [pc, #300]	; (1420 <SysCtlClockGet+0x204>)
    12f4:	494e      	ldr	r1, [pc, #312]	; (1430 <SysCtlClockGet+0x214>)
    12f6:	6805      	ldr	r5, [r0, #0]
    12f8:	4c4e      	ldr	r4, [pc, #312]	; (1434 <SysCtlClockGet+0x218>)
    12fa:	4029      	ands	r1, r5
    12fc:	42a1      	cmp	r1, r4
    12fe:	d061      	beq.n	13c4 <SysCtlClockGet+0x1a8>
    1300:	4847      	ldr	r0, [pc, #284]	; (1420 <SysCtlClockGet+0x204>)
    1302:	494b      	ldr	r1, [pc, #300]	; (1430 <SysCtlClockGet+0x214>)
    1304:	6805      	ldr	r5, [r0, #0]
    1306:	4c4c      	ldr	r4, [pc, #304]	; (1438 <SysCtlClockGet+0x21c>)
    1308:	4029      	ands	r1, r5
    130a:	42a1      	cmp	r1, r4
    130c:	d060      	beq.n	13d0 <SysCtlClockGet+0x1b4>
    130e:	484b      	ldr	r0, [pc, #300]	; (143c <SysCtlClockGet+0x220>)
    1310:	e7a6      	b.n	1260 <SysCtlClockGet+0x44>
    1312:	0252      	lsls	r2, r2, #9
    1314:	d5aa      	bpl.n	126c <SysCtlClockGet+0x50>
    1316:	f3c3 53c5 	ubfx	r3, r3, #23, #6
    131a:	3301      	adds	r3, #1
    131c:	bc30      	pop	{r4, r5}
    131e:	fbb0 f0f3 	udiv	r0, r0, r3
    1322:	4770      	bx	lr
    1324:	2000      	movs	r0, #0
    1326:	bc30      	pop	{r4, r5}
    1328:	4770      	bx	lr
    132a:	6825      	ldr	r5, [r4, #0]
    132c:	4c40      	ldr	r4, [pc, #256]	; (1430 <SysCtlClockGet+0x214>)
    132e:	402c      	ands	r4, r5
    1330:	f1b4 5f80 	cmp.w	r4, #268435456	; 0x10000000
    1334:	d0ac      	beq.n	1290 <SysCtlClockGet+0x74>
    1336:	f001 041f 	and.w	r4, r1, #31
    133a:	3401      	adds	r4, #1
    133c:	f3c1 1548 	ubfx	r5, r1, #5, #9
    1340:	0064      	lsls	r4, r4, #1
    1342:	fb00 f005 	mul.w	r0, r0, r5
    1346:	fbb0 f0f4 	udiv	r0, r0, r4
    134a:	e7ab      	b.n	12a4 <SysCtlClockGet+0x88>
    134c:	f44f 0080 	mov.w	r0, #4194304	; 0x400000
    1350:	e795      	b.n	127e <SysCtlClockGet+0x62>
    1352:	005d      	lsls	r5, r3, #1
    1354:	d5df      	bpl.n	1316 <SysCtlClockGet+0xfa>
    1356:	051c      	lsls	r4, r3, #20
    1358:	d4dd      	bmi.n	1316 <SysCtlClockGet+0xfa>
    135a:	f3c3 5386 	ubfx	r3, r3, #22, #7
    135e:	3301      	adds	r3, #1
    1360:	0040      	lsls	r0, r0, #1
    1362:	fbb0 f0f3 	udiv	r0, r0, r3
    1366:	e781      	b.n	126c <SysCtlClockGet+0x50>
    1368:	492d      	ldr	r1, [pc, #180]	; (1420 <SysCtlClockGet+0x204>)
    136a:	6808      	ldr	r0, [r1, #0]
    136c:	f010 4fe0 	tst.w	r0, #1879048192	; 0x70000000
    1370:	d03e      	beq.n	13f0 <SysCtlClockGet+0x1d4>
    1372:	6808      	ldr	r0, [r1, #0]
    1374:	492e      	ldr	r1, [pc, #184]	; (1430 <SysCtlClockGet+0x214>)
    1376:	4001      	ands	r1, r0
    1378:	f1b1 5f80 	cmp.w	r1, #268435456	; 0x10000000
    137c:	d038      	beq.n	13f0 <SysCtlClockGet+0x1d4>
    137e:	4828      	ldr	r0, [pc, #160]	; (1420 <SysCtlClockGet+0x204>)
    1380:	492b      	ldr	r1, [pc, #172]	; (1430 <SysCtlClockGet+0x214>)
    1382:	6805      	ldr	r5, [r0, #0]
    1384:	4c2b      	ldr	r4, [pc, #172]	; (1434 <SysCtlClockGet+0x218>)
    1386:	4029      	ands	r1, r5
    1388:	42a1      	cmp	r1, r4
    138a:	d015      	beq.n	13b8 <SysCtlClockGet+0x19c>
    138c:	4824      	ldr	r0, [pc, #144]	; (1420 <SysCtlClockGet+0x204>)
    138e:	4928      	ldr	r1, [pc, #160]	; (1430 <SysCtlClockGet+0x214>)
    1390:	6805      	ldr	r5, [r0, #0]
    1392:	4c29      	ldr	r4, [pc, #164]	; (1438 <SysCtlClockGet+0x21c>)
    1394:	4029      	ands	r1, r5
    1396:	42a1      	cmp	r1, r4
    1398:	d022      	beq.n	13e0 <SysCtlClockGet+0x1c4>
    139a:	4829      	ldr	r0, [pc, #164]	; (1440 <SysCtlClockGet+0x224>)
    139c:	e760      	b.n	1260 <SysCtlClockGet+0x44>
    139e:	f247 5030 	movw	r0, #30000	; 0x7530
    13a2:	e75f      	b.n	1264 <SysCtlClockGet+0x48>
    13a4:	f247 5030 	movw	r0, #30000	; 0x7530
    13a8:	e769      	b.n	127e <SysCtlClockGet+0x62>
    13aa:	491d      	ldr	r1, [pc, #116]	; (1420 <SysCtlClockGet+0x204>)
    13ac:	6808      	ldr	r0, [r1, #0]
    13ae:	f010 4fe0 	tst.w	r0, #1879048192	; 0x70000000
    13b2:	d11f      	bne.n	13f4 <SysCtlClockGet+0x1d8>
    13b4:	4823      	ldr	r0, [pc, #140]	; (1444 <SysCtlClockGet+0x228>)
    13b6:	e755      	b.n	1264 <SysCtlClockGet+0x48>
    13b8:	6801      	ldr	r1, [r0, #0]
    13ba:	b289      	uxth	r1, r1
    13bc:	2902      	cmp	r1, #2
    13be:	d1e5      	bne.n	138c <SysCtlClockGet+0x170>
    13c0:	4821      	ldr	r0, [pc, #132]	; (1448 <SysCtlClockGet+0x22c>)
    13c2:	e74d      	b.n	1260 <SysCtlClockGet+0x44>
    13c4:	6801      	ldr	r1, [r0, #0]
    13c6:	b289      	uxth	r1, r1
    13c8:	2902      	cmp	r1, #2
    13ca:	d199      	bne.n	1300 <SysCtlClockGet+0xe4>
    13cc:	481f      	ldr	r0, [pc, #124]	; (144c <SysCtlClockGet+0x230>)
    13ce:	e747      	b.n	1260 <SysCtlClockGet+0x44>
    13d0:	6801      	ldr	r1, [r0, #0]
    13d2:	4c1a      	ldr	r4, [pc, #104]	; (143c <SysCtlClockGet+0x220>)
    13d4:	481d      	ldr	r0, [pc, #116]	; (144c <SysCtlClockGet+0x230>)
    13d6:	b289      	uxth	r1, r1
    13d8:	2900      	cmp	r1, #0
    13da:	bf18      	it	ne
    13dc:	4620      	movne	r0, r4
    13de:	e73f      	b.n	1260 <SysCtlClockGet+0x44>
    13e0:	6801      	ldr	r1, [r0, #0]
    13e2:	4c17      	ldr	r4, [pc, #92]	; (1440 <SysCtlClockGet+0x224>)
    13e4:	4818      	ldr	r0, [pc, #96]	; (1448 <SysCtlClockGet+0x22c>)
    13e6:	b289      	uxth	r1, r1
    13e8:	2900      	cmp	r1, #0
    13ea:	bf18      	it	ne
    13ec:	4620      	movne	r0, r4
    13ee:	e737      	b.n	1260 <SysCtlClockGet+0x44>
    13f0:	4814      	ldr	r0, [pc, #80]	; (1444 <SysCtlClockGet+0x228>)
    13f2:	e744      	b.n	127e <SysCtlClockGet+0x62>
    13f4:	6808      	ldr	r0, [r1, #0]
    13f6:	490e      	ldr	r1, [pc, #56]	; (1430 <SysCtlClockGet+0x214>)
    13f8:	4001      	ands	r1, r0
    13fa:	f1b1 5f80 	cmp.w	r1, #268435456	; 0x10000000
    13fe:	d1be      	bne.n	137e <SysCtlClockGet+0x162>
    1400:	e7d8      	b.n	13b4 <SysCtlClockGet+0x198>
    1402:	4808      	ldr	r0, [pc, #32]	; (1424 <SysCtlClockGet+0x208>)
    1404:	e73b      	b.n	127e <SysCtlClockGet+0x62>
    1406:	6808      	ldr	r0, [r1, #0]
    1408:	4909      	ldr	r1, [pc, #36]	; (1430 <SysCtlClockGet+0x214>)
    140a:	4001      	ands	r1, r0
    140c:	f1b1 5f80 	cmp.w	r1, #268435456	; 0x10000000
    1410:	f47f af6f 	bne.w	12f2 <SysCtlClockGet+0xd6>
    1414:	e719      	b.n	124a <SysCtlClockGet+0x2e>
    1416:	bf00      	nop
    1418:	400fe060 	andmi	lr, pc, r0, rrx
    141c:	400fe070 	andmi	lr, pc, r0, ror r0	; <UNPREDICTABLE>
    1420:	400fe000 	andmi	lr, pc, r0
    1424:	00393870 	eorseq	r3, r9, r0, ror r8
    1428:	00001b50 	andeq	r1, r0, r0, asr fp
    142c:	400fe064 	andmi	lr, pc, r4, rrx
    1430:	70ff0000 	rscsvc	r0, pc, r0
    1434:	10010000 	andne	r0, r1, r0
    1438:	10030000 	andne	r0, r3, r0
    143c:	003d0900 	eorseq	r0, sp, r0, lsl #18
    1440:	00f42400 	rscseq	r2, r4, r0, lsl #8
    1444:	00e4e1c0 	rsceq	lr, r4, r0, asr #3
    1448:	00b71b00 	adcseq	r1, r7, r0, lsl #22
    144c:	002dc6c0 	eoreq	ip, sp, r0, asr #13

00001450 <SysCtlDeepSleepClockSet>:
    1450:	4b01      	ldr	r3, [pc, #4]	; (1458 <SysCtlDeepSleepClockSet+0x8>)
    1452:	6018      	str	r0, [r3, #0]
    1454:	4770      	bx	lr
    1456:	bf00      	nop
    1458:	400fe144 	andmi	lr, pc, r4, asr #2

0000145c <SysCtlPWMClockSet>:
    145c:	4a03      	ldr	r2, [pc, #12]	; (146c <SysCtlPWMClockSet+0x10>)
    145e:	6813      	ldr	r3, [r2, #0]
    1460:	f423 13f0 	bic.w	r3, r3, #1966080	; 0x1e0000
    1464:	4303      	orrs	r3, r0
    1466:	6013      	str	r3, [r2, #0]
    1468:	4770      	bx	lr
    146a:	bf00      	nop
    146c:	400fe060 	andmi	lr, pc, r0, rrx

00001470 <SysCtlPWMClockGet>:
    1470:	4b04      	ldr	r3, [pc, #16]	; (1484 <SysCtlPWMClockGet+0x14>)
    1472:	6818      	ldr	r0, [r3, #0]
    1474:	f410 1080 	ands.w	r0, r0, #1048576	; 0x100000
    1478:	bf1c      	itt	ne
    147a:	6818      	ldrne	r0, [r3, #0]
    147c:	f400 10f0 	andne.w	r0, r0, #1966080	; 0x1e0000
    1480:	4770      	bx	lr
    1482:	bf00      	nop
    1484:	400fe060 	andmi	lr, pc, r0, rrx

00001488 <SysCtlADCSpeedSet>:
    1488:	4906      	ldr	r1, [pc, #24]	; (14a4 <SysCtlADCSpeedSet+0x1c>)
    148a:	4a07      	ldr	r2, [pc, #28]	; (14a8 <SysCtlADCSpeedSet+0x20>)
    148c:	680b      	ldr	r3, [r1, #0]
    148e:	f423 6370 	bic.w	r3, r3, #3840	; 0xf00
    1492:	4303      	orrs	r3, r0
    1494:	600b      	str	r3, [r1, #0]
    1496:	6813      	ldr	r3, [r2, #0]
    1498:	f423 6370 	bic.w	r3, r3, #3840	; 0xf00
    149c:	4318      	orrs	r0, r3
    149e:	6010      	str	r0, [r2, #0]
    14a0:	4770      	bx	lr
    14a2:	bf00      	nop
    14a4:	400fe100 	andmi	lr, pc, r0, lsl #2
    14a8:	400fe110 	andmi	lr, pc, r0, lsl r1	; <UNPREDICTABLE>

000014ac <SysCtlADCSpeedGet>:
    14ac:	4b02      	ldr	r3, [pc, #8]	; (14b8 <SysCtlADCSpeedGet+0xc>)
    14ae:	6818      	ldr	r0, [r3, #0]
    14b0:	f400 6070 	and.w	r0, r0, #3840	; 0xf00
    14b4:	4770      	bx	lr
    14b6:	bf00      	nop
    14b8:	400fe100 	andmi	lr, pc, r0, lsl #2

000014bc <SysCtlIOSCVerificationSet>:
    14bc:	4a05      	ldr	r2, [pc, #20]	; (14d4 <SysCtlIOSCVerificationSet+0x18>)
    14be:	6813      	ldr	r3, [r2, #0]
    14c0:	b118      	cbz	r0, 14ca <SysCtlIOSCVerificationSet+0xe>
    14c2:	f043 0308 	orr.w	r3, r3, #8
    14c6:	6013      	str	r3, [r2, #0]
    14c8:	4770      	bx	lr
    14ca:	f023 0308 	bic.w	r3, r3, #8
    14ce:	6013      	str	r3, [r2, #0]
    14d0:	4770      	bx	lr
    14d2:	bf00      	nop
    14d4:	400fe060 	andmi	lr, pc, r0, rrx

000014d8 <SysCtlMOSCVerificationSet>:
    14d8:	4a05      	ldr	r2, [pc, #20]	; (14f0 <SysCtlMOSCVerificationSet+0x18>)
    14da:	6813      	ldr	r3, [r2, #0]
    14dc:	b118      	cbz	r0, 14e6 <SysCtlMOSCVerificationSet+0xe>
    14de:	f043 0304 	orr.w	r3, r3, #4
    14e2:	6013      	str	r3, [r2, #0]
    14e4:	4770      	bx	lr
    14e6:	f023 0304 	bic.w	r3, r3, #4
    14ea:	6013      	str	r3, [r2, #0]
    14ec:	4770      	bx	lr
    14ee:	bf00      	nop
    14f0:	400fe060 	andmi	lr, pc, r0, rrx

000014f4 <SysCtlPLLVerificationSet>:
    14f4:	4a05      	ldr	r2, [pc, #20]	; (150c <SysCtlPLLVerificationSet+0x18>)
    14f6:	6813      	ldr	r3, [r2, #0]
    14f8:	b118      	cbz	r0, 1502 <SysCtlPLLVerificationSet+0xe>
    14fa:	f443 6380 	orr.w	r3, r3, #1024	; 0x400
    14fe:	6013      	str	r3, [r2, #0]
    1500:	4770      	bx	lr
    1502:	f423 6380 	bic.w	r3, r3, #1024	; 0x400
    1506:	6013      	str	r3, [r2, #0]
    1508:	4770      	bx	lr
    150a:	bf00      	nop
    150c:	400fe060 	andmi	lr, pc, r0, rrx

00001510 <SysCtlClkVerificationClear>:
    1510:	4b02      	ldr	r3, [pc, #8]	; (151c <SysCtlClkVerificationClear+0xc>)
    1512:	2101      	movs	r1, #1
    1514:	2200      	movs	r2, #0
    1516:	6019      	str	r1, [r3, #0]
    1518:	601a      	str	r2, [r3, #0]
    151a:	4770      	bx	lr
    151c:	400fe150 	andmi	lr, pc, r0, asr r1	; <UNPREDICTABLE>

00001520 <SysCtlGPIOAHBEnable>:
    1520:	4b02      	ldr	r3, [pc, #8]	; (152c <SysCtlGPIOAHBEnable+0xc>)
    1522:	681a      	ldr	r2, [r3, #0]
    1524:	b280      	uxth	r0, r0
    1526:	4310      	orrs	r0, r2
    1528:	6018      	str	r0, [r3, #0]
    152a:	4770      	bx	lr
    152c:	400fe06c 	andmi	lr, pc, ip, rrx

00001530 <SysCtlGPIOAHBDisable>:
    1530:	4a03      	ldr	r2, [pc, #12]	; (1540 <SysCtlGPIOAHBDisable+0x10>)
    1532:	6813      	ldr	r3, [r2, #0]
    1534:	b280      	uxth	r0, r0
    1536:	ea23 0300 	bic.w	r3, r3, r0
    153a:	6013      	str	r3, [r2, #0]
    153c:	4770      	bx	lr
    153e:	bf00      	nop
    1540:	400fe06c 	andmi	lr, pc, ip, rrx

00001544 <SysCtlUSBPLLEnable>:
    1544:	4a02      	ldr	r2, [pc, #8]	; (1550 <SysCtlUSBPLLEnable+0xc>)
    1546:	6813      	ldr	r3, [r2, #0]
    1548:	f423 4380 	bic.w	r3, r3, #16384	; 0x4000
    154c:	6013      	str	r3, [r2, #0]
    154e:	4770      	bx	lr
    1550:	400fe070 	andmi	lr, pc, r0, ror r0	; <UNPREDICTABLE>

00001554 <SysCtlUSBPLLDisable>:
    1554:	4a02      	ldr	r2, [pc, #8]	; (1560 <SysCtlUSBPLLDisable+0xc>)
    1556:	6813      	ldr	r3, [r2, #0]
    1558:	f443 4380 	orr.w	r3, r3, #16384	; 0x4000
    155c:	6013      	str	r3, [r2, #0]
    155e:	4770      	bx	lr
    1560:	400fe070 	andmi	lr, pc, r0, ror r0	; <UNPREDICTABLE>

00001564 <SysCtlI2SMClkSet>:
    1564:	2900      	cmp	r1, #0
    1566:	d058      	beq.n	161a <SysCtlI2SMClkSet+0xb6>
    1568:	b4f0      	push	{r4, r5, r6, r7}
    156a:	b9d0      	cbnz	r0, 15a2 <SysCtlI2SMClkSet+0x3e>
    156c:	4a2f      	ldr	r2, [pc, #188]	; (162c <SysCtlI2SMClkSet+0xc8>)
    156e:	4b30      	ldr	r3, [pc, #192]	; (1630 <SysCtlI2SMClkSet+0xcc>)
    1570:	6812      	ldr	r2, [r2, #0]
    1572:	681b      	ldr	r3, [r3, #0]
    1574:	4c2f      	ldr	r4, [pc, #188]	; (1634 <SysCtlI2SMClkSet+0xd0>)
    1576:	f3c3 1384 	ubfx	r3, r3, #6, #5
    157a:	eb04 0483 	add.w	r4, r4, r3, lsl #2
    157e:	f3c2 1548 	ubfx	r5, r2, #5, #9
    1582:	f8d4 3160 	ldr.w	r3, [r4, #352]	; 0x160
    1586:	f002 001f 	and.w	r0, r2, #31
    158a:	0454      	lsls	r4, r2, #17
    158c:	fb03 f305 	mul.w	r3, r3, r5
    1590:	f100 0001 	add.w	r0, r0, #1
    1594:	fbb3 f0f0 	udiv	r0, r3, r0
    1598:	bf48      	it	mi
    159a:	0840      	lsrmi	r0, r0, #1
    159c:	0413      	lsls	r3, r2, #16
    159e:	bf48      	it	mi
    15a0:	0880      	lsrmi	r0, r0, #2
    15a2:	4e25      	ldr	r6, [pc, #148]	; (1638 <SysCtlI2SMClkSet+0xd4>)
    15a4:	4d25      	ldr	r5, [pc, #148]	; (163c <SysCtlI2SMClkSet+0xd8>)
    15a6:	6833      	ldr	r3, [r6, #0]
    15a8:	4f25      	ldr	r7, [pc, #148]	; (1640 <SysCtlI2SMClkSet+0xdc>)
    15aa:	401d      	ands	r5, r3
    15ac:	094c      	lsrs	r4, r1, #5
    15ae:	1e62      	subs	r2, r4, #1
    15b0:	42bd      	cmp	r5, r7
    15b2:	4410      	add	r0, r2
    15b4:	fbb0 f3f1 	udiv	r3, r0, r1
    15b8:	d018      	beq.n	15ec <SysCtlI2SMClkSet+0x88>
    15ba:	f5b3 6f80 	cmp.w	r3, #1024	; 0x400
    15be:	d31d      	bcc.n	15fc <SysCtlI2SMClkSet+0x98>
    15c0:	f643 71ff 	movw	r1, #16383	; 0x3fff
    15c4:	f06f 2340 	mvn.w	r3, #1073758208	; 0x40004000
    15c8:	f1c4 0201 	rsb	r2, r4, #1
    15cc:	4402      	add	r2, r0
    15ce:	4d1d      	ldr	r5, [pc, #116]	; (1644 <SysCtlI2SMClkSet+0xe0>)
    15d0:	fbb2 f4f1 	udiv	r4, r2, r1
    15d4:	f024 4070 	bic.w	r0, r4, #4026531840	; 0xf0000000
    15d8:	fb01 2010 	mls	r0, r1, r0, r2
    15dc:	0100      	lsls	r0, r0, #4
    15de:	602b      	str	r3, [r5, #0]
    15e0:	fbb0 f0f1 	udiv	r0, r0, r1
    15e4:	eb00 1004 	add.w	r0, r0, r4, lsl #4
    15e8:	bcf0      	pop	{r4, r5, r6, r7}
    15ea:	4770      	bx	lr
    15ec:	6832      	ldr	r2, [r6, #0]
    15ee:	f240 1501 	movw	r5, #257	; 0x101
    15f2:	b292      	uxth	r2, r2
    15f4:	42aa      	cmp	r2, r5
    15f6:	d1e0      	bne.n	15ba <SysCtlI2SMClkSet+0x56>
    15f8:	2bff      	cmp	r3, #255	; 0xff
    15fa:	d812      	bhi.n	1622 <SysCtlI2SMClkSet+0xbe>
    15fc:	011a      	lsls	r2, r3, #4
    15fe:	fb01 0513 	mls	r5, r1, r3, r0
    1602:	ea42 5303 	orr.w	r3, r2, r3, lsl #20
    1606:	012d      	lsls	r5, r5, #4
    1608:	fbb5 f1f1 	udiv	r1, r5, r1
    160c:	ea43 4301 	orr.w	r3, r3, r1, lsl #16
    1610:	430b      	orrs	r3, r1
    1612:	f043 2380 	orr.w	r3, r3, #2147516416	; 0x80008000
    1616:	4411      	add	r1, r2
    1618:	e7d6      	b.n	15c8 <SysCtlI2SMClkSet+0x64>
    161a:	4b0a      	ldr	r3, [pc, #40]	; (1644 <SysCtlI2SMClkSet+0xe0>)
    161c:	4608      	mov	r0, r1
    161e:	6019      	str	r1, [r3, #0]
    1620:	4770      	bx	lr
    1622:	f640 71ff 	movw	r1, #4095	; 0xfff
    1626:	f06f 2370 	mvn.w	r3, #1879076864	; 0x70007000
    162a:	e7cd      	b.n	15c8 <SysCtlI2SMClkSet+0x64>
    162c:	400fe064 	andmi	lr, pc, r4, rrx
    1630:	400fe060 	andmi	lr, pc, r0, rrx
    1634:	00001b50 	andeq	r1, r0, r0, asr fp
    1638:	400fe000 	andmi	lr, pc, r0
    163c:	70ff0000 	rscsvc	r0, pc, r0
    1640:	10040000 	andne	r0, r4, r0
    1644:	400fe170 	andmi	lr, pc, r0, ror r1	; <UNPREDICTABLE>

00001648 <UARTParityModeSet>:
    1648:	6ac3      	ldr	r3, [r0, #44]	; 0x2c
    164a:	f023 0386 	bic.w	r3, r3, #134	; 0x86
    164e:	4319      	orrs	r1, r3
    1650:	62c1      	str	r1, [r0, #44]	; 0x2c
    1652:	4770      	bx	lr

00001654 <UARTParityModeGet>:
    1654:	6ac0      	ldr	r0, [r0, #44]	; 0x2c
    1656:	f000 0086 	and.w	r0, r0, #134	; 0x86
    165a:	4770      	bx	lr

0000165c <UARTFIFOLevelSet>:
    165c:	430a      	orrs	r2, r1
    165e:	6342      	str	r2, [r0, #52]	; 0x34
    1660:	4770      	bx	lr
    1662:	bf00      	nop

00001664 <UARTFIFOLevelGet>:
    1664:	6b43      	ldr	r3, [r0, #52]	; 0x34
    1666:	f003 0007 	and.w	r0, r3, #7
    166a:	f003 0338 	and.w	r3, r3, #56	; 0x38
    166e:	6008      	str	r0, [r1, #0]
    1670:	6013      	str	r3, [r2, #0]
    1672:	4770      	bx	lr

00001674 <UARTConfigSetExpClk>:
    1674:	b430      	push	{r4, r5}
    1676:	f100 0518 	add.w	r5, r0, #24
    167a:	682c      	ldr	r4, [r5, #0]
    167c:	0724      	lsls	r4, r4, #28
    167e:	d4fc      	bmi.n	167a <UARTConfigSetExpClk+0x6>
    1680:	6ac4      	ldr	r4, [r0, #44]	; 0x2c
    1682:	f024 0410 	bic.w	r4, r4, #16
    1686:	62c4      	str	r4, [r0, #44]	; 0x2c
    1688:	6b04      	ldr	r4, [r0, #48]	; 0x30
    168a:	f424 7440 	bic.w	r4, r4, #768	; 0x300
    168e:	f024 0401 	bic.w	r4, r4, #1
    1692:	6304      	str	r4, [r0, #48]	; 0x30
    1694:	6b04      	ldr	r4, [r0, #48]	; 0x30
    1696:	ebb1 1f02 	cmp.w	r1, r2, lsl #4
    169a:	bf34      	ite	cc
    169c:	f044 0420 	orrcc.w	r4, r4, #32
    16a0:	f024 0420 	biccs.w	r4, r4, #32
    16a4:	ea4f 01c1 	mov.w	r1, r1, lsl #3
    16a8:	bf38      	it	cc
    16aa:	0852      	lsrcc	r2, r2, #1
    16ac:	fbb1 f2f2 	udiv	r2, r1, r2
    16b0:	3201      	adds	r2, #1
    16b2:	6304      	str	r4, [r0, #48]	; 0x30
    16b4:	2100      	movs	r1, #0
    16b6:	09d4      	lsrs	r4, r2, #7
    16b8:	f3c2 0245 	ubfx	r2, r2, #1, #6
    16bc:	6244      	str	r4, [r0, #36]	; 0x24
    16be:	6282      	str	r2, [r0, #40]	; 0x28
    16c0:	62c3      	str	r3, [r0, #44]	; 0x2c
    16c2:	6181      	str	r1, [r0, #24]
    16c4:	6ac3      	ldr	r3, [r0, #44]	; 0x2c
    16c6:	f043 0310 	orr.w	r3, r3, #16
    16ca:	62c3      	str	r3, [r0, #44]	; 0x2c
    16cc:	6b03      	ldr	r3, [r0, #48]	; 0x30
    16ce:	f443 7340 	orr.w	r3, r3, #768	; 0x300
    16d2:	f043 0301 	orr.w	r3, r3, #1
    16d6:	bc30      	pop	{r4, r5}
    16d8:	6303      	str	r3, [r0, #48]	; 0x30
    16da:	4770      	bx	lr

000016dc <UARTConfigGetExpClk>:
    16dc:	b430      	push	{r4, r5}
    16de:	6a45      	ldr	r5, [r0, #36]	; 0x24
    16e0:	6a84      	ldr	r4, [r0, #40]	; 0x28
    16e2:	0089      	lsls	r1, r1, #2
    16e4:	eb04 1485 	add.w	r4, r4, r5, lsl #6
    16e8:	fbb1 f1f4 	udiv	r1, r1, r4
    16ec:	6011      	str	r1, [r2, #0]
    16ee:	6b04      	ldr	r4, [r0, #48]	; 0x30
    16f0:	06a4      	lsls	r4, r4, #26
    16f2:	bf44      	itt	mi
    16f4:	0049      	lslmi	r1, r1, #1
    16f6:	6011      	strmi	r1, [r2, #0]
    16f8:	6ac2      	ldr	r2, [r0, #44]	; 0x2c
    16fa:	f002 02ee 	and.w	r2, r2, #238	; 0xee
    16fe:	bc30      	pop	{r4, r5}
    1700:	601a      	str	r2, [r3, #0]
    1702:	4770      	bx	lr

00001704 <UARTEnable>:
    1704:	6ac3      	ldr	r3, [r0, #44]	; 0x2c
    1706:	f043 0310 	orr.w	r3, r3, #16
    170a:	62c3      	str	r3, [r0, #44]	; 0x2c
    170c:	6b03      	ldr	r3, [r0, #48]	; 0x30
    170e:	f443 7340 	orr.w	r3, r3, #768	; 0x300
    1712:	f043 0301 	orr.w	r3, r3, #1
    1716:	6303      	str	r3, [r0, #48]	; 0x30
    1718:	4770      	bx	lr
    171a:	bf00      	nop

0000171c <UARTDisable>:
    171c:	f100 0218 	add.w	r2, r0, #24
    1720:	6813      	ldr	r3, [r2, #0]
    1722:	071b      	lsls	r3, r3, #28
    1724:	d4fc      	bmi.n	1720 <UARTDisable+0x4>
    1726:	6ac3      	ldr	r3, [r0, #44]	; 0x2c
    1728:	f023 0310 	bic.w	r3, r3, #16
    172c:	62c3      	str	r3, [r0, #44]	; 0x2c
    172e:	6b03      	ldr	r3, [r0, #48]	; 0x30
    1730:	f423 7340 	bic.w	r3, r3, #768	; 0x300
    1734:	f023 0301 	bic.w	r3, r3, #1
    1738:	6303      	str	r3, [r0, #48]	; 0x30
    173a:	4770      	bx	lr

0000173c <UARTFIFOEnable>:
    173c:	6ac3      	ldr	r3, [r0, #44]	; 0x2c
    173e:	f043 0310 	orr.w	r3, r3, #16
    1742:	62c3      	str	r3, [r0, #44]	; 0x2c
    1744:	4770      	bx	lr
    1746:	bf00      	nop

00001748 <UARTFIFODisable>:
    1748:	6ac3      	ldr	r3, [r0, #44]	; 0x2c
    174a:	f023 0310 	bic.w	r3, r3, #16
    174e:	62c3      	str	r3, [r0, #44]	; 0x2c
    1750:	4770      	bx	lr
    1752:	bf00      	nop

00001754 <UARTEnableSIR>:
    1754:	6b03      	ldr	r3, [r0, #48]	; 0x30
    1756:	b119      	cbz	r1, 1760 <UARTEnableSIR+0xc>
    1758:	f043 0306 	orr.w	r3, r3, #6
    175c:	6303      	str	r3, [r0, #48]	; 0x30
    175e:	4770      	bx	lr
    1760:	f043 0302 	orr.w	r3, r3, #2
    1764:	6303      	str	r3, [r0, #48]	; 0x30
    1766:	4770      	bx	lr

00001768 <UARTDisableSIR>:
    1768:	6b03      	ldr	r3, [r0, #48]	; 0x30
    176a:	f023 0306 	bic.w	r3, r3, #6
    176e:	6303      	str	r3, [r0, #48]	; 0x30
    1770:	4770      	bx	lr
    1772:	bf00      	nop

00001774 <UARTSmartCardEnable>:
    1774:	6ac3      	ldr	r3, [r0, #44]	; 0x2c
    1776:	f023 03e6 	bic.w	r3, r3, #230	; 0xe6
    177a:	f043 036e 	orr.w	r3, r3, #110	; 0x6e
    177e:	62c3      	str	r3, [r0, #44]	; 0x2c
    1780:	6b03      	ldr	r3, [r0, #48]	; 0x30
    1782:	f043 0308 	orr.w	r3, r3, #8
    1786:	6303      	str	r3, [r0, #48]	; 0x30
    1788:	4770      	bx	lr
    178a:	bf00      	nop

0000178c <UARTSmartCardDisable>:
    178c:	6b03      	ldr	r3, [r0, #48]	; 0x30
    178e:	f023 0308 	bic.w	r3, r3, #8
    1792:	6303      	str	r3, [r0, #48]	; 0x30
    1794:	4770      	bx	lr
    1796:	bf00      	nop

00001798 <UARTModemControlSet>:
    1798:	6b03      	ldr	r3, [r0, #48]	; 0x30
    179a:	f401 6140 	and.w	r1, r1, #3072	; 0xc00
    179e:	4319      	orrs	r1, r3
    17a0:	6301      	str	r1, [r0, #48]	; 0x30
    17a2:	4770      	bx	lr

000017a4 <UARTModemControlClear>:
    17a4:	6b03      	ldr	r3, [r0, #48]	; 0x30
    17a6:	f401 6140 	and.w	r1, r1, #3072	; 0xc00
    17aa:	ea23 0301 	bic.w	r3, r3, r1
    17ae:	6303      	str	r3, [r0, #48]	; 0x30
    17b0:	4770      	bx	lr
    17b2:	bf00      	nop

000017b4 <UARTModemControlGet>:
    17b4:	6b00      	ldr	r0, [r0, #48]	; 0x30
    17b6:	f400 6040 	and.w	r0, r0, #3072	; 0xc00
    17ba:	4770      	bx	lr

000017bc <UARTModemStatusGet>:
    17bc:	6980      	ldr	r0, [r0, #24]
    17be:	f240 1307 	movw	r3, #263	; 0x107
    17c2:	4018      	ands	r0, r3
    17c4:	4770      	bx	lr
    17c6:	bf00      	nop

000017c8 <UARTFlowControlSet>:
    17c8:	6b03      	ldr	r3, [r0, #48]	; 0x30
    17ca:	f423 4340 	bic.w	r3, r3, #49152	; 0xc000
    17ce:	4319      	orrs	r1, r3
    17d0:	6301      	str	r1, [r0, #48]	; 0x30
    17d2:	4770      	bx	lr

000017d4 <UARTFlowControlGet>:
    17d4:	6b00      	ldr	r0, [r0, #48]	; 0x30
    17d6:	f400 4040 	and.w	r0, r0, #49152	; 0xc000
    17da:	4770      	bx	lr

000017dc <UARTTxIntModeSet>:
    17dc:	6b03      	ldr	r3, [r0, #48]	; 0x30
    17de:	f023 0310 	bic.w	r3, r3, #16
    17e2:	4319      	orrs	r1, r3
    17e4:	6301      	str	r1, [r0, #48]	; 0x30
    17e6:	4770      	bx	lr

000017e8 <UARTTxIntModeGet>:
    17e8:	6b00      	ldr	r0, [r0, #48]	; 0x30
    17ea:	f000 0010 	and.w	r0, r0, #16
    17ee:	4770      	bx	lr

000017f0 <UARTCharsAvail>:
    17f0:	6980      	ldr	r0, [r0, #24]
    17f2:	f080 0010 	eor.w	r0, r0, #16
    17f6:	f3c0 1000 	ubfx	r0, r0, #4, #1
    17fa:	4770      	bx	lr

000017fc <UARTSpaceAvail>:
    17fc:	6980      	ldr	r0, [r0, #24]
    17fe:	f080 0020 	eor.w	r0, r0, #32
    1802:	f3c0 1040 	ubfx	r0, r0, #5, #1
    1806:	4770      	bx	lr

00001808 <UARTCharGetNonBlocking>:
    1808:	6983      	ldr	r3, [r0, #24]
    180a:	06db      	lsls	r3, r3, #27
    180c:	bf54      	ite	pl
    180e:	6800      	ldrpl	r0, [r0, #0]
    1810:	f04f 30ff 	movmi.w	r0, #4294967295
    1814:	4770      	bx	lr
    1816:	bf00      	nop

00001818 <UARTCharGet>:
    1818:	f100 0218 	add.w	r2, r0, #24
    181c:	6813      	ldr	r3, [r2, #0]
    181e:	06db      	lsls	r3, r3, #27
    1820:	d4fc      	bmi.n	181c <UARTCharGet+0x4>
    1822:	6800      	ldr	r0, [r0, #0]
    1824:	4770      	bx	lr
    1826:	bf00      	nop

00001828 <UARTCharPutNonBlocking>:
    1828:	6983      	ldr	r3, [r0, #24]
    182a:	069b      	lsls	r3, r3, #26
    182c:	bf5a      	itte	pl
    182e:	6001      	strpl	r1, [r0, #0]
    1830:	2001      	movpl	r0, #1
    1832:	2000      	movmi	r0, #0
    1834:	4770      	bx	lr
    1836:	bf00      	nop

00001838 <UARTCharPut>:
    1838:	f100 0218 	add.w	r2, r0, #24
    183c:	6813      	ldr	r3, [r2, #0]
    183e:	069b      	lsls	r3, r3, #26
    1840:	d4fc      	bmi.n	183c <UARTCharPut+0x4>
    1842:	6001      	str	r1, [r0, #0]
    1844:	4770      	bx	lr
    1846:	bf00      	nop

00001848 <UARTBreakCtl>:
    1848:	6ac3      	ldr	r3, [r0, #44]	; 0x2c
    184a:	302c      	adds	r0, #44	; 0x2c
    184c:	b119      	cbz	r1, 1856 <UARTBreakCtl+0xe>
    184e:	f043 0301 	orr.w	r3, r3, #1
    1852:	6003      	str	r3, [r0, #0]
    1854:	4770      	bx	lr
    1856:	f023 0301 	bic.w	r3, r3, #1
    185a:	6003      	str	r3, [r0, #0]
    185c:	4770      	bx	lr
    185e:	bf00      	nop

00001860 <UARTBusy>:
    1860:	6980      	ldr	r0, [r0, #24]
    1862:	f3c0 00c0 	ubfx	r0, r0, #3, #1
    1866:	4770      	bx	lr

00001868 <UARTIntRegister>:
    1868:	b510      	push	{r4, lr}
    186a:	4a0e      	ldr	r2, [pc, #56]	; (18a4 <UARTIntRegister+0x3c>)
    186c:	4c0e      	ldr	r4, [pc, #56]	; (18a8 <UARTIntRegister+0x40>)
    186e:	b082      	sub	sp, #8
    1870:	2300      	movs	r3, #0
    1872:	e001      	b.n	1878 <UARTIntRegister+0x10>
    1874:	f854 2033 	ldr.w	r2, [r4, r3, lsl #3]
    1878:	4290      	cmp	r0, r2
    187a:	d00d      	beq.n	1898 <UARTIntRegister+0x30>
    187c:	3301      	adds	r3, #1
    187e:	2b08      	cmp	r3, #8
    1880:	d1f8      	bne.n	1874 <UARTIntRegister+0xc>
    1882:	f04f 30ff 	mov.w	r0, #4294967295
    1886:	9001      	str	r0, [sp, #4]
    1888:	f7fe fffe 	bl	888 <IntRegister>
    188c:	9801      	ldr	r0, [sp, #4]
    188e:	b002      	add	sp, #8
    1890:	e8bd 4010 	ldmia.w	sp!, {r4, lr}
    1894:	f7ff b866 	b.w	964 <IntEnable>
    1898:	4a03      	ldr	r2, [pc, #12]	; (18a8 <UARTIntRegister+0x40>)
    189a:	eb02 03c3 	add.w	r3, r2, r3, lsl #3
    189e:	6858      	ldr	r0, [r3, #4]
    18a0:	e7f1      	b.n	1886 <UARTIntRegister+0x1e>
    18a2:	bf00      	nop
    18a4:	4000c000 	andmi	ip, r0, r0
    18a8:	00001d1c 	andeq	r1, r0, ip, lsl sp

000018ac <UARTIntUnregister>:
    18ac:	b500      	push	{lr}
    18ae:	4a0e      	ldr	r2, [pc, #56]	; (18e8 <UARTIntUnregister+0x3c>)
    18b0:	490e      	ldr	r1, [pc, #56]	; (18ec <UARTIntUnregister+0x40>)
    18b2:	b083      	sub	sp, #12
    18b4:	2300      	movs	r3, #0
    18b6:	e001      	b.n	18bc <UARTIntUnregister+0x10>
    18b8:	f851 2033 	ldr.w	r2, [r1, r3, lsl #3]
    18bc:	4290      	cmp	r0, r2
    18be:	d00d      	beq.n	18dc <UARTIntUnregister+0x30>
    18c0:	3301      	adds	r3, #1
    18c2:	2b08      	cmp	r3, #8
    18c4:	d1f8      	bne.n	18b8 <UARTIntUnregister+0xc>
    18c6:	f04f 30ff 	mov.w	r0, #4294967295
    18ca:	9001      	str	r0, [sp, #4]
    18cc:	f7ff f880 	bl	9d0 <IntDisable>
    18d0:	9801      	ldr	r0, [sp, #4]
    18d2:	b003      	add	sp, #12
    18d4:	f85d eb04 	ldr.w	lr, [sp], #4
    18d8:	f7fe bff2 	b.w	8c0 <IntUnregister>
    18dc:	4a03      	ldr	r2, [pc, #12]	; (18ec <UARTIntUnregister+0x40>)
    18de:	eb02 03c3 	add.w	r3, r2, r3, lsl #3
    18e2:	6858      	ldr	r0, [r3, #4]
    18e4:	e7f1      	b.n	18ca <UARTIntUnregister+0x1e>
    18e6:	bf00      	nop
    18e8:	4000c000 	andmi	ip, r0, r0
    18ec:	00001d1c 	andeq	r1, r0, ip, lsl sp

000018f0 <UARTIntEnable>:
    18f0:	6b83      	ldr	r3, [r0, #56]	; 0x38
    18f2:	4319      	orrs	r1, r3
    18f4:	6381      	str	r1, [r0, #56]	; 0x38
    18f6:	4770      	bx	lr

000018f8 <UARTIntDisable>:
    18f8:	6b83      	ldr	r3, [r0, #56]	; 0x38
    18fa:	ea23 0101 	bic.w	r1, r3, r1
    18fe:	6381      	str	r1, [r0, #56]	; 0x38
    1900:	4770      	bx	lr
    1902:	bf00      	nop

00001904 <UARTIntStatus>:
    1904:	b109      	cbz	r1, 190a <UARTIntStatus+0x6>
    1906:	6c00      	ldr	r0, [r0, #64]	; 0x40
    1908:	4770      	bx	lr
    190a:	6bc0      	ldr	r0, [r0, #60]	; 0x3c
    190c:	4770      	bx	lr
    190e:	bf00      	nop

00001910 <UARTIntClear>:
    1910:	6441      	str	r1, [r0, #68]	; 0x44
    1912:	4770      	bx	lr

00001914 <UARTDMAEnable>:
    1914:	6c83      	ldr	r3, [r0, #72]	; 0x48
    1916:	4319      	orrs	r1, r3
    1918:	6481      	str	r1, [r0, #72]	; 0x48
    191a:	4770      	bx	lr

0000191c <UARTDMADisable>:
    191c:	6c83      	ldr	r3, [r0, #72]	; 0x48
    191e:	ea23 0101 	bic.w	r1, r3, r1
    1922:	6481      	str	r1, [r0, #72]	; 0x48
    1924:	4770      	bx	lr
    1926:	bf00      	nop

00001928 <UARTRxErrorGet>:
    1928:	6840      	ldr	r0, [r0, #4]
    192a:	f000 000f 	and.w	r0, r0, #15
    192e:	4770      	bx	lr

00001930 <UARTRxErrorClear>:
    1930:	2300      	movs	r3, #0
    1932:	6043      	str	r3, [r0, #4]
    1934:	4770      	bx	lr
    1936:	bf00      	nop

00001938 <UARTClockSourceSet>:
    1938:	f8c0 1fc8 	str.w	r1, [r0, #4040]	; 0xfc8
    193c:	4770      	bx	lr
    193e:	bf00      	nop

00001940 <UARTClockSourceGet>:
    1940:	f8d0 0fc8 	ldr.w	r0, [r0, #4040]	; 0xfc8
    1944:	4770      	bx	lr
    1946:	bf00      	nop

00001948 <UART9BitEnable>:
    1948:	f8d0 30a4 	ldr.w	r3, [r0, #164]	; 0xa4
    194c:	f443 4300 	orr.w	r3, r3, #32768	; 0x8000
    1950:	f8c0 30a4 	str.w	r3, [r0, #164]	; 0xa4
    1954:	4770      	bx	lr
    1956:	bf00      	nop

00001958 <UART9BitDisable>:
    1958:	f8d0 30a4 	ldr.w	r3, [r0, #164]	; 0xa4
    195c:	f423 4300 	bic.w	r3, r3, #32768	; 0x8000
    1960:	f8c0 30a4 	str.w	r3, [r0, #164]	; 0xa4
    1964:	4770      	bx	lr
    1966:	bf00      	nop

00001968 <UART9BitAddrSet>:
    1968:	f8c0 10a4 	str.w	r1, [r0, #164]	; 0xa4
    196c:	f8c0 20a8 	str.w	r2, [r0, #168]	; 0xa8
    1970:	4770      	bx	lr
    1972:	bf00      	nop

00001974 <UART9BitAddrSend>:
    1974:	b410      	push	{r4}
    1976:	f100 0318 	add.w	r3, r0, #24
    197a:	681a      	ldr	r2, [r3, #0]
    197c:	f012 0f88 	tst.w	r2, #136	; 0x88
    1980:	d1fb      	bne.n	197a <UART9BitAddrSend+0x6>
    1982:	6ac4      	ldr	r4, [r0, #44]	; 0x2c
    1984:	f024 0286 	bic.w	r2, r4, #134	; 0x86
    1988:	f042 0282 	orr.w	r2, r2, #130	; 0x82
    198c:	62c2      	str	r2, [r0, #44]	; 0x2c
    198e:	6001      	str	r1, [r0, #0]
    1990:	681a      	ldr	r2, [r3, #0]
    1992:	f012 0f88 	tst.w	r2, #136	; 0x88
    1996:	d1fb      	bne.n	1990 <UART9BitAddrSend+0x1c>
    1998:	62c4      	str	r4, [r0, #44]	; 0x2c
    199a:	f85d 4b04 	ldr.w	r4, [sp], #4
    199e:	4770      	bx	lr

000019a0 <CPUcpsid>:
    19a0:	f3ef 8010 	mrs	r0, PRIMASK
    19a4:	b672      	cpsid	i
    19a6:	4770      	bx	lr

000019a8 <CPUprimask>:
    19a8:	f3ef 8010 	mrs	r0, PRIMASK
    19ac:	4770      	bx	lr
    19ae:	bf00      	nop

000019b0 <CPUcpsie>:
    19b0:	f3ef 8010 	mrs	r0, PRIMASK
    19b4:	b662      	cpsie	i
    19b6:	4770      	bx	lr

000019b8 <CPUwfi>:
    19b8:	bf30      	wfi
    19ba:	4770      	bx	lr

000019bc <CPUbasepriSet>:
    19bc:	f380 8811 	msr	BASEPRI, r0
    19c0:	4770      	bx	lr
    19c2:	bf00      	nop

000019c4 <CPUbasepriGet>:
    19c4:	f3ef 8011 	mrs	r0, BASEPRI
    19c8:	4770      	bx	lr
    19ca:	bf00      	nop

000019cc <g_pulGPIOBaseAddrs>:
    19cc:	40004000 	andmi	r4, r0, r0
    19d0:	40058000 	andmi	r8, r5, r0
    19d4:	40005000 	andmi	r5, r0, r0
    19d8:	40059000 	andmi	r9, r5, r0
    19dc:	40006000 	andmi	r6, r0, r0
    19e0:	4005a000 	andmi	sl, r5, r0
    19e4:	40007000 	andmi	r7, r0, r0
    19e8:	4005b000 	andmi	fp, r5, r0
    19ec:	40024000 	andmi	r4, r2, r0
    19f0:	4005c000 	andmi	ip, r5, r0
    19f4:	40025000 	andmi	r5, r2, r0
    19f8:	4005d000 	andmi	sp, r5, r0
    19fc:	40026000 	andmi	r6, r2, r0
    1a00:	4005e000 	andmi	lr, r5, r0
    1a04:	40027000 	andmi	r7, r2, r0
    1a08:	4005f000 	andmi	pc, r5, r0
    1a0c:	4003d000 	andmi	sp, r3, r0
    1a10:	40060000 	andmi	r0, r6, r0
    1a14:	40061000 	andmi	r1, r6, r0
    1a18:	40061000 	andmi	r1, r6, r0
    1a1c:	40062000 	andmi	r2, r6, r0
    1a20:	40062000 	andmi	r2, r6, r0
    1a24:	40063000 	andmi	r3, r6, r0
    1a28:	40063000 	andmi	r3, r6, r0
    1a2c:	40064000 	andmi	r4, r6, r0
    1a30:	40064000 	andmi	r4, r6, r0
    1a34:	40065000 	andmi	r5, r6, r0
    1a38:	40065000 	andmi	r5, r6, r0
    1a3c:	40066000 	andmi	r6, r6, r0
    1a40:	40066000 	andmi	r6, r6, r0

00001a44 <g_pulPriority>:
    1a44:	00000700 	andeq	r0, r0, r0, lsl #14
    1a48:	00000600 	andeq	r0, r0, r0, lsl #12
    1a4c:	00000500 	andeq	r0, r0, r0, lsl #10
    1a50:	00000400 	andeq	r0, r0, r0, lsl #8
    1a54:	00000300 	andeq	r0, r0, r0, lsl #6
    1a58:	00000200 	andeq	r0, r0, r0, lsl #4
    1a5c:	00000100 	andeq	r0, r0, r0, lsl #2
    1a60:	00000000 	andeq	r0, r0, r0

00001a64 <g_pulRegs>:
    1a64:	00000000 	andeq	r0, r0, r0
    1a68:	e000ed18 	and	lr, r0, r8, lsl sp
    1a6c:	e000ed1c 	and	lr, r0, ip, lsl sp
    1a70:	e000ed20 	and	lr, r0, r0, lsr #26
    1a74:	e000e400 	and	lr, r0, r0, lsl #8
    1a78:	e000e404 	and	lr, r0, r4, lsl #8
    1a7c:	e000e408 	and	lr, r0, r8, lsl #8
    1a80:	e000e40c 	and	lr, r0, ip, lsl #8
    1a84:	e000e410 	and	lr, r0, r0, lsl r4
    1a88:	e000e414 	and	lr, r0, r4, lsl r4
    1a8c:	e000e418 	and	lr, r0, r8, lsl r4
    1a90:	e000e41c 	and	lr, r0, ip, lsl r4
    1a94:	e000e420 	and	lr, r0, r0, lsr #8
    1a98:	e000e424 	and	lr, r0, r4, lsr #8
    1a9c:	e000e428 	and	lr, r0, r8, lsr #8
    1aa0:	e000e42c 	and	lr, r0, ip, lsr #8
    1aa4:	e000e430 	and	lr, r0, r0, lsr r4
    1aa8:	e000e434 	and	lr, r0, r4, lsr r4
    1aac:	e000e438 	and	lr, r0, r8, lsr r4
    1ab0:	e000e43c 	and	lr, r0, ip, lsr r4
    1ab4:	e000e440 	and	lr, r0, r0, asr #8
    1ab8:	e000e444 	and	lr, r0, r4, asr #8
    1abc:	e000e448 	and	lr, r0, r8, asr #8
    1ac0:	e000e44c 	and	lr, r0, ip, asr #8
    1ac4:	e000e450 	and	lr, r0, r0, asr r4
    1ac8:	e000e454 	and	lr, r0, r4, asr r4
    1acc:	e000e458 	and	lr, r0, r8, asr r4
    1ad0:	e000e45c 	and	lr, r0, ip, asr r4
    1ad4:	e000e460 	and	lr, r0, r0, ror #8
    1ad8:	e000e464 	and	lr, r0, r4, ror #8
    1adc:	e000e468 	and	lr, r0, r8, ror #8
    1ae0:	e000e46c 	and	lr, r0, ip, ror #8
    1ae4:	e000e470 	and	lr, r0, r0, ror r4
    1ae8:	e000e474 	and	lr, r0, r4, ror r4
    1aec:	e000e478 	and	lr, r0, r8, ror r4
    1af0:	e000e47c 	and	lr, r0, ip, ror r4
    1af4:	e000e480 	and	lr, r0, r0, lsl #9
    1af8:	e000e484 	and	lr, r0, r4, lsl #9
    1afc:	e000e488 	and	lr, r0, r8, lsl #9

00001b00 <g_pulEnRegs>:
    1b00:	e000e100 	and	lr, r0, r0, lsl #2
    1b04:	e000e104 	and	lr, r0, r4, lsl #2
    1b08:	e000e108 	and	lr, r0, r8, lsl #2
    1b0c:	e000e10c 	and	lr, r0, ip, lsl #2
    1b10:	e000e110 	and	lr, r0, r0, lsl r1

00001b14 <g_pulDisRegs>:
    1b14:	e000e180 	and	lr, r0, r0, lsl #3
    1b18:	e000e184 	and	lr, r0, r4, lsl #3
    1b1c:	e000e188 	and	lr, r0, r8, lsl #3
    1b20:	e000e18c 	and	lr, r0, ip, lsl #3
    1b24:	e000e190 	mul	r0, r0, r1

00001b28 <g_pulPendRegs>:
    1b28:	e000e200 	and	lr, r0, r0, lsl #4
    1b2c:	e000e204 	and	lr, r0, r4, lsl #4
    1b30:	e000e208 	and	lr, r0, r8, lsl #4
    1b34:	e000e20c 	and	lr, r0, ip, lsl #4
    1b38:	e000e210 	and	lr, r0, r0, lsl r2

00001b3c <g_pulUnpendRegs>:
    1b3c:	e000e280 	and	lr, r0, r0, lsl #5
    1b40:	e000e284 	and	lr, r0, r4, lsl #5
    1b44:	e000e288 	and	lr, r0, r8, lsl #5
    1b48:	e000e28c 	and	lr, r0, ip, lsl #5
    1b4c:	e000e290 	mul	r0, r0, r2

00001b50 <g_pulDCRegs>:
    1b50:	400fe010 	andmi	lr, pc, r0, lsl r0	; <UNPREDICTABLE>
    1b54:	400fe014 	andmi	lr, pc, r4, lsl r0	; <UNPREDICTABLE>
    1b58:	400fe01c 	andmi	lr, pc, ip, lsl r0	; <UNPREDICTABLE>
    1b5c:	400fe010 	andmi	lr, pc, r0, lsl r0	; <UNPREDICTABLE>

00001b60 <g_ppulPeripheralMap>:
    1b60:	00100001 	andseq	r0, r0, r1
    1b64:	f0003800 			; <UNDEFINED> instruction: 0xf0003800
    1b68:	00100002 	andseq	r0, r0, r2
    1b6c:	f0003801 			; <UNDEFINED> instruction: 0xf0003801
    1b70:	00100100 	andseq	r0, r0, r0, lsl #2
    1b74:	f0003400 			; <UNDEFINED> instruction: 0xf0003400
    1b78:	00100200 	andseq	r0, r0, r0, lsl #4
    1b7c:	f0003401 			; <UNDEFINED> instruction: 0xf0003401
    1b80:	00100400 	andseq	r0, r0, r0, lsl #8
    1b84:	f0003402 			; <UNDEFINED> instruction: 0xf0003402
    1b88:	10100100 	andsne	r0, r0, r0, lsl #2
    1b8c:	f0003c00 			; <UNDEFINED> instruction: 0xf0003c00
    1b90:	10100200 	andsne	r0, r0, r0, lsl #4
    1b94:	f0003c00 			; <UNDEFINED> instruction: 0xf0003c00
    1b98:	10100400 	andsne	r0, r0, r0, lsl #8
    1b9c:	f0003c00 			; <UNDEFINED> instruction: 0xf0003c00
    1ba0:	20000001 	andcs	r0, r0, r1
    1ba4:	f0000800 			; <UNDEFINED> instruction: 0xf0000800
    1ba8:	20000002 	andcs	r0, r0, r2
    1bac:	f0000801 			; <UNDEFINED> instruction: 0xf0000801
    1bb0:	20000004 	andcs	r0, r0, r4
    1bb4:	f0000802 			; <UNDEFINED> instruction: 0xf0000802
    1bb8:	20000008 	andcs	r0, r0, r8
    1bbc:	f0000803 			; <UNDEFINED> instruction: 0xf0000803
    1bc0:	20000010 	andcs	r0, r0, r0, lsl r0
    1bc4:	f0000804 			; <UNDEFINED> instruction: 0xf0000804
    1bc8:	20000020 	andcs	r0, r0, r0, lsr #32
    1bcc:	f0000805 			; <UNDEFINED> instruction: 0xf0000805
    1bd0:	20000040 	andcs	r0, r0, r0, asr #32
    1bd4:	f0000806 			; <UNDEFINED> instruction: 0xf0000806
    1bd8:	20000080 	andcs	r0, r0, r0, lsl #1
    1bdc:	f0000807 			; <UNDEFINED> instruction: 0xf0000807
    1be0:	20000100 	andcs	r0, r0, r0, lsl #2
    1be4:	f0000808 			; <UNDEFINED> instruction: 0xf0000808
    1be8:	00000040 	andeq	r0, r0, r0, asr #32
    1bec:	f0001400 			; <UNDEFINED> instruction: 0xf0001400
    1bf0:	10001000 	andne	r1, r0, r0
    1bf4:	f0002000 			; <UNDEFINED> instruction: 0xf0002000
    1bf8:	10004000 	andne	r4, r0, r0
    1bfc:	f0002001 			; <UNDEFINED> instruction: 0xf0002001
    1c00:	00100010 	andseq	r0, r0, r0, lsl r0
    1c04:	f0004000 			; <UNDEFINED> instruction: 0xf0004000
    1c08:	10000100 	andne	r0, r0, r0, lsl #2
    1c0c:	f0004400 			; <UNDEFINED> instruction: 0xf0004400
    1c10:	10000200 	andne	r0, r0, r0, lsl #4
    1c14:	f0004401 			; <UNDEFINED> instruction: 0xf0004401
    1c18:	10000010 	andne	r0, r0, r0, lsl r0
    1c1c:	f0001c00 			; <UNDEFINED> instruction: 0xf0001c00
    1c20:	10000020 	andne	r0, r0, r0, lsr #32
    1c24:	f0001c01 			; <UNDEFINED> instruction: 0xf0001c01
    1c28:	10100001 	andsne	r0, r0, r1
    1c2c:	f0000400 			; <UNDEFINED> instruction: 0xf0000400
    1c30:	10100002 	andsne	r0, r0, r2
    1c34:	f0000401 			; <UNDEFINED> instruction: 0xf0000401
    1c38:	10100004 	andsne	r0, r0, r4
    1c3c:	f0000402 			; <UNDEFINED> instruction: 0xf0000402
    1c40:	10100008 	andsne	r0, r0, r8
    1c44:	f0000403 			; <UNDEFINED> instruction: 0xf0000403
    1c48:	10000001 	andne	r0, r0, r1
    1c4c:	f0001800 			; <UNDEFINED> instruction: 0xf0001800
    1c50:	10000002 	andne	r0, r0, r2
    1c54:	f0001801 			; <UNDEFINED> instruction: 0xf0001801
    1c58:	10000004 	andne	r0, r0, r4
    1c5c:	f0001802 			; <UNDEFINED> instruction: 0xf0001802
    1c60:	20002000 	andcs	r2, r0, r0
    1c64:	f0000c00 			; <UNDEFINED> instruction: 0xf0000c00
    1c68:	20100001 	andscs	r0, r0, r1
    1c6c:	f0002800 			; <UNDEFINED> instruction: 0xf0002800
    1c70:	00000008 	andeq	r0, r0, r8
    1c74:	f0000000 			; <UNDEFINED> instruction: 0xf0000000
    1c78:	00101000 	andseq	r1, r0, r0
    1c7c:	f0000001 			; <UNDEFINED> instruction: 0xf0000001

00001c80 <g_pulSRCRRegs>:
    1c80:	400fe040 	andmi	lr, pc, r0, asr #32
    1c84:	400fe044 	andmi	lr, pc, r4, asr #32
    1c88:	400fe048 	andmi	lr, pc, r8, asr #32

00001c8c <g_pulRCGCRegs>:
    1c8c:	400fe100 	andmi	lr, pc, r0, lsl #2
    1c90:	400fe104 	andmi	lr, pc, r4, lsl #2
    1c94:	400fe108 	andmi	lr, pc, r8, lsl #2

00001c98 <g_pulSCGCRegs>:
    1c98:	400fe110 	andmi	lr, pc, r0, lsl r1	; <UNPREDICTABLE>
    1c9c:	400fe114 	andmi	lr, pc, r4, lsl r1	; <UNPREDICTABLE>
    1ca0:	400fe118 	andmi	lr, pc, r8, lsl r1	; <UNPREDICTABLE>

00001ca4 <g_pulDCGCRegs>:
    1ca4:	400fe120 	andmi	lr, pc, r0, lsr #2
    1ca8:	400fe124 	andmi	lr, pc, r4, lsr #2
    1cac:	400fe128 	andmi	lr, pc, r8, lsr #2

00001cb0 <g_pulXtals>:
    1cb0:	000f4240 	andeq	r4, pc, r0, asr #4
    1cb4:	001c2000 	andseq	r2, ip, r0
    1cb8:	001e8480 	andseq	r8, lr, r0, lsl #9
    1cbc:	00258000 	eoreq	r8, r5, r0
    1cc0:	00369e99 	mlaseq	r6, r9, lr, r9
    1cc4:	00384000 	eorseq	r4, r8, r0
    1cc8:	003d0900 	eorseq	r0, sp, r0, lsl #18
    1ccc:	003e8000 	eorseq	r8, lr, r0
    1cd0:	004b0000 	subeq	r0, fp, r0
    1cd4:	004c4b40 	subeq	r4, ip, r0, asr #22
    1cd8:	004e2000 	subeq	r2, lr, r0
    1cdc:	005b8d80 	subseq	r8, fp, r0, lsl #27
    1ce0:	005dc000 	subseq	ip, sp, r0
    1ce4:	00708000 	rsbseq	r8, r0, r0
    1ce8:	007a1200 	rsbseq	r1, sl, r0, lsl #4
    1cec:	007d0000 	rsbseq	r0, sp, r0
    1cf0:	00989680 	addseq	r9, r8, r0, lsl #13
    1cf4:	00b71b00 	adcseq	r1, r7, r0, lsl #22
    1cf8:	00bb8000 	adcseq	r8, fp, r0
    1cfc:	00cee8c0 	sbceq	lr, lr, r0, asr #17
    1d00:	00da7a64 	sbcseq	r7, sl, r4, ror #20
    1d04:	00f42400 	rscseq	r2, r4, r0, lsl #8
    1d08:	00fa0000 	rscseq	r0, sl, r0
    1d0c:	0112a880 	tsteq	r2, r0, lsl #17
    1d10:	01312d00 	teqeq	r1, r0, lsl #26
    1d14:	016e3600 	cmneq	lr, r0, lsl #12
    1d18:	017d7840 	cmneq	sp, r0, asr #16

00001d1c <g_ppulUARTIntMap>:
    1d1c:	4000c000 	andmi	ip, r0, r0
    1d20:	00000015 	andeq	r0, r0, r5, lsl r0
    1d24:	4000d000 	andmi	sp, r0, r0
    1d28:	00000016 	andeq	r0, r0, r6, lsl r0
    1d2c:	4000e000 	andmi	lr, r0, r0
    1d30:	00000031 	andeq	r0, r0, r1, lsr r0
    1d34:	4000f000 	andmi	pc, r0, r0
    1d38:	0000004b 	andeq	r0, r0, fp, asr #32
    1d3c:	40010000 	andmi	r0, r1, r0
    1d40:	0000004c 	andeq	r0, r0, ip, asr #32
    1d44:	40011000 	andmi	r1, r1, r0
    1d48:	0000004d 	andeq	r0, r0, sp, asr #32
    1d4c:	40012000 	andmi	r2, r1, r0
    1d50:	0000004e 	andeq	r0, r0, lr, asr #32
    1d54:	40013000 	andmi	r3, r1, r0
    1d58:	0000004f 	andeq	r0, r0, pc, asr #32

Disassembly of section .data:

20000000 <g_pfnRAMVectors>:
	...

Disassembly of section .bss:

2000026c <pulStack>:
	...

2000036c <bNewPLL>:
2000036c:	00000000 	andeq	r0, r0, r0

20000370 <ulSysDiv>:
20000370:	00000000 	andeq	r0, r0, r0

20000374 <ulOsc>:
20000374:	00000000 	andeq	r0, r0, r0

20000378 <ulOscSelect>:
20000378:	00000000 	andeq	r0, r0, r0

Disassembly of section .debug_info:

00000000 <.debug_info>:
       0:	0000015e 	andeq	r0, r0, lr, asr r1
       4:	00000004 	andeq	r0, r0, r4
       8:	01040000 	mrseq	r0, (UNDEF: 4)
       c:	00000079 	andeq	r0, r0, r9, ror r0
      10:	0000500c 	andeq	r5, r0, ip
      14:	00003500 	andeq	r3, r0, r0, lsl #10
      18:	00011c00 	andeq	r1, r1, r0, lsl #24
      1c:	00005c00 	andeq	r5, r0, r0, lsl #24
      20:	00000000 	andeq	r0, r0, r0
      24:	003c0200 	eorseq	r0, ip, r0, lsl #4
      28:	00350000 	eorseq	r0, r5, r0
      2c:	35030000 	strcc	r0, [r3, #-0]
      30:	3f000000 	svccc	0x00000000
      34:	07040400 	streq	r0, [r4, -r0, lsl #8]
      38:	00000012 	andeq	r0, r0, r2, lsl r0
      3c:	0d070404 	cfstrseq	mvf0, [r7, #-16]
      40:	05000000 	streq	r0, [r0, #-0]
      44:	0000005e 	andeq	r0, r0, lr, asr r0
      48:	25164001 	ldrcs	r4, [r6, #-1]
      4c:	05000000 	streq	r0, [r0, #-0]
      50:	00026c03 	andeq	r6, r2, r3, lsl #24
      54:	00700220 	rsbseq	r0, r0, r0, lsr #4
      58:	00650000 	rsbeq	r0, r5, r0
      5c:	35030000 	strcc	r0, [r3, #-0]
      60:	46000000 	strmi	r0, [r0], -r0
      64:	00550600 	subseq	r0, r5, r0, lsl #12
      68:	04070000 	streq	r0, [r7], #-0
      6c:	00000075 	andeq	r0, r0, r5, ror r0
      70:	00006a06 	andeq	r6, r0, r6, lsl #20
      74:	fc090800 	stc2	8, cr0, [r9], {-0}
      78:	01000000 	mrseq	r0, (UNDEF: 0)
      7c:	00650f49 	rsbeq	r0, r5, r9, asr #30
      80:	03050000 	movweq	r0, #20480	; 0x5000
      84:	00000000 	andeq	r0, r0, r0
      88:	00012b0a 	andeq	r2, r1, sl, lsl #22
      8c:	169c0100 	ldrne	r0, [ip], r0, lsl #2
      90:	0000003c 	andeq	r0, r0, ip, lsr r0
      94:	0001250a 	andeq	r2, r1, sl, lsl #10
      98:	169d0100 	ldrne	r0, [sp], r0, lsl #2
      9c:	0000003c 	andeq	r0, r0, ip, lsr r0
      a0:	00002e0a 	andeq	r2, r0, sl, lsl #28
      a4:	169e0100 	ldrne	r0, [lr], r0, lsl #2
      a8:	0000003c 	andeq	r0, r0, ip, lsr r0
      ac:	0001200a 	andeq	r2, r1, sl
      b0:	169f0100 	ldrne	r0, [pc], r0, lsl #2
      b4:	0000003c 	andeq	r0, r0, ip, lsr r0
      b8:	00001f0a 	andeq	r1, r0, sl, lsl #30
      bc:	16a00100 	strtne	r0, [r0], r0, lsl #2
      c0:	0000003c 	andeq	r0, r0, ip, lsr r0
      c4:	0000670b 	andeq	r6, r0, fp, lsl #14
      c8:	01fa0100 	mvnseq	r0, r0, lsl #2
      cc:	00000124 	andeq	r0, r0, r4, lsr #2
      d0:	00000002 	andeq	r0, r0, r2
      d4:	170b9c01 	strne	r9, [fp, -r1, lsl #24]
      d8:	01000001 	tsteq	r0, r1
      dc:	012001e8 	smulwteq	r0, r8, r1
      e0:	00020000 	andeq	r0, r2, r0
      e4:	9c010000 	stcls	0, cr0, [r1], {-0}
      e8:	0000070b 	andeq	r0, r0, fp, lsl #14
      ec:	01d60100 	bicseq	r0, r6, r0, lsl #2
      f0:	0000011c 	andeq	r0, r0, ip, lsl r1
      f4:	00000002 	andeq	r0, r0, r2
      f8:	250c9c01 	strcs	r9, [ip, #-3073]	; 0xfffff3ff
      fc:	01000000 	mrseq	r0, (UNDEF: 0)
     100:	012801ad 	smulwbeq	r8, sp, r1
     104:	00500000 	subseq	r0, r0, r0
     108:	9c010000 	stcls	0, cr0, [r1], {-0}
     10c:	00000143 	andeq	r0, r0, r3, asr #2
     110:	0000000d 	andeq	r0, r0, sp
     114:	14af0100 	strtne	r0, [pc], #256	; 11c <NmiSR>
     118:	00000143 	andeq	r0, r0, r3, asr #2
     11c:	00000006 	andeq	r0, r0, r6
     120:	00000000 	andeq	r0, r0, r0
     124:	0000480e 	andeq	r4, r0, lr, lsl #16
     128:	1daf0100 	stfnes	f0, [pc]	; 130 <ResetISR+0x8>
     12c:	00000143 	andeq	r0, r0, r3, asr #2
     130:	0001620f 	andeq	r6, r1, pc, lsl #4
     134:	00014900 	andeq	r4, r1, r0, lsl #18
     138:	016a1000 	cmneq	sl, r0
     13c:	01550000 	cmpeq	r5, r0
     140:	07000000 	streq	r0, [r0, -r0]
     144:	00003c04 	andeq	r3, r0, r4, lsl #24
     148:	01091100 	mrseq	r1, (UNDEF: 25)
     14c:	01090000 	mrseq	r0, (UNDEF: 9)
     150:	39010000 	stmdbcc	r1, {}	; <UNPREDICTABLE>
     154:	0112110c 	tsteq	r2, ip, lsl #2
     158:	01120000 	tsteq	r2, r0
     15c:	37010000 	strcc	r0, [r1, -r0]
     160:	01df000c 	bicseq	r0, pc, ip
     164:	00040000 	andeq	r0, r4, r0
     168:	00000102 	andeq	r0, r0, r2, lsl #2
     16c:	00790104 	rsbseq	r0, r9, r4, lsl #2
     170:	8c0c0000 	stchi	0, cr0, [ip], {-0}
     174:	35000001 	strcc	r0, [r0, #-1]
	...
     180:	d0000000 	andle	r0, r0, r0
     184:	02000000 	andeq	r0, r0, #0
     188:	01460404 	cmpeq	r6, r4, lsl #8
     18c:	04030000 	streq	r0, [r3], #-0
     190:	746e6905 	strbtvc	r6, [lr], #-2309	; 0xfffff6fb
     194:	08010200 	stmdaeq	r1, {r9}
     198:	000001b3 			; <UNDEFINED> instruction: 0x000001b3
     19c:	00011204 	andeq	r1, r1, r4, lsl #4
     1a0:	01580100 	cmpeq	r8, r0, lsl #2
     1a4:	0000002c 	andeq	r0, r0, ip, lsr #32
     1a8:	00000194 	muleq	r0, r4, r1
     1ac:	0000009c 	muleq	r0, ip, r0
     1b0:	01629c01 	cmneq	r2, r1, lsl #24
     1b4:	9a050000 	bls	1401bc <_etext+0x13e460>
     1b8:	01000001 	tsteq	r0, r1
     1bc:	01620a5a 	cmneq	r2, sl, asr sl
     1c0:	00330000 	eorseq	r0, r3, r0
     1c4:	00310000 	eorseq	r0, r1, r0
     1c8:	66060000 	strvs	r0, [r6], -r0
     1cc:	0b5b0100 	bleq	16c05d4 <_etext+0x16be878>
     1d0:	00000025 	andeq	r0, r0, r5, lsr #32
     1d4:	00000048 	andeq	r0, r0, r8, asr #32
     1d8:	00000046 	andeq	r0, r0, r6, asr #32
     1dc:	0001a807 	andeq	sl, r1, r7, lsl #16
     1e0:	00017f00 	andeq	r7, r1, r0, lsl #30
     1e4:	00009100 	andeq	r9, r0, r0, lsl #2
     1e8:	50010800 	andpl	r0, r1, r0, lsl #16
     1ec:	3d400c05 	stclcc	12, cr0, [r0, #-20]	; 0xffffffec
     1f0:	07000780 	streq	r0, [r0, -r0, lsl #15]
     1f4:	000001ae 	andeq	r0, r0, lr, lsr #3
     1f8:	0000018c 	andeq	r0, r0, ip, lsl #3
     1fc:	000000a8 	andeq	r0, r0, r8, lsr #1
     200:	05500108 	ldrbeq	r0, [r0, #-264]	; 0xfffffef8
     204:	0000010c 	andeq	r0, r0, ip, lsl #2
     208:	b4070010 	strlt	r0, [r7], #-16
     20c:	8c000001 	stchi	0, cr0, [r0], {1}
     210:	bf000001 	svclt	0x00000001
     214:	08000000 	stmdaeq	r0, {}	; <UNPREDICTABLE>
     218:	0c055001 	stceq	0, cr5, [r5], {1}
     21c:	20000001 	andcs	r0, r0, r1
     220:	01ba0700 			; <UNDEFINED> instruction: 0x01ba0700
     224:	01990000 	orrseq	r0, r9, r0
     228:	00d20000 	sbcseq	r0, r2, r0
     22c:	01080000 	mrseq	r0, (UNDEF: 8)
     230:	00310150 	eorseq	r0, r1, r0, asr r1
     234:	0001c007 	andeq	ip, r1, r7
     238:	00019900 	andeq	r9, r1, r0, lsl #18
     23c:	0000e500 	andeq	lr, r0, r0, lsl #10
     240:	50010800 	andpl	r0, r1, r0, lsl #16
     244:	07003201 	streq	r3, [r0, -r1, lsl #4]
     248:	000001ca 	andeq	r0, r0, sl, asr #3
     24c:	000001a5 	andeq	r0, r0, r5, lsr #3
     250:	00000101 	andeq	r0, r0, r1, lsl #2
     254:	05500108 	ldrbeq	r0, [r0, #-264]	; 0xfffffef8
     258:	0040000c 	subeq	r0, r0, ip
     25c:	51010840 	tstpl	r1, r0, asr #16
     260:	09003301 	stmdbeq	r0, {r0, r8, r9, ip, sp}
     264:	000001ce 	andeq	r0, r0, lr, asr #3
     268:	000001b1 			; <UNDEFINED> instruction: 0x000001b1
     26c:	0001dc07 	andeq	sp, r1, r7, lsl #24
     270:	0001be00 	andeq	fp, r1, r0, lsl #28
     274:	00012c00 	andeq	r2, r1, r0, lsl #24
     278:	50010800 	andpl	r0, r1, r0, lsl #16
     27c:	08007502 	stmdaeq	r0, {r1, r8, sl, ip, sp, lr}
     280:	08045201 	stmdaeq	r4, {r0, r9, ip, lr}
     284:	082439e1 	stmdaeq	r4!, {r0, r5, r6, r7, r8, fp, ip, sp}
     288:	08025301 	stmdaeq	r2, {r0, r8, r9, ip, lr}
     28c:	e4090060 	str	r0, [r9], #-96	; 0xffffffa0
     290:	ca000001 	bgt	29c <GPIOGetIntNumber+0x6c>
     294:	07000001 	streq	r0, [r0, -r1]
     298:	000001ea 	andeq	r0, r0, sl, ror #3
     29c:	000001d6 	ldrdeq	r0, [r0], -r6
     2a0:	00000149 	andeq	r0, r0, r9, asr #2
     2a4:	02500108 	subseq	r0, r0, #8, 2
     2a8:	0a000075 	beq	484 <GPIOPadConfigSet+0x48>
     2ac:	0000020a 	andeq	r0, r0, sl, lsl #4
     2b0:	000001ca 	andeq	r0, r0, sl, asr #3
     2b4:	02500108 	subseq	r0, r0, #8, 2
     2b8:	01080075 	tsteq	r8, r5, ror r0
     2bc:	64910451 	ldrvs	r0, [r1], #1105	; 0x451
     2c0:	00000194 	muleq	r0, r4, r1
     2c4:	bc080102 	stflts	f0, [r8], {2}
     2c8:	0b000001 	bleq	2d4 <GPIOGetIntNumber+0xa4>
     2cc:	00000109 	andeq	r0, r0, r9, lsl #2
     2d0:	2c053001 	stccs	0, cr3, [r5], {1}
     2d4:	80000000 	andhi	r0, r0, r0
     2d8:	10000001 	andne	r0, r0, r1
     2dc:	01000000 	mrseq	r0, (UNDEF: 0)
     2e0:	01a40c9c 			; <UNDEFINED> instruction: 0x01a40c9c
     2e4:	01a40000 			; <UNDEFINED> instruction: 0x01a40000
     2e8:	67020000 	strvs	r0, [r2, -r0]
     2ec:	750c0d02 	strvc	r0, [ip, #-3330]	; 0xfffff2fe
     2f0:	75000001 	strvc	r0, [r0, #-1]
     2f4:	02000001 	andeq	r0, r0, #1
     2f8:	0d0d024d 	sfmeq	f0, 4, [sp, #-308]	; 0xfffffecc
     2fc:	00000164 	andeq	r0, r0, r4, ror #2
     300:	00000164 	andeq	r0, r0, r4, ror #2
     304:	0d0d8f03 	stceq	15, cr8, [sp, #-12]
     308:	000001c1 	andeq	r0, r0, r1, asr #3
     30c:	000001c1 	andeq	r0, r0, r1, asr #3
     310:	0c0da503 	cfstr32eq	mvfx10, [sp], {3}
     314:	000001d1 	ldrdeq	r0, [r0], -r1
     318:	000001d1 	ldrdeq	r0, [r0], -r1
     31c:	16026802 	strne	r6, [r2], -r2, lsl #16
     320:	0001320d 	andeq	r3, r1, sp, lsl #4
     324:	00013200 	andeq	r3, r1, r0, lsl #4
     328:	0dc60400 	cfstrdeq	mvd0, [r6]
     32c:	00014c0d 	andeq	r4, r1, sp, lsl #24
     330:	00014c00 	andeq	r4, r1, r0, lsl #24
     334:	0dd70400 	cfldrdeq	mvd0, [r7]
     338:	0001580d 	andeq	r5, r1, sp, lsl #16
     33c:	00015800 	andeq	r5, r1, r0, lsl #16
     340:	0dd40400 	cfldrdeq	mvd0, [r4]
     344:	000f0800 	andeq	r0, pc, r0, lsl #16
     348:	e3000400 	movw	r0, #1024	; 0x400
     34c:	04000001 	streq	r0, [r0], #-1
     350:	00049801 	andeq	r9, r4, r1, lsl #16
     354:	05ec0c00 	strbeq	r0, [ip, #3072]!	; 0xc00
     358:	01ef0000 	mvneq	r0, r0
     35c:	02300000 	eorseq	r0, r0, #0
     360:	063a0000 	ldrteq	r0, [sl], -r0
     364:	01f50000 	mvnseq	r0, r0
     368:	69020000 	stmdbvs	r2, {}	; <UNPREDICTABLE>
     36c:	03000005 	movweq	r0, #5
     370:	00311730 	eorseq	r1, r1, r0, lsr r7
     374:	01030000 	mrseq	r0, (UNDEF: 3)
     378:	0001b308 	andeq	fp, r1, r8, lsl #6
     37c:	005b0400 	subseq	r0, fp, r0, lsl #8
     380:	00480000 	subeq	r0, r8, r0
     384:	4d050000 	stcmi	0, cr0, [r5, #-0]
     388:	1d000000 	stcne	0, cr0, [r0, #-0]
     38c:	00380600 	eorseq	r0, r8, r0, lsl #12
     390:	04030000 	streq	r0, [r3], #-0
     394:	00001207 	andeq	r1, r0, r7, lsl #4
     398:	07040300 	streq	r0, [r4, -r0, lsl #6]
     39c:	0000000d 	andeq	r0, r0, sp
     3a0:	00005406 	andeq	r5, r0, r6, lsl #8
     3a4:	03710700 	cmneq	r1, #0, 14
     3a8:	3e010000 	cdpcc	0, 0, cr0, cr1, cr0, {0}
     3ac:	0000481c 	andeq	r4, r0, ip, lsl r8
     3b0:	cc030500 	cfstr32gt	mvfx0, [r3], {-0}
     3b4:	08000019 	stmdaeq	r0, {r0, r3, r4}
     3b8:	000002c3 	andeq	r0, r0, r3, asr #5
     3bc:	01080601 	tsteq	r8, r1, lsl #12
     3c0:	0000085c 	andeq	r0, r0, ip, asr r8
     3c4:	0000000e 	andeq	r0, r0, lr
     3c8:	00ae9c01 	adceq	r9, lr, r1, lsl #24
     3cc:	13090000 	movwne	r0, #36864	; 0x9000
     3d0:	01000006 	tsteq	r0, r6
     3d4:	54250806 	strtpl	r0, [r5], #-2054	; 0xfffff7fa
     3d8:	01000000 	mrseq	r0, (UNDEF: 0)
     3dc:	046a0a50 	strbteq	r0, [sl], #-2640	; 0xfffff5b0
     3e0:	06010000 	streq	r0, [r1], -r0
     3e4:	00313b08 	eorseq	r3, r1, r8, lsl #22
     3e8:	00700000 	rsbseq	r0, r0, r0
     3ec:	006c0000 	rsbeq	r0, ip, r0
     3f0:	08000000 	stmdaeq	r0, {}	; <UNPREDICTABLE>
     3f4:	00000444 	andeq	r0, r0, r4, asr #8
     3f8:	0107e701 	tsteq	r7, r1, lsl #14
     3fc:	00000850 	andeq	r0, r0, r0, asr r8
     400:	0000000c 	andeq	r0, r0, ip
     404:	00ea9c01 	rsceq	r9, sl, r1, lsl #24
     408:	13090000 	movwne	r0, #36864	; 0x9000
     40c:	01000006 	tsteq	r0, r6
     410:	542407e7 	strtpl	r0, [r4], #-2023	; 0xfffff819
     414:	01000000 	mrseq	r0, (UNDEF: 0)
     418:	046a0a50 	strbteq	r0, [sl], #-2640	; 0xfffff5b0
     41c:	e7010000 	str	r0, [r1, -r0]
     420:	00313a07 	eorseq	r3, r1, r7, lsl #20
     424:	00950000 	addseq	r0, r5, r0
     428:	00910000 	addseq	r0, r1, r0
     42c:	08000000 	stmdaeq	r0, {}	; <UNPREDICTABLE>
     430:	00000298 	muleq	r0, r8, r2
     434:	0107c501 	tsteq	r7, r1, lsl #10
     438:	00000840 	andeq	r0, r0, r0, asr #16
     43c:	0000000e 	andeq	r0, r0, lr
     440:	01269c01 			; <UNDEFINED> instruction: 0x01269c01
     444:	13090000 	movwne	r0, #36864	; 0x9000
     448:	01000006 	tsteq	r0, r6
     44c:	542507c5 	strtpl	r0, [r5], #-1989	; 0xfffff83b
     450:	01000000 	mrseq	r0, (UNDEF: 0)
     454:	046a0a50 	strbteq	r0, [sl], #-2640	; 0xfffff5b0
     458:	c5010000 	strgt	r0, [r1, #-0]
     45c:	00313b07 	eorseq	r3, r1, r7, lsl #22
     460:	00ba0000 	adcseq	r0, sl, r0
     464:	00b60000 	adcseq	r0, r6, r0
     468:	08000000 	stmdaeq	r0, {}	; <UNPREDICTABLE>
     46c:	00000302 	andeq	r0, r0, r2, lsl #6
     470:	0107a601 	tsteq	r7, r1, lsl #12
     474:	00000834 	andeq	r0, r0, r4, lsr r8
     478:	0000000c 	andeq	r0, r0, ip
     47c:	01629c01 	cmneq	r2, r1, lsl #24
     480:	13090000 	movwne	r0, #36864	; 0x9000
     484:	01000006 	tsteq	r0, r6
     488:	542407a6 	strtpl	r0, [r4], #-1958	; 0xfffff85a
     48c:	01000000 	mrseq	r0, (UNDEF: 0)
     490:	046a0a50 	strbteq	r0, [sl], #-2640	; 0xfffff5b0
     494:	a6010000 	strge	r0, [r1], -r0
     498:	00313a07 	eorseq	r3, r1, r7, lsl #20
     49c:	00df0000 	sbcseq	r0, pc, r0
     4a0:	00db0000 	sbcseq	r0, fp, r0
     4a4:	08000000 	stmdaeq	r0, {}	; <UNPREDICTABLE>
     4a8:	00000164 	andeq	r0, r0, r4, ror #2
     4ac:	01076a01 	tsteq	r7, r1, lsl #20
     4b0:	000007e8 	andeq	r0, r0, r8, ror #15
     4b4:	0000004c 	andeq	r0, r0, ip, asr #32
     4b8:	01b99c01 			; <UNDEFINED> instruction: 0x01b99c01
     4bc:	420a0000 	andmi	r0, sl, #0
     4c0:	01000003 	tsteq	r0, r3
     4c4:	5420076a 	strtpl	r0, [r0], #-1898	; 0xfffff896
     4c8:	06000000 	streq	r0, [r0], -r0
     4cc:	00000001 	andeq	r0, r0, r1
     4d0:	0b000001 	bleq	4dc <GPIOPadConfigSet+0xa0>
     4d4:	000002fb 	strdeq	r0, [r0], -fp
     4d8:	13076c01 	movwne	r6, #31745	; 0x7c01
     4dc:	00000054 	andeq	r0, r0, r4, asr r0
     4e0:	0000013c 	andeq	r0, r0, ip, lsr r1
     4e4:	00000132 	andeq	r0, r0, r2, lsr r1
     4e8:	0002210b 	andeq	r2, r2, fp, lsl #2
     4ec:	076c0100 	strbeq	r0, [ip, -r0, lsl #2]!
     4f0:	0000541b 	andeq	r5, r0, fp, lsl r4
     4f4:	00018700 	andeq	r8, r1, r0, lsl #14
     4f8:	00018300 	andeq	r8, r1, r0, lsl #6
     4fc:	170c0000 	strne	r0, [ip, -r0]
     500:	01000003 	tsteq	r0, r3
     504:	e101073d 	tst	r1, sp, lsr r7
     508:	0d000001 	stceq	0, cr0, [r0, #-4]
     50c:	00000613 	andeq	r0, r0, r3, lsl r6
     510:	25073d01 	strcs	r3, [r7, #-3329]	; 0xfffff2ff
     514:	00000054 	andeq	r0, r0, r4, asr r0
     518:	00046a0d 	andeq	r6, r4, sp, lsl #20
     51c:	073d0100 	ldreq	r0, [sp, -r0, lsl #2]!
     520:	0000313b 	andeq	r3, r0, fp, lsr r1
     524:	770c0000 	strvc	r0, [ip, -r0]
     528:	01000004 	tsteq	r0, r4
     52c:	0901070f 	stmdbeq	r1, {r0, r1, r2, r3, r8, r9, sl}
     530:	0d000002 	stceq	0, cr0, [r0, #-8]
     534:	00000613 	andeq	r0, r0, r3, lsl r6
     538:	24070f01 	strcs	r0, [r7], #-3841	; 0xfffff0ff
     53c:	00000054 	andeq	r0, r0, r4, asr r0
     540:	00046a0d 	andeq	r6, r4, sp, lsl #20
     544:	070f0100 	streq	r0, [pc, -r0, lsl #2]
     548:	0000313a 	andeq	r3, r0, sl, lsr r1
     54c:	c10c0000 	mrsgt	r0, (UNDEF: 12)
     550:	01000001 	tsteq	r0, r1
     554:	310106e5 	smlattcc	r1, r5, r6, r0
     558:	0d000002 	stceq	0, cr0, [r0, #-8]
     55c:	00000613 	andeq	r0, r0, r3, lsl r6
     560:	1f06e501 	svcne	0x0006e501
     564:	00000054 	andeq	r0, r0, r4, asr r0
     568:	00046a0d 	andeq	r6, r4, sp, lsl #20
     56c:	06e50100 	strbteq	r0, [r5], r0, lsl #2
     570:	00003135 	andeq	r3, r0, r5, lsr r1
     574:	c40c0000 	strgt	r0, [ip], #-0
     578:	01000005 	tsteq	r0, r5
     57c:	590106bb 	stmdbpl	r1, {r0, r1, r3, r4, r5, r7, r9, sl}
     580:	0d000002 	stceq	0, cr0, [r0, #-8]
     584:	00000613 	andeq	r0, r0, r3, lsl r6
     588:	2006bb01 	andcs	fp, r6, r1, lsl #22
     58c:	00000054 	andeq	r0, r0, r4, asr r0
     590:	00046a0d 	andeq	r6, r4, sp, lsl #20
     594:	06bb0100 	ldrteq	r0, [fp], r0, lsl #2
     598:	00003136 	andeq	r3, r0, r6, lsr r1
     59c:	2d0c0000 	stccs	0, cr0, [ip, #-0]
     5a0:	01000004 	tsteq	r0, r4
     5a4:	81010691 			; <UNDEFINED> instruction: 0x81010691
     5a8:	0d000002 	stceq	0, cr0, [r0, #-8]
     5ac:	00000613 	andeq	r0, r0, r3, lsl r6
     5b0:	1e069101 	mvfnes	f1, f1
     5b4:	00000054 	andeq	r0, r0, r4, asr r0
     5b8:	00046a0d 	andeq	r6, r4, sp, lsl #20
     5bc:	06910100 	ldreq	r0, [r1], r0, lsl #2
     5c0:	00003134 	andeq	r3, r0, r4, lsr r1
     5c4:	0f080000 	svceq	0x00080000
     5c8:	01000004 	tsteq	r0, r4
     5cc:	ac010667 	stcge	6, cr0, [r1], {103}	; 0x67
     5d0:	26000007 	strcs	r0, [r0], -r7
     5d4:	01000000 	mrseq	r0, (UNDEF: 0)
     5d8:	00031c9c 	muleq	r3, ip, ip
     5dc:	06130a00 	ldreq	r0, [r3], -r0, lsl #20
     5e0:	67010000 	strvs	r0, [r1, -r0]
     5e4:	00541e06 	subseq	r1, r4, r6, lsl #28
     5e8:	01b20000 			; <UNDEFINED> instruction: 0x01b20000
     5ec:	01ae0000 			; <UNDEFINED> instruction: 0x01ae0000
     5f0:	6a0a0000 	bvs	2805f8 <_etext+0x27e89c>
     5f4:	01000004 	tsteq	r0, r4
     5f8:	31340667 	teqcc	r4, r7, ror #12
     5fc:	d7000000 	strle	r0, [r0, -r0]
     600:	d3000001 	movwle	r0, #1
     604:	0e000001 	cdpeq	0, 0, cr0, cr0, cr1, {0}
     608:	00000e2f 	andeq	r0, r0, pc, lsr #28
     60c:	000007c0 	andeq	r0, r0, r0, asr #15
     610:	0000c000 	andeq	ip, r0, r0
     614:	06710100 	ldrbteq	r0, [r1], -r0, lsl #2
     618:	00030005 	andeq	r0, r3, r5
     61c:	0e570f00 	cdpeq	15, 5, cr0, cr7, cr0, {0}
     620:	01fa0000 	mvnseq	r0, r0
     624:	01f80000 	mvnseq	r0, r0
     628:	4a0f0000 	bmi	3c0630 <_etext+0x3be8d4>
     62c:	1000000e 	andne	r0, r0, lr
     630:	0e000002 	cdpeq	0, 0, cr0, cr0, cr2, {0}
     634:	0f000002 	svceq	0x00000002
     638:	00000e3d 	andeq	r0, r0, sp, lsr lr
     63c:	00000225 	andeq	r0, r0, r5, lsr #4
     640:	00000223 	andeq	r0, r0, r3, lsr #4
     644:	07d21000 	ldrbeq	r1, [r2, r0]
     648:	0c770000 	ldcleq	0, cr0, [r7], #-0
     64c:	01110000 	tsteq	r1, r0
     650:	01f30350 	mvnseq	r0, r0, asr r3
     654:	52011150 	andpl	r1, r1, #80, 2
     658:	01113101 	tsteq	r1, r1, lsl #2
     65c:	003a0153 	eorseq	r0, sl, r3, asr r1
     660:	05480c00 	strbeq	r0, [r8, #-3072]	; 0xfffff400
     664:	3d010000 	stccc	0, cr0, [r1, #-0]
     668:	03440106 	movteq	r0, #16646	; 0x4106
     66c:	130d0000 	movwne	r0, #53248	; 0xd000
     670:	01000006 	tsteq	r0, r6
     674:	541e063d 	ldrpl	r0, [lr], #-1597	; 0xfffff9c3
     678:	0d000000 	stceq	0, cr0, [r0, #-0]
     67c:	0000046a 	andeq	r0, r0, sl, ror #8
     680:	34063d01 	strcc	r3, [r6], #-3329	; 0xfffff2ff
     684:	00000031 	andeq	r0, r0, r1, lsr r0
     688:	03990c00 	orrseq	r0, r9, #0, 24
     68c:	13010000 	movwne	r0, #4096	; 0x1000
     690:	036c0106 	cmneq	ip, #-2147483647	; 0x80000001
     694:	130d0000 	movwne	r0, #53248	; 0xd000
     698:	01000006 	tsteq	r0, r6
     69c:	54210613 	strtpl	r0, [r1], #-1555	; 0xfffff9ed
     6a0:	0d000000 	stceq	0, cr0, [r0, #-0]
     6a4:	0000046a 	andeq	r0, r0, sl, ror #8
     6a8:	37061301 	strcc	r1, [r6, -r1, lsl #6]
     6ac:	00000031 	andeq	r0, r0, r1, lsr r0
     6b0:	034e0c00 	movteq	r0, #60416	; 0xec00
     6b4:	ea010000 	b	406bc <_etext+0x3e960>
     6b8:	03940105 	orrseq	r0, r4, #1073741825	; 0x40000001
     6bc:	130d0000 	movwne	r0, #53248	; 0xd000
     6c0:	01000006 	tsteq	r0, r6
     6c4:	542105ea 	strtpl	r0, [r1], #-1514	; 0xfffffa16
     6c8:	0d000000 	stceq	0, cr0, [r0, #-0]
     6cc:	0000046a 	andeq	r0, r0, sl, ror #8
     6d0:	3705ea01 	strcc	lr, [r5, -r1, lsl #20]
     6d4:	00000031 	andeq	r0, r0, r1, lsr r0
     6d8:	03bb0c00 			; <UNDEFINED> instruction: 0x03bb0c00
     6dc:	c1010000 	mrsgt	r0, (UNDEF: 1)
     6e0:	03bc0105 			; <UNDEFINED> instruction: 0x03bc0105
     6e4:	130d0000 	movwne	r0, #53248	; 0xd000
     6e8:	01000006 	tsteq	r0, r6
     6ec:	541e05c1 	ldrpl	r0, [lr], #-1473	; 0xfffffa3f
     6f0:	0d000000 	stceq	0, cr0, [r0, #-0]
     6f4:	0000046a 	andeq	r0, r0, sl, ror #8
     6f8:	3405c101 	strcc	ip, [r5], #-257	; 0xfffffeff
     6fc:	00000031 	andeq	r0, r0, r1, lsr r0
     700:	05870c00 	streq	r0, [r7, #3072]	; 0xc00
     704:	97010000 	strls	r0, [r1, -r0]
     708:	03e40105 	mvneq	r0, #1073741825	; 0x40000001
     70c:	130d0000 	movwne	r0, #53248	; 0xd000
     710:	01000006 	tsteq	r0, r6
     714:	541e0597 	ldrpl	r0, [lr], #-1431	; 0xfffffa69
     718:	0d000000 	stceq	0, cr0, [r0, #-0]
     71c:	0000046a 	andeq	r0, r0, sl, ror #8
     720:	34059701 	strcc	r9, [r5], #-1793	; 0xfffff8ff
     724:	00000031 	andeq	r0, r0, r1, lsr r0
     728:	05570800 	ldrbeq	r0, [r7, #-2048]	; 0xfffff800
     72c:	65010000 	strvs	r0, [r1, #-0]
     730:	07100105 	ldreq	r0, [r0, -r5, lsl #2]
     734:	00880000 	addeq	r0, r8, r0
     738:	9c010000 	stcls	0, cr0, [r1], {-0}
     73c:	0000049e 	muleq	r0, lr, r4
     740:	0006130a 	andeq	r1, r6, sl, lsl #6
     744:	05650100 	strbeq	r0, [r5, #-256]!	; 0xffffff00
     748:	00005421 	andeq	r5, r0, r1, lsr #8
     74c:	00024400 	andeq	r4, r2, r0, lsl #8
     750:	00023800 	andeq	r3, r2, r0, lsl #16
     754:	046a0a00 	strbteq	r0, [sl], #-2560	; 0xfffff600
     758:	65010000 	strvs	r0, [r1, #-0]
     75c:	00313705 	eorseq	r3, r1, r5, lsl #14
     760:	029c0000 	addseq	r0, ip, #0
     764:	02940000 	addseq	r0, r4, #0
     768:	2f0e0000 	svccs	0x000e0000
     76c:	3400000e 	strcc	r0, [r0], #-14
     770:	00000007 	andeq	r0, r0, r7
     774:	000000a0 	andeq	r0, r0, r0, lsr #1
     778:	05056f01 	streq	r6, [r5, #-3841]	; 0xfffff0ff
     77c:	00000463 	andeq	r0, r0, r3, ror #8
     780:	000e570f 	andeq	r5, lr, pc, lsl #14
     784:	0002d800 	andeq	sp, r2, r0, lsl #16
     788:	0002d600 	andeq	sp, r2, r0, lsl #12
     78c:	0e4a0f00 	cdpeq	15, 4, cr0, cr10, cr0, {0}
     790:	02ee0000 	rsceq	r0, lr, #0
     794:	02ec0000 	rsceq	r0, ip, #0
     798:	3d0f0000 	stccc	0, cr0, [pc, #-0]	; 7a0 <GPIOPinTypePECIRx>
     79c:	0300000e 	movweq	r0, #14
     7a0:	01000003 	tsteq	r0, r3
     7a4:	00000003 	andeq	r0, r0, r3
     7a8:	00077812 	andeq	r7, r7, r2, lsl r8
     7ac:	000c7700 	andeq	r7, ip, r0, lsl #14
     7b0:	00048200 	andeq	r8, r4, r0, lsl #4
     7b4:	50011100 	andpl	r1, r1, r0, lsl #2
     7b8:	5001f303 	andpl	pc, r1, r3, lsl #6
     7bc:	01520111 	cmpeq	r2, r1, lsl r1
     7c0:	53011131 	movwpl	r1, #4401	; 0x1131
     7c4:	10003801 	andne	r3, r0, r1, lsl #16
     7c8:	00000786 	andeq	r0, r0, r6, lsl #15
     7cc:	00000c77 	andeq	r0, r0, r7, ror ip
     7d0:	03500111 	cmpeq	r0, #1073741828	; 0x40000004
     7d4:	115001f3 	ldrshne	r0, [r0, #-19]	; 0xffffffed
     7d8:	31015201 	tstcc	r1, r1, lsl #4
     7dc:	01530111 	cmpeq	r3, r1, lsl r1
     7e0:	08000039 	stmdaeq	r0, {r0, r3, r4, r5}
     7e4:	0000052e 	andeq	r0, r0, lr, lsr #10
     7e8:	01053b01 	tsteq	r5, r1, lsl #22
     7ec:	000006e8 	andeq	r0, r0, r8, ror #13
     7f0:	00000026 	andeq	r0, r0, r6, lsr #32
     7f4:	05399c01 	ldreq	r9, [r9, #-3073]!	; 0xfffff3ff
     7f8:	130a0000 	movwne	r0, #40960	; 0xa000
     7fc:	01000006 	tsteq	r0, r6
     800:	541e053b 	ldrpl	r0, [lr], #-1339	; 0xfffffac5
     804:	1a000000 	bne	80c <GPIOPinConfigure+0x24>
     808:	16000003 	strne	r0, [r0], -r3
     80c:	0a000003 	beq	820 <GPIOPinConfigure+0x38>
     810:	0000046a 	andeq	r0, r0, sl, ror #8
     814:	34053b01 	strcc	r3, [r5], #-2817	; 0xfffff4ff
     818:	00000031 	andeq	r0, r0, r1, lsr r0
     81c:	0000033f 	andeq	r0, r0, pc, lsr r3
     820:	0000033b 	andeq	r0, r0, fp, lsr r3
     824:	000e2f0e 	andeq	r2, lr, lr, lsl #30
     828:	0006fc00 	andeq	pc, r6, r0, lsl #24
     82c:	00880000 	addeq	r0, r8, r0
     830:	45010000 	strmi	r0, [r1, #-0]
     834:	051d0505 	ldreq	r0, [sp, #-1285]	; 0xfffffafb
     838:	570f0000 	strpl	r0, [pc, -r0]
     83c:	6200000e 	andvs	r0, r0, #14
     840:	60000003 	andvs	r0, r0, r3
     844:	0f000003 	svceq	0x00000003
     848:	00000e4a 	andeq	r0, r0, sl, asr #28
     84c:	00000378 	andeq	r0, r0, r8, ror r3
     850:	00000376 	andeq	r0, r0, r6, ror r3
     854:	000e3d0f 	andeq	r3, lr, pc, lsl #26
     858:	00038d00 	andeq	r8, r3, r0, lsl #26
     85c:	00038b00 	andeq	r8, r3, r0, lsl #22
     860:	0e100000 	cdpeq	0, 1, cr0, cr0, cr0, {0}
     864:	77000007 	strvc	r0, [r0, -r7]
     868:	1100000c 	tstne	r0, ip
     86c:	f3035001 	vhadd.u8	d5, d3, d1
     870:	01115001 	tsteq	r1, r1
     874:	11310152 	teqne	r1, r2, asr r1
     878:	39015301 	stmdbcc	r1, {r0, r8, r9, ip, lr}
     87c:	6a080000 	bvs	200884 <_etext+0x1feb28>
     880:	01000002 	tsteq	r0, r2
     884:	c0010512 	andgt	r0, r1, r2, lsl r5
     888:	26000006 	strcs	r0, [r0], -r6
     88c:	01000000 	mrseq	r0, (UNDEF: 0)
     890:	0005dd9c 	muleq	r5, ip, sp
     894:	06130a00 	ldreq	r0, [r3], -r0, lsl #20
     898:	12010000 	andne	r0, r1, #0
     89c:	00542705 	subseq	r2, r4, r5, lsl #14
     8a0:	03a40000 			; <UNDEFINED> instruction: 0x03a40000
     8a4:	03a00000 	moveq	r0, #0
     8a8:	6a0a0000 	bvs	2808b0 <_etext+0x27eb54>
     8ac:	01000004 	tsteq	r0, r4
     8b0:	313d0512 	teqcc	sp, r2, lsl r5
     8b4:	c6000000 	strgt	r0, [r0], -r0
     8b8:	c2000003 	andgt	r0, r0, #3
     8bc:	13000003 	movwne	r0, #3
     8c0:	00000e2f 	andeq	r0, r0, pc, lsr #28
     8c4:	000006ce 	andeq	r0, r0, lr, asr #13
     8c8:	0006ce01 	andeq	ip, r6, r1, lsl #28
     8cc:	00001600 	andeq	r1, r0, r0, lsl #12
     8d0:	05210100 	streq	r0, [r1, #-256]!	; 0xffffff00
     8d4:	0005bc05 	andeq	fp, r5, r5, lsl #24
     8d8:	0e570f00 	cdpeq	15, 5, cr0, cr7, cr0, {0}
     8dc:	03e90000 	mvneq	r0, #0
     8e0:	03e70000 	mvneq	r0, #0
     8e4:	4a0f0000 	bmi	3c08ec <_etext+0x3beb90>
     8e8:	ff00000e 			; <UNDEFINED> instruction: 0xff00000e
     8ec:	fd000003 	stc2	0, cr0, [r0, #-12]
     8f0:	0f000003 	svceq	0x00000003
     8f4:	00000e3d 	andeq	r0, r0, sp, lsr lr
     8f8:	00000414 	andeq	r0, r0, r4, lsl r4
     8fc:	00000412 	andeq	r0, r0, r2, lsl r4
     900:	06ce1400 	strbeq	r1, [lr], r0, lsl #8
     904:	0c770000 	ldcleq	0, cr0, [r7], #-0
     908:	01110000 	tsteq	r1, r0
     90c:	00740250 	rsbseq	r0, r4, r0, asr r2
     910:	02510111 	subseq	r0, r1, #1073741828	; 0x40000004
     914:	01110075 	tsteq	r1, r5, ror r0
     918:	11310152 	teqne	r1, r2, asr r1
     91c:	39015301 	stmdbcc	r1, {r0, r8, r9, ip, lr}
     920:	d9080000 	stmdble	r8, {}	; <UNPREDICTABLE>
     924:	01000003 	tsteq	r0, r3
     928:	980104ec 	stmdals	r1, {r2, r3, r5, r6, r7, sl}
     92c:	26000006 	strcs	r0, [r0], -r6
     930:	01000000 	mrseq	r0, (UNDEF: 0)
     934:	0006819c 	muleq	r6, ip, r1
     938:	06130a00 	ldreq	r0, [r3], -r0, lsl #20
     93c:	ec010000 	stc	0, cr0, [r1], {-0}
     940:	00542504 	subseq	r2, r4, r4, lsl #10
     944:	042b0000 	strteq	r0, [fp], #-0
     948:	04270000 	strteq	r0, [r7], #-0
     94c:	6a0a0000 	bvs	280954 <_etext+0x27ebf8>
     950:	01000004 	tsteq	r0, r4
     954:	313b04ec 	teqcc	fp, ip, ror #9
     958:	4d000000 	stcmi	0, cr0, [r0, #-0]
     95c:	49000004 	stmdbmi	r0, {r2}
     960:	13000004 	movwne	r0, #4
     964:	00000e2f 	andeq	r0, r0, pc, lsr #28
     968:	000006a6 	andeq	r0, r0, r6, lsr #13
     96c:	0006a601 	andeq	sl, r6, r1, lsl #12
     970:	00001600 	andeq	r1, r0, r0, lsl #12
     974:	04fb0100 	ldrbteq	r0, [fp], #256	; 0x100
     978:	00066005 	andeq	r6, r6, r5
     97c:	0e570f00 	cdpeq	15, 5, cr0, cr7, cr0, {0}
     980:	04700000 	ldrbteq	r0, [r0], #-0
     984:	046e0000 	strbteq	r0, [lr], #-0
     988:	4a0f0000 	bmi	3c0990 <_etext+0x3bec34>
     98c:	8600000e 	strhi	r0, [r0], -lr
     990:	84000004 	strhi	r0, [r0], #-4
     994:	0f000004 	svceq	0x00000004
     998:	00000e3d 	andeq	r0, r0, sp, lsr lr
     99c:	0000049b 	muleq	r0, fp, r4
     9a0:	00000499 	muleq	r0, r9, r4
     9a4:	06a61400 	strteq	r1, [r6], r0, lsl #8
     9a8:	0c770000 	ldcleq	0, cr0, [r7], #-0
     9ac:	01110000 	tsteq	r1, r0
     9b0:	00740250 	rsbseq	r0, r4, r0, asr r2
     9b4:	02510111 	subseq	r0, r1, #1073741828	; 0x40000004
     9b8:	01110075 	tsteq	r1, r5, ror r0
     9bc:	11310152 	teqne	r1, r2, asr r1
     9c0:	38015301 	stmdacc	r1, {r0, r8, r9, ip, lr}
     9c4:	ae080000 	cdpge	0, 0, cr0, cr8, cr0, {0}
     9c8:	01000002 	tsteq	r0, r2
     9cc:	700104c6 	andvc	r0, r1, r6, asr #9
     9d0:	26000006 	strcs	r0, [r0], -r6
     9d4:	01000000 	mrseq	r0, (UNDEF: 0)
     9d8:	00071c9c 	muleq	r7, ip, ip
     9dc:	06130a00 	ldreq	r0, [r3], -r0, lsl #20
     9e0:	c6010000 	strgt	r0, [r1], -r0
     9e4:	00542404 	subseq	r2, r4, r4, lsl #8
     9e8:	04b20000 	ldrteq	r0, [r2], #0
     9ec:	04ae0000 	strteq	r0, [lr], #0
     9f0:	6a0a0000 	bvs	2809f8 <_etext+0x27ec9c>
     9f4:	01000004 	tsteq	r0, r4
     9f8:	313a04c6 	teqcc	sl, r6, asr #9
     9fc:	d7000000 	strle	r0, [r0, -r0]
     a00:	d3000004 	movwle	r0, #4
     a04:	0e000004 	cdpeq	0, 0, cr0, cr0, cr4, {0}
     a08:	00000e2f 	andeq	r0, r0, pc, lsr #28
     a0c:	00000670 	andeq	r0, r0, r0, ror r6
     a10:	00006803 	andeq	r6, r0, r3, lsl #16
     a14:	04d00100 	ldrbeq	r0, [r0], #256	; 0x100
     a18:	00070005 	andeq	r0, r7, r5
     a1c:	0e570f00 	cdpeq	15, 5, cr0, cr7, cr0, {0}
     a20:	04fa0000 	ldrbteq	r0, [sl], #0
     a24:	04f80000 	ldrbteq	r0, [r8], #0
     a28:	4a0f0000 	bmi	3c0a30 <_etext+0x3becd4>
     a2c:	1000000e 	andne	r0, r0, lr
     a30:	0e000005 	cdpeq	0, 0, cr0, cr0, cr5, {0}
     a34:	0f000005 	svceq	0x00000005
     a38:	00000e3d 	andeq	r0, r0, sp, lsr lr
     a3c:	00000525 	andeq	r0, r0, r5, lsr #10
     a40:	00000523 	andeq	r0, r0, r3, lsr #10
     a44:	06961000 	ldreq	r1, [r6], r0
     a48:	0c770000 	ldcleq	0, cr0, [r7], #-0
     a4c:	01110000 	tsteq	r1, r0
     a50:	01f30350 	mvnseq	r0, r0, asr r3
     a54:	52011150 	andpl	r1, r1, #80, 2
     a58:	01113101 	tsteq	r1, r1, lsl #2
     a5c:	00380153 	eorseq	r0, r8, r3, asr r1
     a60:	05720800 	ldrbeq	r0, [r2, #-2048]!	; 0xfffff800
     a64:	a0010000 	andge	r0, r1, r0
     a68:	06480104 	strbeq	r0, [r8], -r4, lsl #2
     a6c:	00260000 	eoreq	r0, r6, r0
     a70:	9c010000 	stcls	0, cr0, [r1], {-0}
     a74:	000007b7 			; <UNDEFINED> instruction: 0x000007b7
     a78:	0006130a 	andeq	r1, r6, sl, lsl #6
     a7c:	04a00100 	strteq	r0, [r0], #256	; 0x100
     a80:	0000541e 	andeq	r5, r0, lr, lsl r4
     a84:	00053c00 	andeq	r3, r5, r0, lsl #24
     a88:	00053800 	andeq	r3, r5, r0, lsl #16
     a8c:	046a0a00 	strbteq	r0, [sl], #-2560	; 0xfffff600
     a90:	a0010000 	andge	r0, r1, r0
     a94:	00313404 	eorseq	r3, r1, r4, lsl #8
     a98:	05610000 	strbeq	r0, [r1, #-0]!
     a9c:	055d0000 	ldrbeq	r0, [sp, #-0]
     aa0:	2f0e0000 	svccs	0x000e0000
     aa4:	5c00000e 	stcpl	0, cr0, [r0], {14}
     aa8:	00000006 	andeq	r0, r0, r6
     aac:	00000050 	andeq	r0, r0, r0, asr r0
     ab0:	0504aa01 	streq	sl, [r4, #-2561]	; 0xfffff5ff
     ab4:	0000079b 	muleq	r0, fp, r7
     ab8:	000e570f 	andeq	r5, lr, pc, lsl #14
     abc:	00058400 	andeq	r8, r5, r0, lsl #8
     ac0:	00058200 	andeq	r8, r5, r0, lsl #4
     ac4:	0e4a0f00 	cdpeq	15, 4, cr0, cr10, cr0, {0}
     ac8:	059a0000 	ldreq	r0, [sl]
     acc:	05980000 	ldreq	r0, [r8]
     ad0:	3d0f0000 	stccc	0, cr0, [pc, #-0]	; ad8 <IntPendSet+0x34>
     ad4:	af00000e 	svcge	0x0000000e
     ad8:	ad000005 	stcge	0, cr0, [r0, #-20]	; 0xffffffec
     adc:	00000005 	andeq	r0, r0, r5
     ae0:	00066e10 	andeq	r6, r6, r0, lsl lr
     ae4:	000c7700 	andeq	r7, ip, r0, lsl #14
     ae8:	50011100 	andpl	r1, r1, r0, lsl #2
     aec:	5001f303 	andpl	pc, r1, r3, lsl #6
     af0:	01520111 	cmpeq	r2, r1, lsl r1
     af4:	53011131 	movwpl	r1, #4401	; 0x1131
     af8:	00003801 	andeq	r3, r0, r1, lsl #16
     afc:	0005d50c 	andeq	sp, r5, ip, lsl #10
     b00:	04760100 	ldrbteq	r0, [r6], #-256	; 0xffffff00
     b04:	0007df01 	andeq	sp, r7, r1, lsl #30
     b08:	06130d00 	ldreq	r0, [r3], -r0, lsl #26
     b0c:	76010000 	strvc	r0, [r1], -r0
     b10:	00542604 	subseq	r2, r4, r4, lsl #12
     b14:	6a0d0000 	bvs	340b1c <_etext+0x33edc0>
     b18:	01000004 	tsteq	r0, r4
     b1c:	313c0476 	teqcc	ip, r6, ror r4
     b20:	00000000 	andeq	r0, r0, r0
     b24:	0005960c 	andeq	r9, r5, ip, lsl #12
     b28:	044d0100 	strbeq	r0, [sp], #-256	; 0xffffff00
     b2c:	00080701 	andeq	r0, r8, r1, lsl #14
     b30:	06130d00 	ldreq	r0, [r3], -r0, lsl #26
     b34:	4d010000 	stcmi	0, cr0, [r1, #-0]
     b38:	00542604 	subseq	r2, r4, r4, lsl #12
     b3c:	6a0d0000 	bvs	340b44 <_etext+0x33ede8>
     b40:	01000004 	tsteq	r0, r4
     b44:	313c044d 	teqcc	ip, sp, asr #8
     b48:	00000000 	andeq	r0, r0, r0
     b4c:	0002370c 	andeq	r3, r2, ip, lsl #14
     b50:	04240100 	strteq	r0, [r4], #-256	; 0xffffff00
     b54:	00082f01 	andeq	r2, r8, r1, lsl #30
     b58:	06130d00 	ldreq	r0, [r3], -r0, lsl #26
     b5c:	24010000 	strcs	r0, [r1], #-0
     b60:	00541e04 	subseq	r1, r4, r4, lsl #28
     b64:	6a0d0000 	bvs	340b6c <_etext+0x33ee10>
     b68:	01000004 	tsteq	r0, r4
     b6c:	31340424 	teqcc	r4, r4, lsr #8
     b70:	00000000 	andeq	r0, r0, r0
     b74:	0002820c 	andeq	r8, r2, ip, lsl #4
     b78:	03f80100 	mvnseq	r0, #0, 2
     b7c:	00085701 	andeq	r5, r8, r1, lsl #14
     b80:	06130d00 	ldreq	r0, [r3], -r0, lsl #26
     b84:	f8010000 			; <UNDEFINED> instruction: 0xf8010000
     b88:	00542503 	subseq	r2, r4, r3, lsl #10
     b8c:	6a0d0000 	bvs	340b94 <_etext+0x33ee38>
     b90:	01000004 	tsteq	r0, r4
     b94:	313b03f8 	teqcc	fp, r8	; <illegal shifter operand>
     b98:	00000000 	andeq	r0, r0, r0
     b9c:	00033308 	andeq	r3, r3, r8, lsl #6
     ba0:	03ce0100 	biceq	r0, lr, #0, 2
     ba4:	00061001 	andeq	r1, r6, r1
     ba8:	00002600 	andeq	r2, r0, r0, lsl #12
     bac:	f29c0100 	vaddw.s16	q0, q6, d0
     bb0:	0a000008 	beq	bd8 <SysCtlPeripheralPresent+0x48>
     bb4:	00000613 	andeq	r0, r0, r3, lsl r6
     bb8:	1e03ce01 	cdpne	14, 0, cr12, cr3, cr1, {0}
     bbc:	00000054 	andeq	r0, r0, r4, asr r0
     bc0:	000005c6 	andeq	r0, r0, r6, asr #11
     bc4:	000005c2 	andeq	r0, r0, r2, asr #11
     bc8:	00046a0a 	andeq	r6, r4, sl, lsl #20
     bcc:	03ce0100 	biceq	r0, lr, #0, 2
     bd0:	00003134 	andeq	r3, r0, r4, lsr r1
     bd4:	0005eb00 	andeq	lr, r5, r0, lsl #22
     bd8:	0005e700 	andeq	lr, r5, r0, lsl #14
     bdc:	0e2f0e00 	cdpeq	14, 2, cr0, cr15, cr0, {0}
     be0:	06240000 	strteq	r0, [r4], -r0
     be4:	38000000 	stmdacc	r0, {}	; <UNPREDICTABLE>
     be8:	01000000 	mrseq	r0, (UNDEF: 0)
     bec:	d60503d8 			; <UNDEFINED> instruction: 0xd60503d8
     bf0:	0f000008 	svceq	0x00000008
     bf4:	00000e57 	andeq	r0, r0, r7, asr lr
     bf8:	0000060e 	andeq	r0, r0, lr, lsl #12
     bfc:	0000060c 	andeq	r0, r0, ip, lsl #12
     c00:	000e4a0f 	andeq	r4, lr, pc, lsl #20
     c04:	00062400 	andeq	r2, r6, r0, lsl #8
     c08:	00062200 	andeq	r2, r6, r0, lsl #4
     c0c:	0e3d0f00 	cdpeq	15, 3, cr0, cr13, cr0, {0}
     c10:	06390000 	ldrteq	r0, [r9], -r0
     c14:	06370000 	ldrteq	r0, [r7], -r0
     c18:	10000000 	andne	r0, r0, r0
     c1c:	00000636 	andeq	r0, r0, r6, lsr r6
     c20:	00000c77 	andeq	r0, r0, r7, ror ip
     c24:	03500111 	cmpeq	r0, #1073741828	; 0x40000004
     c28:	115001f3 	ldrshne	r0, [r0, #-19]	; 0xffffffed
     c2c:	34015201 	strcc	r5, [r1], #-513	; 0xfffffdff
     c30:	01530111 	cmpeq	r3, r1, lsl r1
     c34:	08000038 	stmdaeq	r0, {r3, r4, r5}
     c38:	00000384 	andeq	r0, r0, r4, lsl #7
     c3c:	0103a401 	tsteq	r3, r1, lsl #8
     c40:	000005e8 	andeq	r0, r0, r8, ror #11
     c44:	00000026 	andeq	r0, r0, r6, lsr #32
     c48:	098d9c01 	stmibeq	sp, {r0, sl, fp, ip, pc}
     c4c:	130a0000 	movwne	r0, #40960	; 0xa000
     c50:	01000006 	tsteq	r0, r6
     c54:	541e03a4 	ldrpl	r0, [lr], #-932	; 0xfffffc5c
     c58:	50000000 	andpl	r0, r0, r0
     c5c:	4c000006 	stcmi	0, cr0, [r0], {6}
     c60:	0a000006 	beq	c80 <SysCtlPeripheralPowerOn+0x3c>
     c64:	0000046a 	andeq	r0, r0, sl, ror #8
     c68:	3403a401 	strcc	sl, [r3], #-1025	; 0xfffffbff
     c6c:	00000031 	andeq	r0, r0, r1, lsr r0
     c70:	00000675 	andeq	r0, r0, r5, ror r6
     c74:	00000671 	andeq	r0, r0, r1, ror r6
     c78:	000e2f0e 	andeq	r2, lr, lr, lsl #30
     c7c:	0005e800 	andeq	lr, r5, r0, lsl #16
     c80:	00180300 	andseq	r0, r8, r0, lsl #6
     c84:	ae010000 	cdpge	0, 0, cr0, cr1, cr0, {0}
     c88:	09710503 	ldmdbeq	r1!, {r0, r1, r8, sl}^
     c8c:	570f0000 	strpl	r0, [pc, -r0]
     c90:	9800000e 	stmdals	r0, {r1, r2, r3}
     c94:	96000006 	strls	r0, [r0], -r6
     c98:	0f000006 	svceq	0x00000006
     c9c:	00000e4a 	andeq	r0, r0, sl, asr #28
     ca0:	000006ae 	andeq	r0, r0, lr, lsr #13
     ca4:	000006ac 	andeq	r0, r0, ip, lsr #13
     ca8:	000e3d0f 	andeq	r3, lr, pc, lsl #26
     cac:	0006c300 	andeq	ip, r6, r0, lsl #6
     cb0:	0006c100 	andeq	ip, r6, r0, lsl #2
     cb4:	0e100000 	cdpeq	0, 1, cr0, cr0, cr0, {0}
     cb8:	77000006 	strvc	r0, [r0, -r6]
     cbc:	1100000c 	tstne	r0, ip
     cc0:	f3035001 	vhadd.u8	d5, d3, d1
     cc4:	01115001 	tsteq	r1, r1
     cc8:	11310152 	teqne	r1, r2, asr r1
     ccc:	30015301 	andcc	r5, r1, r1, lsl #6
     cd0:	06080000 	streq	r0, [r8], -r0
     cd4:	01000006 	tsteq	r0, r6
     cd8:	e0010380 	and	r0, r1, r0, lsl #7
     cdc:	06000005 	streq	r0, [r0], -r5
     ce0:	01000000 	mrseq	r0, (UNDEF: 0)
     ce4:	0009d29c 	muleq	r9, ip, r2
     ce8:	06130900 	ldreq	r0, [r3], -r0, lsl #18
     cec:	80010000 	andhi	r0, r1, r0
     cf0:	00541c03 	subseq	r1, r4, r3, lsl #24
     cf4:	50010000 	andpl	r0, r1, r0
     cf8:	00046a09 	andeq	r6, r4, r9, lsl #20
     cfc:	03800100 	orreq	r0, r0, #0, 2
     d00:	00003132 	andeq	r3, r0, r2, lsr r1
     d04:	09510100 	ldmdbeq	r1, {r8}^
     d08:	00000471 	andeq	r0, r0, r1, ror r4
     d0c:	48038001 	stmdami	r3, {r0, pc}
     d10:	00000031 	andeq	r0, r0, r1, lsr r0
     d14:	15005201 	strne	r5, [r0, #-513]	; 0xfffffdff
     d18:	00000215 	andeq	r0, r0, r5, lsl r2
     d1c:	01036001 	tsteq	r3, r1
     d20:	00000a12 	andeq	r0, r0, r2, lsl sl
     d24:	000005d8 	ldrdeq	r0, [r0], -r8
     d28:	00000006 	andeq	r0, r0, r6
     d2c:	0a129c01 	beq	4a7d38 <_etext+0x4a5fdc>
     d30:	130a0000 	movwne	r0, #40960	; 0xa000
     d34:	01000006 	tsteq	r0, r6
     d38:	541b0360 	ldrpl	r0, [fp], #-864	; 0xfffffca0
     d3c:	da000000 	ble	d44 <SysCtlPeripheralReset+0x68>
     d40:	d6000006 	strle	r0, [r0], -r6
     d44:	09000006 	stmdbeq	r0, {r1, r2}
     d48:	0000046a 	andeq	r0, r0, sl, ror #8
     d4c:	31036001 	tstcc	r3, r1
     d50:	00000031 	andeq	r0, r0, r1, lsr r0
     d54:	03005101 	movweq	r5, #257	; 0x101
     d58:	05f30504 	ldrbeq	r0, [r3, #1284]!	; 0x504
     d5c:	54080000 	strpl	r0, [r8], #-0
     d60:	01000002 	tsteq	r0, r2
     d64:	c0010333 	andgt	r0, r1, r3, lsr r3
     d68:	16000005 	strne	r0, [r0], -r5
     d6c:	01000000 	mrseq	r0, (UNDEF: 0)
     d70:	000a789c 	muleq	sl, ip, r8
     d74:	06130a00 	ldreq	r0, [r3], -r0, lsl #20
     d78:	33010000 	movwcc	r0, #4096	; 0x1000
     d7c:	00542503 	subseq	r2, r4, r3, lsl #10
     d80:	07050000 	streq	r0, [r5, -r0]
     d84:	06fb0000 	ldrbteq	r0, [fp], r0
     d88:	c6160000 	ldrgt	r0, [r6], -r0
     d8c:	65000005 	strvs	r0, [r0, #-5]
     d90:	5a00000e 	bpl	dd0 <SysCtlPeripheralDisable+0x1c>
     d94:	1100000a 	tstne	r0, sl
     d98:	f3035001 	vhadd.u8	d5, d3, d1
     d9c:	16005001 	strne	r5, [r0], -r1
     da0:	000005cc 	andeq	r0, r0, ip, asr #11
     da4:	00000edb 	ldrdeq	r0, [r0], -fp
     da8:	00000a6e 	andeq	r0, r0, lr, ror #20
     dac:	02500111 	subseq	r0, r0, #1073741828	; 0x40000004
     db0:	17000074 	smlsdxne	r0, r4, r0, r0
     db4:	000005d6 	ldrdeq	r0, [r0], -r6
     db8:	00000ee7 	andeq	r0, r0, r7, ror #29
     dbc:	061a0800 	ldreq	r0, [sl], -r0, lsl #16
     dc0:	0a010000 	beq	40dc8 <_etext+0x3f06c>
     dc4:	05a80103 	streq	r0, [r8, #259]!	; 0x103
     dc8:	00160000 	andseq	r0, r6, r0
     dcc:	9c010000 	stcls	0, cr0, [r1], {-0}
     dd0:	00000aec 	andeq	r0, r0, ip, ror #21
     dd4:	0006130a 	andeq	r1, r6, sl, lsl #6
     dd8:	030a0100 	movweq	r0, #41216	; 0xa100
     ddc:	00005423 	andeq	r5, r0, r3, lsr #8
     de0:	00075100 	andeq	r5, r7, r0, lsl #2
     de4:	00074700 	andeq	r4, r7, r0, lsl #14
     de8:	02290a00 	eoreq	r0, r9, #0, 20
     dec:	0a010000 	beq	40df4 <_etext+0x3f098>
     df0:	0aed3203 	beq	ffb4d604 <_ebss+0xdfb4d288>
     df4:	07970000 	ldreq	r0, [r7, r0]
     df8:	07930000 	ldreq	r0, [r3, r0]
     dfc:	ae160000 	cdpge	0, 1, cr0, cr6, cr0, {0}
     e00:	65000005 	strvs	r0, [r0, #-5]
     e04:	ce00000e 	cdpgt	0, 0, cr0, cr0, cr14, {0}
     e08:	1100000a 	tstne	r0, sl
     e0c:	f3035001 	vhadd.u8	d5, d3, d1
     e10:	16005001 	strne	r5, [r0], -r1
     e14:	000005b4 			; <UNDEFINED> instruction: 0x000005b4
     e18:	00000ef3 	strdeq	r0, [r0], -r3
     e1c:	00000ae2 	andeq	r0, r0, r2, ror #21
     e20:	02500111 	subseq	r0, r0, #1073741828	; 0x40000004
     e24:	17000074 	smlsdxne	r0, r4, r0, r0
     e28:	000005be 			; <UNDEFINED> instruction: 0x000005be
     e2c:	00000eff 	strdeq	r0, [r0], -pc	; <UNPREDICTABLE>
     e30:	04191800 	ldreq	r1, [r9], #-2048	; 0xfffff800
     e34:	00000aec 	andeq	r0, r0, ip, ror #21
     e38:	0003ab08 	andeq	sl, r3, r8, lsl #22
     e3c:	02e80100 	rsceq	r0, r8, #0, 2
     e40:	0005a001 	andeq	sl, r5, r1
     e44:	00000600 	andeq	r0, r0, r0, lsl #12
     e48:	299c0100 	ldmibcs	ip, {r8}
     e4c:	0900000b 	stmdbeq	r0, {r0, r1, r3}
     e50:	00000613 	andeq	r0, r0, r3, lsl r6
     e54:	1f02e801 	svcne	0x0002e801
     e58:	00000054 	andeq	r0, r0, r4, asr r0
     e5c:	6a095001 	bvs	254e68 <_etext+0x25310c>
     e60:	01000004 	tsteq	r0, r4
     e64:	313502e8 	teqcc	r5, r8, ror #5
     e68:	01000000 	mrseq	r0, (UNDEF: 0)
     e6c:	d9150051 	ldmdble	r5, {r0, r4, r6}
     e70:	01000002 	tsteq	r0, r2
     e74:	120102ba 	andne	r0, r1, #-1610612725	; 0xa000000b
     e78:	9000000a 	andls	r0, r0, sl
     e7c:	0e000005 	cdpeq	0, 0, cr0, cr0, cr5, {0}
     e80:	01000000 	mrseq	r0, (UNDEF: 0)
     e84:	000b699c 	muleq	fp, ip, r9
     e88:	06130a00 	ldreq	r0, [r3], -r0, lsl #20
     e8c:	ba010000 	blt	40e94 <_etext+0x3f138>
     e90:	00542002 	subseq	r2, r4, r2
     e94:	07c00000 	strbeq	r0, [r0, r0]
     e98:	07b80000 	ldreq	r0, [r8, r0]!
     e9c:	3c090000 	stccc	0, cr0, [r9], {-0}
     ea0:	01000004 	tsteq	r0, r4
     ea4:	253102ba 	ldrcs	r0, [r1, #-698]!	; 0xfffffd46
     ea8:	01000000 	mrseq	r0, (UNDEF: 0)
     eac:	ad080051 	stcge	0, cr0, [r8, #-324]	; 0xfffffebc
     eb0:	01000005 	tsteq	r0, r5
     eb4:	8001029b 	mulhi	r1, fp, r2
     eb8:	0e000005 	cdpeq	0, 0, cr0, cr0, cr5, {0}
     ebc:	01000000 	mrseq	r0, (UNDEF: 0)
     ec0:	000ba59c 	muleq	fp, ip, r5
     ec4:	06130900 	ldreq	r0, [r3], -r0, lsl #18
     ec8:	9b010000 	blls	40ed0 <_etext+0x3f174>
     ecc:	00542102 	subseq	r2, r4, r2, lsl #2
     ed0:	50010000 	andpl	r0, r1, r0
     ed4:	00046a0a 	andeq	r6, r4, sl, lsl #20
     ed8:	029b0100 	addseq	r0, fp, #0, 2
     edc:	00003137 	andeq	r3, r0, r7, lsr r1
     ee0:	0007fe00 	andeq	pc, r7, r0, lsl #28
     ee4:	0007fa00 	andeq	pc, r7, r0, lsl #20
     ee8:	60080000 	andvs	r0, r8, r0
     eec:	01000003 	tsteq	r0, r3
     ef0:	7401027d 	strvc	r0, [r1], #-637	; 0xfffffd83
     ef4:	0c000005 	stceq	0, cr0, [r0], {5}
     ef8:	01000000 	mrseq	r0, (UNDEF: 0)
     efc:	000be19c 	muleq	fp, ip, r1
     f00:	06130900 	ldreq	r0, [r3], -r0, lsl #18
     f04:	7d010000 	stcvc	0, cr0, [r1, #-0]
     f08:	00542002 	subseq	r2, r4, r2
     f0c:	50010000 	andpl	r0, r1, r0
     f10:	00046a0a 	andeq	r6, r4, sl, lsl #20
     f14:	027d0100 	rsbseq	r0, sp, #0, 2
     f18:	00003136 	andeq	r3, r0, r6, lsr r1
     f1c:	00082300 	andeq	r2, r8, r0, lsl #6
     f20:	00081f00 	andeq	r1, r8, r0, lsl #30
     f24:	ef080000 	svc	0x00080000
     f28:	01000003 	tsteq	r0, r3
     f2c:	00010249 	andeq	r0, r1, r9, asr #4
     f30:	72000005 	andvc	r0, r0, #5
     f34:	01000000 	mrseq	r0, (UNDEF: 0)
     f38:	000c719c 	muleq	ip, ip, r1
     f3c:	06130a00 	ldreq	r0, [r3], -r0, lsl #20
     f40:	49010000 	stmdbmi	r1, {}	; <UNPREDICTABLE>
     f44:	00542002 	subseq	r2, r4, r2
     f48:	08480000 	stmdaeq	r8, {}^	; <UNPREDICTABLE>
     f4c:	08440000 	stmdaeq	r4, {}^	; <UNPREDICTABLE>
     f50:	930a0000 	movwls	r0, #40960	; 0xa000
     f54:	01000003 	tsteq	r0, r3
     f58:	31360249 	teqcc	r6, r9, asr #4
     f5c:	6f000000 	svcvs	0x00000000
     f60:	69000008 	stmdbvs	r0, {r3}
     f64:	0a000008 	beq	f8c <SysCtlIntEnable+0xc>
     f68:	0000048c 	andeq	r0, r0, ip, lsl #9
     f6c:	21024a01 	tstcs	r2, r1, lsl #20
     f70:	00000c71 	andeq	r0, r0, r1, ror ip
     f74:	000008a5 	andeq	r0, r0, r5, lsr #17
     f78:	000008a1 	andeq	r0, r0, r1, lsr #17
     f7c:	00053d09 	andeq	r3, r5, r9, lsl #26
     f80:	024a0100 	subeq	r0, sl, #0, 2
     f84:	000c713d 	andeq	r7, ip, sp, lsr r1
     f88:	0b530100 	bleq	14c1390 <_etext+0x14bf634>
     f8c:	0000053e 	andeq	r0, r0, lr, lsr r5
     f90:	13024c01 	movwne	r4, #11265	; 0x2c01
     f94:	00000054 	andeq	r0, r0, r4, asr r0
     f98:	000008c8 	andeq	r0, r0, r8, asr #17
     f9c:	000008c6 	andeq	r0, r0, r6, asr #17
     fa0:	00048d0b 	andeq	r8, r4, fp, lsl #26
     fa4:	024c0100 	subeq	r0, ip, #0, 2
     fa8:	0000541e 	andeq	r5, r0, lr, lsl r4
     fac:	0008dd00 	andeq	sp, r8, r0, lsl #26
     fb0:	0008db00 	andeq	sp, r8, r0, lsl #22
     fb4:	04190000 	ldreq	r0, [r9], #-0
     fb8:	00000054 	andeq	r0, r0, r4, asr r0
     fbc:	00045908 	andeq	r5, r4, r8, lsl #18
     fc0:	01f90100 	mvnseq	r0, r0, lsl #2
     fc4:	00043c01 	andeq	r3, r4, r1, lsl #24
     fc8:	0000c400 	andeq	ip, r0, r0, lsl #8
     fcc:	e39c0100 	orrs	r0, ip, #0, 2
     fd0:	0a00000c 	beq	1008 <SysCtlDeepSleep+0xc>
     fd4:	00000613 	andeq	r0, r0, r3, lsl r6
     fd8:	2001f901 	andcs	pc, r1, r1, lsl #18
     fdc:	00000054 	andeq	r0, r0, r4, asr r0
     fe0:	000008f8 	strdeq	r0, [r0], -r8
     fe4:	000008f0 	strdeq	r0, [r0], -r0	; <UNPREDICTABLE>
     fe8:	00046a0a 	andeq	r6, r4, sl, lsl #20
     fec:	01f90100 	mvnseq	r0, r0, lsl #2
     ff0:	00003136 	andeq	r3, r0, r6, lsr r1
     ff4:	00093a00 	andeq	r3, r9, r0, lsl #20
     ff8:	00093200 	andeq	r3, r9, r0, lsl #4
     ffc:	048d0a00 	streq	r0, [sp], #2560	; 0xa00
    1000:	fa010000 	blx	41008 <_etext+0x3f2ac>
    1004:	00542001 	subseq	r2, r4, r1
    1008:	09780000 	ldmdbeq	r8!, {}^	; <UNPREDICTABLE>
    100c:	09740000 	ldmdbeq	r4!, {}^	; <UNPREDICTABLE>
    1010:	3e0a0000 	cdpcc	0, 0, cr0, cr10, cr0, {0}
    1014:	01000005 	tsteq	r0, r5
    1018:	543a01fa 	ldrtpl	r0, [sl], #-506	; 0xfffffe06
    101c:	a1000000 	mrsge	r0, (UNDEF: 0)
    1020:	99000009 	stmdbls	r0, {r0, r3}
    1024:	00000009 	andeq	r0, r0, r9
    1028:	0001e015 	andeq	lr, r1, r5, lsl r0
    102c:	01af0100 			; <UNDEFINED> instruction: 0x01af0100
    1030:	00005401 	andeq	r5, r0, r1, lsl #8
    1034:	00040800 	andeq	r0, r4, r0, lsl #16
    1038:	00003400 	andeq	r3, r0, r0, lsl #8
    103c:	689c0100 	ldmvs	ip, {r8}
    1040:	0a00000d 	beq	107c <SysCtlPIOSCCalibrate+0x20>
    1044:	00000613 	andeq	r0, r0, r3, lsl r6
    1048:	1e01af01 	cdpne	15, 0, cr10, cr1, cr1, {0}
    104c:	00000054 	andeq	r0, r0, r4, asr r0
    1050:	000009df 	ldrdeq	r0, [r0], -pc	; <UNPREDICTABLE>
    1054:	000009db 	ldrdeq	r0, [r0], -fp
    1058:	0003930a 	andeq	r9, r3, sl, lsl #6
    105c:	01af0100 			; <UNDEFINED> instruction: 0x01af0100
    1060:	00003134 	andeq	r3, r0, r4, lsr r1
    1064:	000a0600 	andeq	r0, sl, r0, lsl #12
    1068:	000a0000 	andeq	r0, sl, r0
    106c:	032d0b00 			; <UNDEFINED> instruction: 0x032d0b00
    1070:	b1010000 	mrslt	r0, (UNDEF: 1)
    1074:	00541301 	subseq	r1, r4, r1, lsl #6
    1078:	0a3a0000 	beq	e81080 <_etext+0xe7f324>
    107c:	0a380000 	beq	e01084 <_etext+0xdff328>
    1080:	bf0b0000 	svclt	0x000b0000
    1084:	01000005 	tsteq	r0, r5
    1088:	541a01b1 	ldrpl	r0, [sl], #-433	; 0xfffffe4f
    108c:	4f000000 	svcmi	0x00000000
    1090:	4d00000a 	stcmi	0, cr0, [r0, #-40]	; 0xffffffd8
    1094:	0b00000a 	bleq	10c4 <SysCtlClockSet+0x20>
    1098:	00000581 	andeq	r0, r0, r1, lsl #11
    109c:	2001b101 	andcs	fp, r1, r1, lsl #2
    10a0:	00000054 	andeq	r0, r0, r4, asr r0
    10a4:	00000a64 	andeq	r0, r0, r4, ror #20
    10a8:	00000a62 	andeq	r0, r0, r2, ror #20
    10ac:	041e0800 	ldreq	r0, [lr], #-2048	; 0xfffff800
    10b0:	84010000 	strhi	r0, [r1], #-0
    10b4:	03c40101 	biceq	r0, r4, #1073741824	; 0x40000000
    10b8:	00440000 	subeq	r0, r4, r0
    10bc:	9c010000 	stcls	0, cr0, [r1], {-0}
    10c0:	00000dbf 			; <UNDEFINED> instruction: 0x00000dbf
    10c4:	0006130a 	andeq	r1, r6, sl, lsl #6
    10c8:	01840100 	orreq	r0, r4, r0, lsl #2
    10cc:	0000541e 	andeq	r5, r0, lr, lsl r4
    10d0:	000a7b00 	andeq	r7, sl, r0, lsl #22
    10d4:	000a7700 	andeq	r7, sl, r0, lsl #14
    10d8:	046a0a00 	strbteq	r0, [sl], #-2560	; 0xfffff600
    10dc:	84010000 	strhi	r0, [r1], #-0
    10e0:	00313401 	eorseq	r3, r1, r1, lsl #8
    10e4:	0aa00000 	beq	fe8010ec <_ebss+0xde800d70>
    10e8:	0a9c0000 	beq	fe7010f0 <_ebss+0xde700d74>
    10ec:	fc0a0000 	stc2	0, cr0, [sl], {-0}
    10f0:	01000005 	tsteq	r0, r5
    10f4:	541e0185 	ldrpl	r0, [lr], #-389	; 0xfffffe7b
    10f8:	c5000000 	strgt	r0, [r0, #-0]
    10fc:	c100000a 	tstgt	r0, sl
    1100:	0000000a 	andeq	r0, r0, sl
    1104:	00040015 	andeq	r0, r4, r5, lsl r0
    1108:	01410100 	mrseq	r0, (UNDEF: 81)
    110c:	00005401 	andeq	r5, r0, r1, lsl #8
    1110:	0003a000 	andeq	sl, r3, r0
    1114:	00002200 	andeq	r2, r0, r0, lsl #4
    1118:	2f9c0100 	svccs	0x009c0100
    111c:	0a00000e 	beq	115c <SysCtlClockSet+0xb8>
    1120:	00000613 	andeq	r0, r0, r3, lsl r6
    1124:	1e014101 	adfnes	f4, f1, f1
    1128:	00000054 	andeq	r0, r0, r4, asr r0
    112c:	00000aea 	andeq	r0, r0, sl, ror #21
    1130:	00000ae6 	andeq	r0, r0, r6, ror #21
    1134:	0003930a 	andeq	r9, r3, sl, lsl #6
    1138:	01410100 	mrseq	r0, (UNDEF: 81)
    113c:	00003134 	andeq	r3, r0, r4, lsr r1
    1140:	000b1100 	andeq	r1, fp, r0, lsl #2
    1144:	000b0b00 	andeq	r0, fp, r0, lsl #22
    1148:	024e0b00 	subeq	r0, lr, #0, 22
    114c:	43010000 	movwmi	r0, #4096	; 0x1000
    1150:	00541301 	subseq	r1, r4, r1, lsl #6
    1154:	0b450000 	bleq	114115c <_etext+0x113f400>
    1158:	0b430000 	bleq	10c1160 <_etext+0x10bf404>
    115c:	460b0000 	strmi	r0, [fp], -r0
    1160:	01000002 	tsteq	r0, r2
    1164:	541a0143 	ldrpl	r0, [sl], #-323	; 0xfffffebd
    1168:	5a000000 	bpl	1170 <SysCtlClockSet+0xcc>
    116c:	5800000b 	stmdapl	r0, {r0, r1, r3}
    1170:	0000000b 	andeq	r0, r0, fp
    1174:	0003ca1a 	andeq	ip, r3, sl, lsl sl
    1178:	011a0100 	tsteq	sl, r0, lsl #2
    117c:	0e650101 	poweqs	f0, f5, f1
    1180:	130d0000 	movwne	r0, #53248	; 0xd000
    1184:	01000006 	tsteq	r0, r6
    1188:	541e011a 	ldrpl	r0, [lr], #-282	; 0xfffffee6
    118c:	0d000000 	stceq	0, cr0, [r0, #-0]
    1190:	0000046a 	andeq	r0, r0, sl, ror #8
    1194:	34011a01 	strcc	r1, [r1], #-2561	; 0xfffff5ff
    1198:	00000031 	andeq	r0, r0, r1, lsr r0
    119c:	0005260d 	andeq	r2, r5, sp, lsl #12
    11a0:	011b0100 	tsteq	fp, r0, lsl #2
    11a4:	0000541e 	andeq	r5, r0, lr, lsl r4
    11a8:	ea1b0000 	b	6c11b0 <_etext+0x6bf454>
    11ac:	01000002 	tsteq	r0, r2
    11b0:	0a12017f 	beq	4817b4 <_etext+0x47fa58>
    11b4:	02300000 	eorseq	r0, r0, #0
    11b8:	01400000 	mrseq	r0, (UNDEF: 64)
    11bc:	9c010000 	stcls	0, cr0, [r1], {-0}
    11c0:	00000ea0 	andeq	r0, r0, r0, lsr #29
    11c4:	0006131c 	andeq	r1, r6, ip, lsl r3
    11c8:	207f0100 	rsbscs	r0, pc, r0, lsl #2
    11cc:	00000054 	andeq	r0, r0, r4, asr r0
    11d0:	00000bb9 			; <UNDEFINED> instruction: 0x00000bb9
    11d4:	00000b6d 	andeq	r0, r0, sp, ror #22
    11d8:	000fe01d 	andeq	lr, pc, sp, lsl r0	; <UNPREDICTABLE>
    11dc:	0a810100 	beq	fe0415e4 <_ebss+0xde041268>
    11e0:	00000a12 	andeq	r0, r0, r2, lsl sl
    11e4:	0e2f1e00 	cdpeq	14, 2, cr1, cr15, cr0, {0}
    11e8:	03700000 	cmneq	r0, #0
    11ec:	00300000 	eorseq	r0, r0, r0
    11f0:	9c010000 	stcls	0, cr0, [r1], {-0}
    11f4:	00000edb 	ldrdeq	r0, [r0], -fp
    11f8:	000e3d0f 	andeq	r3, lr, pc, lsl #26
    11fc:	000da000 	andeq	sl, sp, r0
    1200:	000d9c00 	andeq	r9, sp, r0, lsl #24
    1204:	0e4a0f00 	cdpeq	15, 4, cr0, cr10, cr0, {0}
    1208:	0dc50000 	stcleq	0, cr0, [r5]
    120c:	0dc10000 	stcleq	0, cr0, [r1]
    1210:	570f0000 	strpl	r0, [pc, -r0]
    1214:	ea00000e 	b	1254 <SysCtlClockGet+0x38>
    1218:	e600000d 	str	r0, [r0], -sp
    121c:	0000000d 	andeq	r0, r0, sp
    1220:	000d3e1f 	andeq	r3, sp, pc, lsl lr
    1224:	000d3e00 	andeq	r3, sp, r0, lsl #28
    1228:	0d4d0200 	sfmeq	f0, 2, [sp, #-0]
    122c:	000fca1f 	andeq	ip, pc, pc, lsl sl	; <UNPREDICTABLE>
    1230:	000fca00 	andeq	ip, pc, r0, lsl #20
    1234:	0d460200 	sfmeq	f0, 2, [r6, #-0]
    1238:	00105c1f 	andseq	r5, r0, pc, lsl ip
    123c:	00105c00 	andseq	r5, r0, r0, lsl #24
    1240:	0d450200 	sfmeq	f0, 2, [r5, #-0]
    1244:	000ff31f 	andeq	pc, pc, pc, lsl r3	; <UNPREDICTABLE>
    1248:	000ff300 	andeq	pc, pc, r0, lsl #6
    124c:	0d4c0200 	sfmeq	f0, 2, [ip, #-0]
    1250:	00048800 	andeq	r8, r4, r0, lsl #16
    1254:	e3000400 	movw	r0, #1024	; 0x400
    1258:	04000003 	streq	r0, [r0], #-3
    125c:	00049801 	andeq	r9, r4, r1, lsl #16
    1260:	062e0c00 	strteq	r0, [lr], -r0, lsl #24
    1264:	01ef0000 	mvneq	r0, r0
    1268:	086c0000 	stmdaeq	ip!, {}^	; <UNPREDICTABLE>
    126c:	02e00000 	rsceq	r0, r0, #0
    1270:	0acd0000 	beq	ff341278 <_ebss+0xdf340efc>
    1274:	69020000 	stmdbvs	r2, {}	; <UNPREDICTABLE>
    1278:	03000005 	movweq	r0, #5
    127c:	00311730 	eorseq	r1, r1, r0, lsr r7
    1280:	01030000 	mrseq	r0, (UNDEF: 3)
    1284:	0001b308 	andeq	fp, r1, r8, lsl #6
    1288:	005b0400 	subseq	r0, fp, r0, lsl #8
    128c:	00480000 	subeq	r0, r8, r0
    1290:	4d050000 	stcmi	0, cr0, [r5, #-0]
    1294:	07000000 	streq	r0, [r0, -r0]
    1298:	00380600 	eorseq	r0, r8, r0, lsl #12
    129c:	04030000 	streq	r0, [r3], #-0
    12a0:	00001207 	andeq	r1, r0, r7, lsl #4
    12a4:	07040300 	streq	r0, [r4, -r0, lsl #6]
    12a8:	0000000d 	andeq	r0, r0, sp
    12ac:	00005406 	andeq	r5, r0, r6, lsl #8
    12b0:	07680700 	strbeq	r0, [r8, -r0, lsl #14]!
    12b4:	3c010000 	stccc	0, cr0, [r1], {-0}
    12b8:	0000481c 	andeq	r4, r0, ip, lsl r8
    12bc:	44030500 	strmi	r0, [r3], #-1280	; 0xfffffb00
    12c0:	0400001a 	streq	r0, [r0], #-26	; 0xffffffe6
    12c4:	0000005b 	andeq	r0, r0, fp, asr r0
    12c8:	00000082 	andeq	r0, r0, r2, lsl #1
    12cc:	00004d05 	andeq	r4, r0, r5, lsl #26
    12d0:	06002600 	streq	r2, [r0], -r0, lsl #12
    12d4:	00000072 	andeq	r0, r0, r2, ror r0
    12d8:	00074707 	andeq	r4, r7, r7, lsl #14
    12dc:	1c490100 	stfnee	f0, [r9], {-0}
    12e0:	00000082 	andeq	r0, r0, r2, lsl #1
    12e4:	1a640305 	bne	1901f00 <_etext+0x19001a4>
    12e8:	5b040000 	blpl	1012f0 <_etext+0xff594>
    12ec:	a9000000 	stmdbge	r0, {}	; <UNPREDICTABLE>
    12f0:	05000000 	streq	r0, [r0, #-0]
    12f4:	0000004d 	andeq	r0, r0, sp, asr #32
    12f8:	99060004 	stmdbls	r6, {r2}
    12fc:	07000000 	streq	r0, [r0, -r0]
    1300:	00000776 	andeq	r0, r0, r6, ror r7
    1304:	a91c5b01 	ldmdbge	ip, {r0, r8, r9, fp, ip, lr}
    1308:	05000000 	streq	r0, [r0, #-0]
    130c:	001b0003 	andseq	r0, fp, r3
    1310:	06730700 	ldrbteq	r0, [r3], -r0, lsl #14
    1314:	67010000 	strvs	r0, [r1, -r0]
    1318:	0000a91c 	andeq	sl, r0, ip, lsl r9
    131c:	14030500 	strne	r0, [r3], #-1280	; 0xfffffb00
    1320:	0700001b 	smladeq	r0, fp, r0, r0
    1324:	00000646 	andeq	r0, r0, r6, asr #12
    1328:	a91c7201 	ldmdbge	ip, {r0, r9, ip, sp, lr}
    132c:	05000000 	streq	r0, [r0, #-0]
    1330:	001b2803 	andseq	r2, fp, r3, lsl #16
    1334:	06fd0700 	ldrbteq	r0, [sp], r0, lsl #14
    1338:	7e010000 	cdpvc	0, 0, cr0, cr1, cr0, {0}
    133c:	0000a91c 	andeq	sl, r0, ip, lsl r9
    1340:	3c030500 	cfstr32cc	mvfx0, [r3], {-0}
    1344:	0400001b 	streq	r0, [r0], #-27	; 0xffffffe5
    1348:	00000106 	andeq	r0, r0, r6, lsl #2
    134c:	00000106 	andeq	r0, r0, r6, lsl #2
    1350:	00004d05 	andeq	r4, r0, r5, lsl #26
    1354:	08009a00 	stmdaeq	r0, {r9, fp, ip, pc}
    1358:	00010c04 	andeq	r0, r1, r4, lsl #24
    135c:	630a0900 	movwvs	r0, #43264	; 0xa900
    1360:	01000006 	tsteq	r0, r6
    1364:	00f608b1 	ldrhteq	r0, [r6], #129	; 0x81
    1368:	04000000 	streq	r0, [r0], #-0
    136c:	00000305 	andeq	r0, r0, r5, lsl #6
    1370:	2d0b2000 	stccs	0, cr2, [fp, #-0]
    1374:	01000007 	tsteq	r0, r7
    1378:	5401033b 	strpl	r0, [r1], #-827	; 0xfffffcc5
    137c:	48000000 	stmdami	r0, {}	; <UNPREDICTABLE>
    1380:	0400000b 	streq	r0, [r0], #-11
    1384:	01000000 	mrseq	r0, (UNDEF: 0)
    1388:	0001469c 	muleq	r1, ip, r6
    138c:	0b4c0c00 	bleq	1304394 <_etext+0x1302638>
    1390:	045b0000 	ldrbeq	r0, [fp], #-0
    1394:	0d000000 	stceq	0, cr0, [r0, #-0]
    1398:	000006ba 			; <UNDEFINED> instruction: 0x000006ba
    139c:	01032101 	tsteq	r3, r1, lsl #2
    13a0:	00000b44 	andeq	r0, r0, r4, asr #22
    13a4:	00000004 	andeq	r0, r0, r4
    13a8:	01849c01 	orreq	r9, r4, r1, lsl #24
    13ac:	0d0e0000 	stceq	0, cr0, [lr, #-0]
    13b0:	01000007 	tsteq	r0, r7
    13b4:	54220321 	strtpl	r0, [r2], #-801	; 0xfffffcdf
    13b8:	0f000000 	svceq	0x00000000
    13bc:	0b00000e 	bleq	13fc <SysCtlClockGet+0x1e0>
    13c0:	0f00000e 	svceq	0x0000000e
    13c4:	00000b48 	andeq	r0, r0, r8, asr #22
    13c8:	00000467 	andeq	r0, r0, r7, ror #8
    13cc:	03500110 	cmpeq	r0, #16, 2
    13d0:	005001f3 	ldrsheq	r0, [r0], #-19	; 0xffffffed
    13d4:	07cc0d00 	strbeq	r0, [ip, r0, lsl #26]
    13d8:	e7010000 	str	r0, [r1, -r0]
    13dc:	0afc0102 	beq	fff017ec <_ebss+0xdff01470>
    13e0:	00480000 	subeq	r0, r8, r0
    13e4:	9c010000 	stcls	0, cr0, [r1], {-0}
    13e8:	000001b1 			; <UNDEFINED> instruction: 0x000001b1
    13ec:	00063a0e 	andeq	r3, r6, lr, lsl #20
    13f0:	02e70100 	rsceq	r0, r7, #0, 2
    13f4:	0000541c 	andeq	r5, r0, ip, lsl r4
    13f8:	000e3800 	andeq	r3, lr, r0, lsl #16
    13fc:	000e3000 	andeq	r3, lr, r0
    1400:	800d0000 	andhi	r0, sp, r0
    1404:	01000006 	tsteq	r0, r6
    1408:	a40102af 	strge	r0, [r1], #-687	; 0xfffffd51
    140c:	5800000a 	stmdapl	r0, {r1, r3}
    1410:	01000000 	mrseq	r0, (UNDEF: 0)
    1414:	0001de9c 	muleq	r1, ip, lr
    1418:	063a0e00 	ldrteq	r0, [sl], -r0, lsl #28
    141c:	af010000 	svcge	0x00010000
    1420:	00541a02 	subseq	r1, r4, r2, lsl #20
    1424:	0e790000 	cdpeq	0, 7, cr0, cr9, cr0, {0}
    1428:	0e710000 	cdpeq	0, 7, cr0, cr1, cr0, {0}
    142c:	0b000000 	bleq	1434 <SysCtlClockGet+0x218>
    1430:	00000696 	muleq	r0, r6, r6
    1434:	01026501 	tsteq	r2, r1, lsl #10
    1438:	00000054 	andeq	r0, r0, r4, asr r0
    143c:	00000a3c 	andeq	r0, r0, ip, lsr sl
    1440:	00000068 	andeq	r0, r0, r8, rrx
    1444:	02249c01 	eoreq	r9, r4, #256	; 0x100
    1448:	3a0e0000 	bcc	381450 <_etext+0x37f6f4>
    144c:	01000006 	tsteq	r0, r6
    1450:	541c0265 	ldrpl	r0, [ip], #-613	; 0xfffffd9b
    1454:	cc000000 	stcgt	0, cr0, [r0], {-0}
    1458:	b200000e 	andlt	r0, r0, #14
    145c:	1100000e 	tstne	r0, lr
    1460:	000007b0 			; <UNDEFINED> instruction: 0x000007b0
    1464:	13026701 	movwne	r6, #9985	; 0x2701
    1468:	00000054 	andeq	r0, r0, r4, asr r0
    146c:	00000f8d 	andeq	r0, r0, sp, lsl #31
    1470:	00000f77 	andeq	r0, r0, r7, ror pc
    1474:	0d3e0d00 	ldceq	13, cr0, [lr, #-0]
    1478:	28010000 	stmdacs	r1, {}	; <UNPREDICTABLE>
    147c:	09d00102 	ldmibeq	r0, {r1, r8}^
    1480:	006c0000 	rsbeq	r0, ip, r0
    1484:	9c010000 	stcls	0, cr0, [r1], {-0}
    1488:	00000251 	andeq	r0, r0, r1, asr r2
    148c:	00063a0e 	andeq	r3, r6, lr, lsl #20
    1490:	02280100 	eoreq	r0, r8, #0, 2
    1494:	0000541a 	andeq	r5, r0, sl, lsl r4
    1498:	00101c00 	andseq	r1, r0, r0, lsl #24
    149c:	00101400 	andseq	r1, r0, r0, lsl #8
    14a0:	f30d0000 	vhadd.u8	d0, d13, d0
    14a4:	0100000f 	tsteq	r0, pc
    14a8:	640101ea 	strvs	r0, [r1], #-490	; 0xfffffe16
    14ac:	6c000009 	stcvs	0, cr0, [r0], {9}
    14b0:	01000000 	mrseq	r0, (UNDEF: 0)
    14b4:	00027e9c 	muleq	r2, ip, lr
    14b8:	063a0e00 	ldrteq	r0, [sl], -r0, lsl #28
    14bc:	ea010000 	b	414c4 <_etext+0x3f768>
    14c0:	00541901 	subseq	r1, r4, r1, lsl #18
    14c4:	105d0000 	subsne	r0, sp, r0
    14c8:	10550000 	subsne	r0, r5, r0
    14cc:	0b000000 	bleq	14d4 <SysCtlIOSCVerificationSet+0x18>
    14d0:	000007b6 			; <UNDEFINED> instruction: 0x000007b6
    14d4:	0101ce01 	tsteq	r1, r1, lsl #28
    14d8:	000002af 	andeq	r0, r0, pc, lsr #5
    14dc:	00000944 	andeq	r0, r0, r4, asr #18
    14e0:	00000020 	andeq	r0, r0, r0, lsr #32
    14e4:	02af9c01 	adceq	r9, pc, #256	; 0x100
    14e8:	3a0e0000 	bcc	3814f0 <_etext+0x37f794>
    14ec:	01000006 	tsteq	r0, r6
    14f0:	541e01ce 	ldrpl	r0, [lr], #-462	; 0xfffffe32
    14f4:	9a000000 	bls	14fc <SysCtlPLLVerificationSet+0x8>
    14f8:	96000010 			; <UNDEFINED> instruction: 0x96000010
    14fc:	00000010 	andeq	r0, r0, r0, lsl r0
    1500:	f3050403 	vshl.u8	d0, d3, d5
    1504:	0d000005 	stceq	0, cr0, [r0, #-20]	; 0xffffffec
    1508:	00000654 	andeq	r0, r0, r4, asr r6
    150c:	0101ae01 	tsteq	r1, r1, lsl #28
    1510:	00000918 	andeq	r0, r0, r8, lsl r9
    1514:	0000002c 	andeq	r0, r0, ip, lsr #32
    1518:	030d9c01 	movweq	r9, #56321	; 0xdc01
    151c:	3a0e0000 	bcc	381524 <_etext+0x37f7c8>
    1520:	01000006 	tsteq	r0, r6
    1524:	541e01ae 	ldrpl	r0, [lr], #-430	; 0xfffffe52
    1528:	bf000000 	svclt	0x00000000
    152c:	bb000010 	bllt	1574 <SysCtlI2SMClkSet+0x10>
    1530:	0e000010 	mcreq	0, 0, r0, cr0, cr0, {0}
    1534:	0000068b 	andeq	r0, r0, fp, lsl #13
    1538:	3901ae01 	stmdbcc	r1, {r0, r9, sl, fp, sp, pc}
    153c:	00000031 	andeq	r0, r0, r1, lsr r0
    1540:	000010e4 	andeq	r1, r0, r4, ror #1
    1544:	000010e0 	andeq	r1, r0, r0, ror #1
    1548:	00074011 	andeq	r4, r7, r1, lsl r0
    154c:	01b00100 	lslseq	r0, r0, #2
    1550:	00005413 	andeq	r5, r0, r3, lsl r4
    1554:	00110900 	andseq	r0, r1, r0, lsl #18
    1558:	00110500 	andseq	r0, r1, r0, lsl #10
    155c:	a30b0000 	movwge	r0, #45056	; 0xb000
    1560:	01000006 	tsteq	r0, r6
    1564:	54010178 	strpl	r0, [r1], #-376	; 0xfffffe88
    1568:	f0000000 			; <UNDEFINED> instruction: 0xf0000000
    156c:	28000008 	stmdacs	r0, {r3}
    1570:	01000000 	mrseq	r0, (UNDEF: 0)
    1574:	0003539c 	muleq	r3, ip, r3
    1578:	06cd1100 	strbeq	r1, [sp], r0, lsl #2
    157c:	7a010000 	bvc	41584 <_etext+0x3f828>
    1580:	00541301 	subseq	r1, r4, r1, lsl #6
    1584:	112b0000 			; <UNDEFINED> instruction: 0x112b0000
    1588:	11270000 			; <UNDEFINED> instruction: 0x11270000
    158c:	e5110000 	ldr	r0, [r1, #-0]
    1590:	01000006 	tsteq	r0, r6
    1594:	541b017a 	ldrpl	r0, [fp], #-378	; 0xfffffe86
    1598:	4c000000 	stcmi	0, cr0, [r0], {-0}
    159c:	4a000011 	bmi	15e8 <SysCtlI2SMClkSet+0x84>
    15a0:	00000011 	andeq	r0, r0, r1, lsl r0
    15a4:	0007510d 	andeq	r5, r7, sp, lsl #2
    15a8:	01600100 	cmneq	r0, r0, lsl #2
    15ac:	0008d401 	andeq	sp, r8, r1, lsl #8
    15b0:	00001c00 	andeq	r1, r0, r0, lsl #24
    15b4:	7a9c0100 	bvc	fe7019bc <_ebss+0xde701640>
    15b8:	12000003 	andne	r0, r0, #3
    15bc:	000007c5 	andeq	r0, r0, r5, asr #15
    15c0:	26016001 	strcs	r6, [r1], -r1
    15c4:	00000054 	andeq	r0, r0, r4, asr r0
    15c8:	0d005001 	stceq	0, cr5, [r0, #-4]
    15cc:	00000fca 	andeq	r0, r0, sl, asr #31
    15d0:	01014201 	tsteq	r1, r1, lsl #4
    15d4:	000008c0 	andeq	r0, r0, r0, asr #17
    15d8:	00000014 	andeq	r0, r0, r4, lsl r0
    15dc:	03a19c01 			; <UNDEFINED> instruction: 0x03a19c01
    15e0:	3a120000 	bcc	4815e8 <_etext+0x47f88c>
    15e4:	01000006 	tsteq	r0, r6
    15e8:	541d0142 	ldrpl	r0, [sp], #-322	; 0xfffffebe
    15ec:	01000000 	mrseq	r0, (UNDEF: 0)
    15f0:	5c0d0050 	stcpl	0, cr0, [sp], {80}	; 0x50
    15f4:	01000010 	tsteq	r0, r0, lsl r0
    15f8:	88010107 	stmdahi	r1, {r0, r1, r2, r8}
    15fc:	38000008 	stmdacc	r0, {r3}
    1600:	01000000 	mrseq	r0, (UNDEF: 0)
    1604:	0004019c 	muleq	r4, ip, r1
    1608:	063a1200 	ldrteq	r1, [sl], -r0, lsl #4
    160c:	07010000 	streq	r0, [r1, -r0]
    1610:	00541b01 	subseq	r1, r4, r1, lsl #22
    1614:	50010000 	andpl	r0, r1, r0
    1618:	00072212 	andeq	r2, r7, r2, lsl r2
    161c:	01070100 	mrseq	r0, (UNDEF: 23)
    1620:	0001062f 	andeq	r0, r1, pc, lsr #12
    1624:	11510100 	cmpne	r1, r0, lsl #2
    1628:	0000071c 	andeq	r0, r0, ip, lsl r7
    162c:	13010901 	movwne	r0, #6401	; 0x1901
    1630:	00000054 	andeq	r0, r0, r4, asr r0
    1634:	00001161 	andeq	r1, r0, r1, ror #2
    1638:	0000115f 	andeq	r1, r0, pc, asr r1
    163c:	0006e511 	andeq	lr, r6, r1, lsl r5
    1640:	01090100 	mrseq	r0, (UNDEF: 25)
    1644:	0000541a 	andeq	r5, r0, sl, lsl r4
    1648:	00117b00 	andseq	r7, r1, r0, lsl #22
    164c:	00117500 	andseq	r7, r1, r0, lsl #10
    1650:	d4130000 	ldrle	r0, [r3], #-0
    1654:	01000006 	tsteq	r0, r6
    1658:	002501e3 	eoreq	r0, r5, r3, ror #3
    165c:	087c0000 	ldmdaeq	ip!, {}^	; <UNPREDICTABLE>
    1660:	000a0000 	andeq	r0, sl, r0
    1664:	9c010000 	stcls	0, cr0, [r1], {-0}
    1668:	00000425 	andeq	r0, r0, r5, lsr #8
    166c:	00088214 	andeq	r8, r8, r4, lsl r2
    1670:	00047300 	andeq	r7, r4, r0, lsl #6
    1674:	ed130000 	ldc	0, cr0, [r3, #-0]
    1678:	01000006 	tsteq	r0, r6
    167c:	002501c7 	eoreq	r0, r5, r7, asr #3
    1680:	08700000 	ldmdaeq	r0!, {}^	; <UNPREDICTABLE>
    1684:	000a0000 	andeq	r0, sl, r0
    1688:	9c010000 	stcls	0, cr0, [r1], {-0}
    168c:	00000449 	andeq	r0, r0, r9, asr #8
    1690:	00087614 	andeq	r7, r8, r4, lsl r6
    1694:	00047f00 	andeq	r7, r4, r0, lsl #30
    1698:	67150000 	ldrvs	r0, [r5, -r0]
    169c:	01000000 	mrseq	r0, (UNDEF: 0)
    16a0:	086c0191 	stmdaeq	ip!, {r0, r4, r7, r8}^
    16a4:	00020000 	andeq	r0, r2, r0
    16a8:	9c010000 	stcls	0, cr0, [r1], {-0}
    16ac:	00078216 	andeq	r8, r7, r6, lsl r2
    16b0:	00078200 	andeq	r8, r7, r0, lsl #4
    16b4:	163f0200 	ldrtne	r0, [pc], -r0, lsl #4
    16b8:	00079016 	andeq	r9, r7, r6, lsl r0
    16bc:	00079000 	andeq	r9, r7, r0
    16c0:	0d400200 	sfmeq	f0, 2, [r0, #-0]
    16c4:	00079e16 	andeq	r9, r7, r6, lsl lr
    16c8:	00079e00 	andeq	r9, r7, r0, lsl #28
    16cc:	163b0200 	ldrtne	r0, [fp], -r0, lsl #4
    16d0:	0007a716 	andeq	sl, r7, r6, lsl r7
    16d4:	0007a700 	andeq	sl, r7, r0, lsl #14
    16d8:	163c0200 	ldrtne	r0, [ip], -r0, lsl #4
    16dc:	000b5f00 	andeq	r5, fp, r0, lsl #30
    16e0:	4e000400 	cfcpysmi	mvf0, mvf0
    16e4:	04000005 	streq	r0, [r0], #-5
    16e8:	00049801 	andeq	r9, r4, r1, lsl #16
    16ec:	07d90c00 	ldrbeq	r0, [r9, r0, lsl #24]
    16f0:	01ef0000 	mvneq	r0, r0
    16f4:	0b4c0000 	bleq	13016fc <_etext+0x12ff9a0>
    16f8:	0afc0000 	beq	fff01700 <_ebss+0xdff01384>
    16fc:	0f050000 	svceq	0x00050000
    1700:	04020000 	streq	r0, [r2], #-0
    1704:	00001207 	andeq	r1, r0, r7, lsl #4
    1708:	05690300 	strbeq	r0, [r9, #-768]!	; 0xfffffd00
    170c:	30040000 	andcc	r0, r4, r0
    1710:	00003817 	andeq	r3, r0, r7, lsl r8
    1714:	08010200 	stmdaeq	r1, {r9}
    1718:	000001b3 			; <UNDEFINED> instruction: 0x000001b3
    171c:	00005b04 	andeq	r5, r0, r4, lsl #22
    1720:	00004f00 	andeq	r4, r0, r0, lsl #30
    1724:	00250500 	eoreq	r0, r5, r0, lsl #10
    1728:	00030000 	andeq	r0, r3, r0
    172c:	00003f06 	andeq	r3, r0, r6, lsl #30
    1730:	07040200 	streq	r0, [r4, -r0, lsl #4]
    1734:	0000000d 	andeq	r0, r0, sp
    1738:	00005406 	andeq	r5, r0, r6, lsl #8
    173c:	00540700 	subseq	r0, r4, r0, lsl #14
    1740:	b5080000 	strlt	r0, [r8, #-0]
    1744:	0100000b 	tsteq	r0, fp
    1748:	004f1c54 	subeq	r1, pc, r4, asr ip	; <UNPREDICTABLE>
    174c:	03050000 	movweq	r0, #20480	; 0x5000
    1750:	00001b50 	andeq	r1, r0, r0, asr fp
    1754:	00005b04 	andeq	r5, r0, r4, lsl #22
    1758:	00008700 	andeq	r8, r0, r0, lsl #14
    175c:	00250500 	eoreq	r0, r5, r0, lsl #10
    1760:	00020000 	andeq	r0, r2, r0
    1764:	00007706 	andeq	r7, r0, r6, lsl #14
    1768:	0bc10800 	bleq	ff043770 <_ebss+0xdf0433f4>
    176c:	63010000 	movwvs	r0, #4096	; 0x1000
    1770:	0000871c 	andeq	r8, r0, ip, lsl r7
    1774:	80030500 	andhi	r0, r3, r0, lsl #10
    1778:	0800001c 	stmdaeq	r0, {r2, r3, r4}
    177c:	00000cc2 	andeq	r0, r0, r2, asr #25
    1780:	871c7101 	ldrhi	r7, [ip, -r1, lsl #2]
    1784:	05000000 	streq	r0, [r0, #-0]
    1788:	001c8c03 	andseq	r8, ip, r3, lsl #24
    178c:	09910800 	ldmibeq	r1, {fp}
    1790:	7f010000 	svcvc	0x00010000
    1794:	0000871c 	andeq	r8, r0, ip, lsl r7
    1798:	98030500 	stmdals	r3, {r8, sl}
    179c:	0800001c 	stmdaeq	r0, {r2, r3, r4}
    17a0:	000008c4 	andeq	r0, r0, r4, asr #17
    17a4:	871c8d01 	ldrhi	r8, [ip, -r1, lsl #26]
    17a8:	05000000 	streq	r0, [r0, #-0]
    17ac:	001ca403 	andseq	sl, ip, r3, lsl #8
    17b0:	005b0400 	subseq	r0, fp, r0, lsl #8
    17b4:	00e40000 	rsceq	r0, r4, r0
    17b8:	25050000 	strcs	r0, [r5, #-0]
    17bc:	1a000000 	bne	17c4 <UARTModemStatusGet+0x8>
    17c0:	00d40600 	sbcseq	r0, r4, r0, lsl #12
    17c4:	aa080000 	bge	2017cc <_etext+0x1ffa70>
    17c8:	0100000b 	tsteq	r0, fp
    17cc:	00e41c99 	smlaleq	r1, r4, r9, ip
    17d0:	03050000 	movweq	r0, #20480	; 0x5000
    17d4:	00001cb0 			; <UNDEFINED> instruction: 0x00001cb0
    17d8:	00005b04 	andeq	r5, r0, r4, lsl #22
    17dc:	00011100 	andeq	r1, r1, r0, lsl #2
    17e0:	00250500 	eoreq	r0, r5, r0, lsl #10
    17e4:	05230000 	streq	r0, [r3, #-0]!
    17e8:	00000025 	andeq	r0, r0, r5, lsr #32
    17ec:	fb060001 	blx	1817fa <_etext+0x17fa9e>
    17f0:	09000000 	stmdbeq	r0, {}	; <UNPREDICTABLE>
    17f4:	0000099f 	muleq	r0, pc, r9	; <UNPREDICTABLE>
    17f8:	1c012a01 			; <UNDEFINED> instruction: 0x1c012a01
    17fc:	00000111 	andeq	r0, r0, r1, lsl r1
    1800:	1b600305 	blne	180241c <_etext+0x18006c0>
    1804:	240a0000 	strcs	r0, [sl], #-0
    1808:	01000009 	tsteq	r0, r9
    180c:	541307c6 	ldrpl	r0, [r3], #-1990	; 0xfffff83a
    1810:	05000000 	streq	r0, [r0, #-0]
    1814:	00037003 	andeq	r7, r3, r3
    1818:	0ad50a20 	beq	ff5440a0 <_ebss+0xdf543d24>
    181c:	c6010000 	strgt	r0, [r1], -r0
    1820:	00541d07 	subseq	r1, r4, r7, lsl #26
    1824:	03050000 	movweq	r0, #20480	; 0x5000
    1828:	20000374 	andcs	r0, r0, r4, ror r3
    182c:	000b3a0a 	andeq	r3, fp, sl, lsl #20
    1830:	07c60100 	strbeq	r0, [r6, r0, lsl #2]
    1834:	00005424 	andeq	r5, r0, r4, lsr #8
    1838:	78030500 	stmdavc	r3, {r8, sl}
    183c:	0a200003 	beq	801850 <_etext+0x7ffaf4>
    1840:	00000b59 	andeq	r0, r0, r9, asr fp
    1844:	0e07c701 	cdpeq	7, 0, cr12, cr7, cr1, {0}
    1848:	0000002c 	andeq	r0, r0, ip, lsr #32
    184c:	036c0305 	cmneq	ip, #335544320	; 0x14000000
    1850:	130b2000 	movwne	r2, #45056	; 0xb000
    1854:	01000009 	tsteq	r0, r9
    1858:	54010bad 	strpl	r0, [r1], #-2989	; 0xfffff453
    185c:	64000000 	strvs	r0, [r0], #-0
    1860:	e4000015 	str	r0, [r0], #-21	; 0xffffffeb
    1864:	01000000 	mrseq	r0, (UNDEF: 0)
    1868:	0001fa9c 	muleq	r1, ip, sl
    186c:	09430c00 	stmdbeq	r3, {sl, fp}^
    1870:	ad010000 	stcge	0, cr0, [r1, #-0]
    1874:	0054200b 	subseq	r2, r4, fp
    1878:	11bc0000 			; <UNDEFINED> instruction: 0x11bc0000
    187c:	11ae0000 			; <UNDEFINED> instruction: 0x11ae0000
    1880:	b30c0000 	movwlt	r0, #49152	; 0xc000
    1884:	01000009 	tsteq	r0, r9
    1888:	543c0bad 	ldrtpl	r0, [ip], #-2989	; 0xfffff453
    188c:	31000000 	mrscc	r0, (UNDEF: 0)
    1890:	21000012 	tstcs	r0, r2, lsl r0
    1894:	0d000012 	stceq	0, cr0, [r0, #-72]	; 0xffffffb8
    1898:	0000093a 	andeq	r0, r0, sl, lsr r9
    189c:	130baf01 	movwne	sl, #48897	; 0xbf01
    18a0:	00000054 	andeq	r0, r0, r4, asr r0
    18a4:	000012aa 	andeq	r1, r0, sl, lsr #5
    18a8:	0000129e 	muleq	r0, lr, r2
    18ac:	0009090d 	andeq	r0, r9, sp, lsl #18
    18b0:	0baf0100 	bleq	febc1cb8 <_ebss+0xdebc193c>
    18b4:	0000541d 	andeq	r5, r0, sp, lsl r4
    18b8:	00131b00 	andseq	r1, r3, r0, lsl #22
    18bc:	00131700 	andseq	r1, r3, r0, lsl #14
    18c0:	0c2c0d00 	stceq	13, cr0, [ip], #-0
    18c4:	af010000 	svcge	0x00010000
    18c8:	0054280b 	subseq	r2, r4, fp, lsl #16
    18cc:	13470000 	movtne	r0, #28672	; 0x7000
    18d0:	13450000 	movtne	r0, #20480	; 0x5000
    18d4:	0e000000 	cdpeq	0, 0, cr0, cr0, cr0, {0}
    18d8:	0000084b 	andeq	r0, r0, fp, asr #16
    18dc:	010b8d01 	tsteq	fp, r1, lsl #26
    18e0:	00001554 	andeq	r1, r0, r4, asr r5
    18e4:	00000010 	andeq	r0, r0, r0, lsl r0
    18e8:	460e9c01 	strmi	r9, [lr], -r1, lsl #24
    18ec:	0100000b 	tsteq	r0, fp
    18f0:	44010b79 	strmi	r0, [r1], #-2937	; 0xfffff487
    18f4:	10000015 	andne	r0, r0, r5, lsl r0
    18f8:	01000000 	mrseq	r0, (UNDEF: 0)
    18fc:	0c320f9c 	ldceq	15, cr0, [r2], #-624	; 0xfffffd90
    1900:	58010000 	stmdapl	r1, {}	; <UNPREDICTABLE>
    1904:	1530010b 	ldrne	r0, [r0, #-267]!	; 0xfffffef5
    1908:	00140000 	andseq	r0, r4, r0
    190c:	9c010000 	stcls	0, cr0, [r1], {-0}
    1910:	0000024d 	andeq	r0, r0, sp, asr #4
    1914:	000b610c 	andeq	r6, fp, ip, lsl #2
    1918:	0b580100 	bleq	1601d20 <_etext+0x15fffc4>
    191c:	00005424 	andeq	r5, r0, r4, lsr #8
    1920:	00135e00 	andseq	r5, r3, r0, lsl #28
    1924:	00135a00 	andseq	r5, r3, r0, lsl #20
    1928:	f50f0000 			; <UNDEFINED> instruction: 0xf50f0000
    192c:	01000008 	tsteq	r0, r8
    1930:	20010b30 	andcs	r0, r1, r0, lsr fp
    1934:	10000015 	andne	r0, r0, r5, lsl r0
    1938:	01000000 	mrseq	r0, (UNDEF: 0)
    193c:	00027a9c 	muleq	r2, ip, sl
    1940:	0b610c00 	bleq	1844948 <_etext+0x1842bec>
    1944:	30010000 	andcc	r0, r1, r0
    1948:	0054230b 	subseq	r2, r4, fp, lsl #6
    194c:	13830000 	orrne	r0, r3, #0
    1950:	137f0000 	cmnne	pc, #0
    1954:	0e000000 	cdpeq	0, 0, cr0, cr0, cr0, {0}
    1958:	00000a8c 	andeq	r0, r0, ip, lsl #21
    195c:	010b0d01 	tsteq	fp, r1, lsl #26
    1960:	00001510 	andeq	r1, r0, r0, lsl r5
    1964:	00000010 	andeq	r0, r0, r0, lsl r0
    1968:	d00f9c01 	andle	r9, pc, r1, lsl #24
    196c:	0100000c 	tsteq	r0, ip
    1970:	f4010af0 	vst1.64	{d0-d1}, [r1 :256], r0
    1974:	1c000014 	stcne	0, cr0, [r0], {20}
    1978:	01000000 	mrseq	r0, (UNDEF: 0)
    197c:	0002b49c 	muleq	r2, ip, r4
    1980:	0c041000 	stceq	0, cr1, [r4], {-0}
    1984:	f0010000 			; <UNDEFINED> instruction: 0xf0010000
    1988:	002c230a 	eoreq	r2, ip, sl, lsl #6
    198c:	50010000 	andpl	r0, r1, r0
    1990:	0a240f00 	beq	905598 <_etext+0x90383c>
    1994:	cc010000 	stcgt	0, cr0, [r1], {-0}
    1998:	14d8010a 	ldrbne	r0, [r8], #266	; 0x10a
    199c:	001c0000 	andseq	r0, ip, r0
    19a0:	9c010000 	stcls	0, cr0, [r1], {-0}
    19a4:	000002db 	ldrdeq	r0, [r0], -fp
    19a8:	000c0410 	andeq	r0, ip, r0, lsl r4
    19ac:	0acc0100 	beq	ff301db4 <_ebss+0xdf301a38>
    19b0:	00002c24 	andeq	r2, r0, r4, lsr #24
    19b4:	00500100 	subseq	r0, r0, r0, lsl #2
    19b8:	0009610f 	andeq	r6, r9, pc, lsl #2
    19bc:	0aa60100 	beq	fe981dc4 <_ebss+0xde981a48>
    19c0:	0014bc01 	andseq	fp, r4, r1, lsl #24
    19c4:	00001c00 	andeq	r1, r0, r0, lsl #24
    19c8:	029c0100 	addseq	r0, ip, #0, 2
    19cc:	10000003 	andne	r0, r0, r3
    19d0:	00000c04 	andeq	r0, r0, r4, lsl #24
    19d4:	240aa601 	strcs	sl, [sl], #-1537	; 0xfffff9ff
    19d8:	0000002c 	andeq	r0, r0, ip, lsr #32
    19dc:	11005001 	tstne	r0, r1
    19e0:	00000a5a 	andeq	r0, r0, sl, asr sl
    19e4:	010a8801 	tsteq	sl, r1, lsl #16
    19e8:	00000054 	andeq	r0, r0, r4, asr r0
    19ec:	000014ac 	andeq	r1, r0, ip, lsr #9
    19f0:	00000010 	andeq	r0, r0, r0, lsl r0
    19f4:	9d0f9c01 	stcls	12, cr9, [pc, #-4]	; 19f8 <g_pulGPIOBaseAddrs+0x2c>
    19f8:	01000008 	tsteq	r0, r8
    19fc:	88010a69 	stmdahi	r1, {r0, r3, r5, r6, r9, fp}
    1a00:	24000014 	strcs	r0, [r0], #-20	; 0xffffffec
    1a04:	01000000 	mrseq	r0, (UNDEF: 0)
    1a08:	0003469c 	muleq	r3, ip, r6
    1a0c:	08120c00 	ldmdaeq	r2, {sl, fp}
    1a10:	69010000 	stmdbvs	r1, {}	; <UNPREDICTABLE>
    1a14:	0054210a 	subseq	r2, r4, sl, lsl #2
    1a18:	13a80000 			; <UNDEFINED> instruction: 0x13a80000
    1a1c:	13a40000 			; <UNDEFINED> instruction: 0x13a40000
    1a20:	11000000 	mrsne	r0, (UNDEF: 0)
    1a24:	000009ca 	andeq	r0, r0, sl, asr #19
    1a28:	010a3c01 	tsteq	sl, r1, lsl #24
    1a2c:	00000054 	andeq	r0, r0, r4, asr r0
    1a30:	00001470 	andeq	r1, r0, r0, ror r4
    1a34:	00000018 	andeq	r0, r0, r8, lsl r0
    1a38:	900f9c01 	andls	r9, pc, r1, lsl #24
    1a3c:	0100000c 	tsteq	r0, ip
    1a40:	5c010a14 			; <UNDEFINED> instruction: 0x5c010a14
    1a44:	14000014 	strne	r0, [r0], #-20	; 0xffffffec
    1a48:	01000000 	mrseq	r0, (UNDEF: 0)
    1a4c:	0003849c 	muleq	r3, ip, r4
    1a50:	0fe61000 	svceq	0x00e61000
    1a54:	14010000 	strne	r0, [r1], #-0
    1a58:	0054210a 	subseq	r2, r4, sl, lsl #2
    1a5c:	50010000 	andpl	r0, r1, r0
    1a60:	07fa0f00 	ldrbeq	r0, [sl, r0, lsl #30]!
    1a64:	f8010000 			; <UNDEFINED> instruction: 0xf8010000
    1a68:	14500109 	ldrbne	r0, [r0], #-265	; 0xfffffef7
    1a6c:	000c0000 	andeq	r0, ip, r0
    1a70:	9c010000 	stcls	0, cr0, [r1], {-0}
    1a74:	000003ab 	andeq	r0, r0, fp, lsr #7
    1a78:	000fe610 	andeq	lr, pc, r0, lsl r6	; <UNPREDICTABLE>
    1a7c:	09f80100 	ldmibeq	r8!, {r8}^
    1a80:	00005427 	andeq	r5, r0, r7, lsr #8
    1a84:	00500100 	subseq	r0, r0, r0, lsl #2
    1a88:	0001d10b 	andeq	sp, r1, fp, lsl #2
    1a8c:	08e20100 	stmiaeq	r2!, {r8}^
    1a90:	00005401 	andeq	r5, r0, r1, lsl #8
    1a94:	00121c00 	andseq	r1, r2, r0, lsl #24
    1a98:	00023400 	andeq	r3, r2, r0, lsl #8
    1a9c:	1b9c0100 	blne	fe701ea4 <_ebss+0xde701b28>
    1aa0:	0d000004 	stceq	0, cr0, [r0, #-16]
    1aa4:	000008ef 	andeq	r0, r0, pc, ror #17
    1aa8:	1308e401 	movwne	lr, #33793	; 0x8401
    1aac:	00000054 	andeq	r0, r0, r4, asr r0
    1ab0:	000013d5 	ldrdeq	r1, [r0], -r5
    1ab4:	000013c9 	andeq	r1, r0, r9, asr #7
    1ab8:	000a750d 	andeq	r7, sl, sp, lsl #10
    1abc:	08e40100 	stmiaeq	r4!, {r8}^
    1ac0:	0000541a 	andeq	r5, r0, sl, lsl r4
    1ac4:	00142d00 	andseq	r2, r4, r0, lsl #26
    1ac8:	00142500 	andseq	r2, r4, r0, lsl #10
    1acc:	0c2c0d00 	stceq	13, cr0, [ip], #-0
    1ad0:	e4010000 	str	r0, [r1], #-0
    1ad4:	00542208 	subseq	r2, r4, r8, lsl #4
    1ad8:	14650000 	strbtne	r0, [r5], #-0
    1adc:	14610000 	strbtne	r0, [r1], #-0
    1ae0:	1a0d0000 	bne	341ae8 <_etext+0x33fd8c>
    1ae4:	01000008 	tsteq	r0, r8
    1ae8:	542908e4 	strtpl	r0, [r9], #-2276	; 0xfffff71c
    1aec:	95000000 	strls	r0, [r0, #-0]
    1af0:	83000014 	movwhi	r0, #20
    1af4:	00000014 	andeq	r0, r0, r4, lsl r0
    1af8:	0001a40f 	andeq	sl, r1, pc, lsl #8
    1afc:	08130100 	ldmdaeq	r3, {r8}
    1b00:	0010a401 	andseq	sl, r0, r1, lsl #8
    1b04:	00017800 	andeq	r7, r1, r0, lsl #16
    1b08:	d39c0100 	orrsle	r0, ip, #0, 2
    1b0c:	0c000004 	stceq	0, cr0, [r0], {4}
    1b10:	00000fe6 	andeq	r0, r0, r6, ror #31
    1b14:	1e081301 	cdpne	3, 0, cr1, cr8, cr1, {0}
    1b18:	00000054 	andeq	r0, r0, r4, asr r0
    1b1c:	0000150c 	andeq	r1, r0, ip, lsl #10
    1b20:	00001500 	andeq	r1, r0, r0, lsl #10
    1b24:	0008bc0d 	andeq	fp, r8, sp, lsl #24
    1b28:	08150100 	ldmdaeq	r5, {r8}
    1b2c:	00005413 	andeq	r5, r0, r3, lsl r4
    1b30:	00155f00 	andseq	r5, r5, r0, lsl #30
    1b34:	00155900 	andseq	r5, r5, r0, lsl #18
    1b38:	08ef0d00 	stmiaeq	pc!, {r8, sl, fp}^	; <UNPREDICTABLE>
    1b3c:	15010000 	strne	r0, [r1, #-0]
    1b40:	00541c08 	subseq	r1, r4, r8, lsl #24
    1b44:	15a20000 	strne	r0, [r2, #0]!
    1b48:	158c0000 	strne	r0, [ip]
    1b4c:	750d0000 	strvc	r0, [sp, #-0]
    1b50:	0100000a 	tsteq	r0, sl
    1b54:	54230815 	strtpl	r0, [r3], #-2069	; 0xfffff7eb
    1b58:	51000000 	mrspl	r0, (UNDEF: 0)
    1b5c:	33000016 	movwcc	r0, #22
    1b60:	12000016 	andne	r0, r0, #22
    1b64:	00001108 	andeq	r1, r0, r8, lsl #2
    1b68:	0000052b 	andeq	r0, r0, fp, lsr #10
    1b6c:	0000049b 	muleq	r0, fp, r4
    1b70:	03500113 	cmpeq	r0, #-1073741820	; 0xc0000004
    1b74:	00243f40 	eoreq	r3, r4, r0, asr #30
    1b78:	00113e12 	andseq	r3, r1, r2, lsl lr
    1b7c:	00052b00 	andeq	r2, r5, r0, lsl #22
    1b80:	0004ae00 	andeq	sl, r4, r0, lsl #28
    1b84:	50011300 	andpl	r1, r1, r0, lsl #6
    1b88:	14004001 	strne	r4, [r0], #-1
    1b8c:	000011c2 	andeq	r1, r0, r2, asr #3
    1b90:	0000052b 	andeq	r0, r0, fp, lsr #10
    1b94:	000004c1 	andeq	r0, r0, r1, asr #9
    1b98:	01500113 	cmpeq	r0, r3, lsl r1
    1b9c:	f6150040 			; <UNDEFINED> instruction: 0xf6150040
    1ba0:	2b000011 	blcs	1bec <g_ppulPeripheralMap+0x8c>
    1ba4:	13000005 	movwne	r0, #5
    1ba8:	0a035001 	beq	d5bb4 <_etext+0xd3e58>
    1bac:	00001000 	andeq	r1, r0, r0
    1bb0:	0008d20b 	andeq	sp, r8, fp, lsl #4
    1bb4:	079b0100 	ldreq	r0, [fp, r0, lsl #2]
    1bb8:	00005401 	andeq	r5, r0, r1, lsl #8
    1bbc:	00105c00 	andseq	r5, r0, r0, lsl #24
    1bc0:	00004800 	andeq	r4, r0, r0, lsl #16
    1bc4:	049c0100 	ldreq	r0, [ip], #256	; 0x100
    1bc8:	0c000005 	stceq	0, cr0, [r0], {5}
    1bcc:	00000c76 	andeq	r0, r0, r6, ror ip
    1bd0:	24079b01 	strcs	r9, [r7], #-2817	; 0xfffff4ff
    1bd4:	00000054 	andeq	r0, r0, r4, asr r0
    1bd8:	0000171e 	andeq	r1, r0, lr, lsl r7
    1bdc:	00001716 	andeq	r1, r0, r6, lsl r7
    1be0:	09dc0f00 	ldmibeq	ip, {r8, r9, sl, fp}^
    1be4:	77010000 	strvc	r0, [r1, -r0]
    1be8:	10500107 	subsne	r0, r0, r7, lsl #2
    1bec:	000c0000 	andeq	r0, ip, r0
    1bf0:	9c010000 	stcls	0, cr0, [r1], {-0}
    1bf4:	0000052b 	andeq	r0, r0, fp, lsr #10
    1bf8:	000fe610 	andeq	lr, pc, r0, lsl r6	; <UNPREDICTABLE>
    1bfc:	07770100 	ldrbeq	r0, [r7, -r0, lsl #2]!
    1c00:	00005423 	andeq	r5, r0, r3, lsr #8
    1c04:	00500100 	subseq	r0, r0, r0, lsl #2
    1c08:	000b9e0f 	andeq	r9, fp, pc, lsl #28
    1c0c:	073e0100 	ldreq	r0, [lr, -r0, lsl #2]!
    1c10:	00104801 	andseq	r4, r0, r1, lsl #16
    1c14:	00000800 	andeq	r0, r0, r0, lsl #16
    1c18:	529c0100 	addspl	r0, ip, #0, 2
    1c1c:	10000005 	andne	r0, r0, r5
    1c20:	00000bfc 	strdeq	r0, [r0], -ip
    1c24:	1b073e01 	blne	1d1430 <_etext+0x1cf6d4>
    1c28:	00000054 	andeq	r0, r0, r4, asr r0
    1c2c:	0f005001 	svceq	0x00005001
    1c30:	00000b0f 	andeq	r0, r0, pc, lsl #22
    1c34:	01071601 	tsteq	r7, r1, lsl #12
    1c38:	00001038 	andeq	r1, r0, r8, lsr r0
    1c3c:	00000010 	andeq	r0, r0, r0, lsl r0
    1c40:	058e9c01 	streq	r9, [lr, #3073]	; 0xc01
    1c44:	e6100000 	ldr	r0, [r0], -r0
    1c48:	0100000f 	tsteq	r0, pc
    1c4c:	54270716 	strtpl	r0, [r7], #-1814	; 0xfffff8ea
    1c50:	01000000 	mrseq	r0, (UNDEF: 0)
    1c54:	08bc0c50 	ldmeq	ip!, {r4, r6, sl, fp}
    1c58:	16010000 	strne	r0, [r1], -r0
    1c5c:	00543f07 	subseq	r3, r4, r7, lsl #30
    1c60:	175e0000 	ldrbne	r0, [lr, -r0]
    1c64:	175a0000 	ldrbne	r0, [sl, -r0]
    1c68:	0f000000 	svceq	0x00000000
    1c6c:	00000bd5 	ldrdeq	r0, [r0], -r5
    1c70:	0106f501 	tsteq	r6, r1, lsl #10	; <UNPREDICTABLE>
    1c74:	00001028 	andeq	r1, r0, r8, lsr #32
    1c78:	00000010 	andeq	r0, r0, r0, lsl r0
    1c7c:	05bb9c01 	ldreq	r9, [fp, #3073]!	; 0xc01
    1c80:	6c0c0000 	stcvs	0, cr0, [ip], {-0}
    1c84:	0100000a 	tsteq	r0, sl
    1c88:	542506f5 	strtpl	r0, [r5], #-1781	; 0xfffff90b
    1c8c:	83000000 	movwhi	r0, #0
    1c90:	7f000017 	svcvc	0x00000017
    1c94:	00000017 	andeq	r0, r0, r7, lsl r0
    1c98:	000c0c11 	andeq	r0, ip, r1, lsl ip
    1c9c:	06db0100 	ldrbeq	r0, [fp], r0, lsl #2
    1ca0:	00005401 	andeq	r5, r0, r1, lsl #8
    1ca4:	00101c00 	andseq	r1, r0, r0, lsl #24
    1ca8:	00000c00 	andeq	r0, r0, r0, lsl #24
    1cac:	0f9c0100 	svceq	0x009c0100
    1cb0:	00000a7c 	andeq	r0, r0, ip, ror sl
    1cb4:	0106b901 	tsteq	r6, r1, lsl #18
    1cb8:	00000ffc 	strdeq	r0, [r0], -ip
    1cbc:	00000020 	andeq	r0, r0, r0, lsr #32
    1cc0:	05f39c01 	ldrbeq	r9, [r3, #3073]!	; 0xc01
    1cc4:	0c160000 	ldceq	0, cr0, [r6], {-0}
    1cc8:	26000010 			; <UNDEFINED> instruction: 0x26000010
    1ccc:	0000000b 	andeq	r0, r0, fp
    1cd0:	000c200f 	andeq	r2, ip, pc
    1cd4:	06a20100 	strteq	r0, [r2], r0, lsl #2
    1cd8:	000ff801 	andeq	pc, pc, r1, lsl #16
    1cdc:	00000400 	andeq	r0, r0, r0, lsl #8
    1ce0:	149c0100 	ldrne	r0, [ip], #256	; 0x100
    1ce4:	17000006 	strne	r0, [r0, -r6]
    1ce8:	00000ffc 	strdeq	r0, [r0], -ip
    1cec:	00000b26 	andeq	r0, r0, r6, lsr #22
    1cf0:	08910e00 	ldmeq	r1, {r9, sl, fp}
    1cf4:	82010000 	andhi	r0, r1, #0
    1cf8:	0fe80106 	svceq	0x00e80106
    1cfc:	00100000 	andseq	r0, r0, r0
    1d00:	9c010000 	stcls	0, cr0, [r1], {-0}
    1d04:	000c7d0f 	andeq	r7, ip, pc, lsl #26
    1d08:	06660100 	strbteq	r0, [r6], -r0, lsl #2
    1d0c:	000fdc01 	andeq	sp, pc, r1, lsl #24
    1d10:	00000c00 	andeq	r0, r0, r0, lsl #24
    1d14:	4e9c0100 	fmlmie	f0, f4, f0
    1d18:	10000006 	andne	r0, r0, r6
    1d1c:	00000fe6 	andeq	r0, r0, r6, ror #31
    1d20:	22066601 	andcs	r6, r6, #1048576	; 0x100000
    1d24:	00000054 	andeq	r0, r0, r4, asr r0
    1d28:	11005001 	tstne	r0, r1
    1d2c:	00000ac8 	andeq	r0, r0, r8, asr #21
    1d30:	01064e01 	tsteq	r6, r1, lsl #28
    1d34:	00000054 	andeq	r0, r0, r4, asr r0
    1d38:	00000fd0 	ldrdeq	r0, [r0], -r0	; <UNPREDICTABLE>
    1d3c:	0000000c 	andeq	r0, r0, ip
    1d40:	af0f9c01 	svcge	0x000f9c01
    1d44:	01000008 	tsteq	r0, r8
    1d48:	c4010628 	strgt	r0, [r1], #-1576	; 0xfffff9d8
    1d4c:	0c00000f 	stceq	0, cr0, [r0], {15}
    1d50:	01000000 	mrseq	r0, (UNDEF: 0)
    1d54:	00068c9c 	muleq	r6, ip, ip
    1d58:	0a501000 	beq	1405d60 <_etext+0x1404004>
    1d5c:	28010000 	stmdacs	r1, {}	; <UNPREDICTABLE>
    1d60:	00541c06 	subseq	r1, r4, r6, lsl #24
    1d64:	50010000 	andpl	r0, r1, r0
    1d68:	09ba0b00 	ldmibeq	sl!, {r8, r9, fp}
    1d6c:	02010000 	andeq	r0, r1, #0
    1d70:	00540106 	subseq	r0, r4, r6, lsl #2
    1d74:	0fac0000 	svceq	0x00ac0000
    1d78:	00180000 	andseq	r0, r8, r0
    1d7c:	9c010000 	stcls	0, cr0, [r1], {-0}
    1d80:	000006bd 			; <UNDEFINED> instruction: 0x000006bd
    1d84:	00043c0c 	andeq	r3, r4, ip, lsl #24
    1d88:	06020100 	streq	r0, [r2], -r0, lsl #2
    1d8c:	00002c1a 	andeq	r2, r0, sl, lsl ip
    1d90:	0017ac00 	andseq	sl, r7, r0, lsl #24
    1d94:	0017a400 	andseq	sl, r7, r0, lsl #8
    1d98:	7b0f0000 	blvc	3c1da0 <_etext+0x3c0044>
    1d9c:	01000009 	tsteq	r0, r9
    1da0:	a00105e4 	andge	r0, r1, r4, ror #11
    1da4:	0c00000f 	stceq	0, cr0, [r0], {15}
    1da8:	01000000 	mrseq	r0, (UNDEF: 0)
    1dac:	0006e49c 	muleq	r6, ip, r4
    1db0:	0adb1000 	beq	ff6c5db8 <_ebss+0xdf6c5a3c>
    1db4:	e4010000 	str	r0, [r1], #-0
    1db8:	00541e05 	subseq	r1, r4, r5, lsl #28
    1dbc:	50010000 	andpl	r0, r1, r0
    1dc0:	09500f00 	ldmdbeq	r0, {r8, r9, sl, fp}^
    1dc4:	be010000 	cdplt	0, 0, cr0, cr1, cr0, {0}
    1dc8:	0f900105 	svceq	0x00900105
    1dcc:	00100000 	andseq	r0, r0, r0
    1dd0:	9c010000 	stcls	0, cr0, [r1], {-0}
    1dd4:	00000711 	andeq	r0, r0, r1, lsl r7
    1dd8:	000adb0c 	andeq	sp, sl, ip, lsl #22
    1ddc:	05be0100 	ldreq	r0, [lr, #256]!	; 0x100
    1de0:	00005420 	andeq	r5, r0, r0, lsr #8
    1de4:	0017ea00 	andseq	lr, r7, r0, lsl #20
    1de8:	0017e600 	andseq	lr, r7, r0, lsl #12
    1dec:	ff0f0000 			; <UNDEFINED> instruction: 0xff0f0000
    1df0:	0100000a 	tsteq	r0, sl
    1df4:	800105a1 	andhi	r0, r1, r1, lsr #11
    1df8:	1000000f 	andne	r0, r0, pc
    1dfc:	01000000 	mrseq	r0, (UNDEF: 0)
    1e00:	00073e9c 	muleq	r7, ip, lr
    1e04:	0adb0c00 	beq	ff6c4e0c <_ebss+0xdf6c4a90>
    1e08:	a1010000 	mrsge	r0, (UNDEF: 1)
    1e0c:	00541f05 	subseq	r1, r4, r5, lsl #30
    1e10:	180f0000 	stmdane	pc, {}	; <UNPREDICTABLE>
    1e14:	180b0000 	stmdane	fp, {}	; <UNPREDICTABLE>
    1e18:	0f000000 	svceq	0x00000000
    1e1c:	00000b8a 	andeq	r0, r0, sl, lsl #23
    1e20:	01057f01 	tsteq	r5, r1, lsl #30
    1e24:	00000f6c 	andeq	r0, r0, ip, ror #30
    1e28:	00000012 	andeq	r0, r0, r2, lsl r0
    1e2c:	077a9c01 	ldrbeq	r9, [sl, -r1, lsl #24]!
    1e30:	74120000 	ldrvc	r0, [r2], #-0
    1e34:	3200000f 	andcc	r0, r0, #15
    1e38:	6900000b 	stmdbvs	r0, {r0, r1, r3}
    1e3c:	13000007 	movwne	r0, #7
    1e40:	08025001 	stmdaeq	r2, {r0, ip, lr}
    1e44:	7e18002c 	cdpvc	0, 1, cr0, cr8, cr12, {1}
    1e48:	3e00000f 	cdpcc	0, 0, cr0, cr0, cr15, {0}
    1e4c:	1300000b 	movwne	r0, #11
    1e50:	08025001 	stmdaeq	r2, {r0, ip, lr}
    1e54:	0f00002c 	svceq	0x0000002c
    1e58:	00000a3e 	andeq	r0, r0, lr, lsr sl
    1e5c:	01056301 	tsteq	r5, r1, lsl #6
    1e60:	00000f58 	andeq	r0, r0, r8, asr pc
    1e64:	00000014 	andeq	r0, r0, r4, lsl r0
    1e68:	07d29c01 	ldrbeq	r9, [r2, r1, lsl #24]
    1e6c:	220c0000 	andcs	r0, ip, #0
    1e70:	01000007 	tsteq	r0, r7
    1e74:	d31a0563 	tstle	sl, #415236096	; 0x18c00000
    1e78:	36000007 	strcc	r0, [r0], -r7
    1e7c:	30000018 	andcc	r0, r0, r8, lsl r0
    1e80:	12000018 	andne	r0, r0, #24
    1e84:	00000f62 	andeq	r0, r0, r2, ror #30
    1e88:	00000b4a 	andeq	r0, r0, sl, asr #22
    1e8c:	000007c1 	andeq	r0, r0, r1, asr #15
    1e90:	02500113 	subseq	r0, r0, #-1073741820	; 0xc0000004
    1e94:	01132c08 	tsteq	r3, r8, lsl #24
    1e98:	01f30351 	mvnseq	r0, r1, asr r3
    1e9c:	6c180050 	ldcvs	0, cr0, [r8], {80}	; 0x50
    1ea0:	5600000f 	strpl	r0, [r0], -pc
    1ea4:	1300000b 	movwne	r0, #11
    1ea8:	08025001 	stmdaeq	r2, {r0, ip, lr}
    1eac:	1900002c 	stmdbne	r0, {r2, r3, r5}
    1eb0:	07d2041a 	bfieq	r0, sl, #8, #11
    1eb4:	750f0000 	strvc	r0, [pc, #-0]	; 1ebc <_etext+0x160>
    1eb8:	01000008 	tsteq	r0, r8
    1ebc:	3c010537 	cfstr32cc	mvfx0, [r1], {55}	; 0x37
    1ec0:	1c00000f 	stcne	0, cr0, [r0], {15}
    1ec4:	01000000 	mrseq	r0, (UNDEF: 0)
    1ec8:	0008009c 	muleq	r8, ip, r0
    1ecc:	0c041000 	stceq	0, cr1, [r4], {-0}
    1ed0:	37010000 	strcc	r0, [r1, -r0]
    1ed4:	002c2605 	eoreq	r2, ip, r5, lsl #12
    1ed8:	50010000 	andpl	r0, r1, r0
    1edc:	0aa70f00 	beq	fe9c5ae4 <_ebss+0xde9c5768>
    1ee0:	08010000 	stmdaeq	r1, {}	; <UNPREDICTABLE>
    1ee4:	0eec0105 	cdpeq	1, 14, cr0, cr12, cr5, {0}
    1ee8:	00500000 	subseq	r0, r0, r0
    1eec:	9c010000 	stcls	0, cr0, [r1], {-0}
    1ef0:	0000082d 	andeq	r0, r0, sp, lsr #16
    1ef4:	00092d0c 	andeq	r2, r9, ip, lsl #26
    1ef8:	05080100 	streq	r0, [r8, #-256]	; 0xffffff00
    1efc:	00005430 	andeq	r5, r0, r0, lsr r4
    1f00:	00186a00 	andseq	r6, r8, r0, lsl #20
    1f04:	00186200 	andseq	r6, r8, r0, lsl #4
    1f08:	a20f0000 	andge	r0, pc, #0
    1f0c:	0100000c 	tsteq	r0, ip
    1f10:	a00104b9 			; <UNDEFINED> instruction: 0xa00104b9
    1f14:	4c00000e 	stcmi	0, cr0, [r0], {14}
    1f18:	01000000 	mrseq	r0, (UNDEF: 0)
    1f1c:	00085a9c 	muleq	r8, ip, sl
    1f20:	092d0c00 	pusheq	{sl, fp}
    1f24:	b9010000 	stmdblt	r1, {}	; <UNPREDICTABLE>
    1f28:	00542f04 	subseq	r2, r4, r4, lsl #30
    1f2c:	18ac0000 	stmiane	ip!, {}	; <UNPREDICTABLE>
    1f30:	18a40000 	stmiane	r4!, {}	; <UNPREDICTABLE>
    1f34:	0f000000 	svceq	0x00000000
    1f38:	00000ae2 	andeq	r0, r0, r2, ror #21
    1f3c:	01046c01 	tsteq	r4, r1, lsl #24
    1f40:	00000e50 	andeq	r0, r0, r0, asr lr
    1f44:	00000050 	andeq	r0, r0, r0, asr r0
    1f48:	08879c01 	stmeq	r7, {r0, sl, fp, ip, pc}
    1f4c:	2d0c0000 	stccs	0, cr0, [ip, #-0]
    1f50:	01000009 	tsteq	r0, r9
    1f54:	542c046c 	strtpl	r0, [ip], #-1132	; 0xfffffb94
    1f58:	ee000000 	cdp	0, 0, cr0, cr0, cr0, {0}
    1f5c:	e6000018 			; <UNDEFINED> instruction: 0xe6000018
    1f60:	00000018 	andeq	r0, r0, r8, lsl r0
    1f64:	000a080f 	andeq	r0, sl, pc, lsl #16
    1f68:	04200100 	strteq	r0, [r0], #-256	; 0xffffff00
    1f6c:	000e0401 	andeq	r0, lr, r1, lsl #8
    1f70:	00004c00 	andeq	r4, r0, r0, lsl #24
    1f74:	b49c0100 	ldrlt	r0, [ip], #256	; 0x100
    1f78:	0c000008 	stceq	0, cr0, [r0], {8}
    1f7c:	0000092d 	andeq	r0, r0, sp, lsr #18
    1f80:	2b042001 	blcs	109f8c <_etext+0x108230>
    1f84:	00000054 	andeq	r0, r0, r4, asr r0
    1f88:	00001930 	andeq	r1, r0, r0, lsr r9
    1f8c:	00001928 	andeq	r1, r0, r8, lsr #18
    1f90:	09f00f00 	ldmibeq	r0!, {r8, r9, sl, fp}^
    1f94:	d5010000 	strle	r0, [r1, #-0]
    1f98:	0db40103 	ldfeqs	f0, [r4, #12]!
    1f9c:	00500000 	subseq	r0, r0, r0
    1fa0:	9c010000 	stcls	0, cr0, [r1], {-0}
    1fa4:	000008e1 	andeq	r0, r0, r1, ror #17
    1fa8:	00092d0c 	andeq	r2, r9, ip, lsl #26
    1fac:	03d50100 	bicseq	r0, r5, #0, 2
    1fb0:	00005427 	andeq	r5, r0, r7, lsr #8
    1fb4:	00197200 	andseq	r7, r9, r0, lsl #4
    1fb8:	00196a00 	andseq	r6, r9, r0, lsl #20
    1fbc:	750f0000 	strvc	r0, [pc, #-0]	; 1fc4 <_etext+0x268>
    1fc0:	01000001 	tsteq	r0, r1
    1fc4:	68010391 	stmdavs	r1, {r0, r4, r7, r8, r9}
    1fc8:	4c00000d 	stcmi	0, cr0, [r0], {13}
    1fcc:	01000000 	mrseq	r0, (UNDEF: 0)
    1fd0:	00090e9c 	muleq	r9, ip, lr
    1fd4:	092d0c00 	pusheq	{sl, fp}
    1fd8:	91010000 	mrsls	r0, (UNDEF: 1)
    1fdc:	00542603 	subseq	r2, r4, r3, lsl #12
    1fe0:	19b40000 	ldmibne	r4!, {}	; <UNPREDICTABLE>
    1fe4:	19ac0000 	stmibne	ip!, {}	; <UNPREDICTABLE>
    1fe8:	0f000000 	svceq	0x00000000
    1fec:	0000085f 	andeq	r0, r0, pc, asr r8
    1ff0:	01032a01 	tsteq	r3, r1, lsl #20
    1ff4:	00000cdc 	ldrdeq	r0, [r0], -ip
    1ff8:	0000008c 	andeq	r0, r0, ip, lsl #1
    1ffc:	094b9c01 	stmdbeq	fp, {r0, sl, fp, ip, pc}^
    2000:	2d0c0000 	stccs	0, cr0, [ip, #-0]
    2004:	01000009 	tsteq	r0, r9
    2008:	5425032a 	strtpl	r0, [r5], #-810	; 0xfffffcd6
    200c:	f4000000 	vst4.8	{d0-d3}, [r0], r0
    2010:	ee000019 	mcr	0, 0, r0, cr0, cr9, {0}
    2014:	09000019 	stmdbeq	r0, {r0, r3, r4}
    2018:	000008bc 			; <UNDEFINED> instruction: 0x000008bc
    201c:	1c032c01 	stcne	12, cr2, [r3], {1}
    2020:	00000060 	andeq	r0, r0, r0, rrx
    2024:	007c9102 	rsbseq	r9, ip, r2, lsl #2
    2028:	000c5d0f 	andeq	r5, ip, pc, lsl #26
    202c:	02ed0100 	rsceq	r0, sp, #0, 2
    2030:	000c9001 	andeq	r9, ip, r1
    2034:	00004c00 	andeq	r4, r0, r0, lsl #24
    2038:	a99c0100 	ldmibge	ip, {r8}
    203c:	0c000009 	stceq	0, cr0, [r0], {9}
    2040:	0000092d 	andeq	r0, r0, sp, lsr #18
    2044:	2802ed01 	stmdacs	r2, {r0, r8, sl, fp, sp, lr, pc}
    2048:	00000054 	andeq	r0, r0, r4, asr r0
    204c:	00001a24 	andeq	r1, r0, r4, lsr #20
    2050:	00001a20 	andeq	r1, r0, r0, lsr #20
    2054:	000af91b 	andeq	pc, sl, fp, lsl r9	; <UNPREDICTABLE>
    2058:	000c9400 	andeq	r9, ip, r0, lsl #8
    205c:	0c940000 	ldceq	0, cr0, [r4], {0}
    2060:	001a0000 	andseq	r0, sl, r0
    2064:	f8010000 			; <UNDEFINED> instruction: 0xf8010000
    2068:	0b1c1402 	bleq	707078 <_etext+0x70531c>
    206c:	4400000b 	strmi	r0, [r0], #-11
    2070:	4200001a 	andmi	r0, r0, #26
    2074:	1d00001a 	stcne	0, cr0, [r0, #-104]	; 0xffffff98
    2078:	00000b18 	andeq	r0, r0, r8, lsl fp
    207c:	00001a5b 	andeq	r1, r0, fp, asr sl
    2080:	00001a57 	andeq	r1, r0, r7, asr sl
    2084:	e20f0000 	and	r0, pc, #0
    2088:	01000007 	tsteq	r0, r7
    208c:	440102ad 	strmi	r0, [r1], #-685	; 0xfffffd53
    2090:	4c00000c 	stcmi	0, cr0, [r0], {12}
    2094:	01000000 	mrseq	r0, (UNDEF: 0)
    2098:	000a079c 	muleq	sl, ip, r7
    209c:	092d0c00 	pusheq	{sl, fp}
    20a0:	ad010000 	stcge	0, cr0, [r1, #-0]
    20a4:	00542702 	subseq	r2, r4, r2, lsl #14
    20a8:	1a7e0000 	bne	1f820b0 <_etext+0x1f80354>
    20ac:	1a7a0000 	bne	1e820b4 <_etext+0x1e80358>
    20b0:	f91b0000 			; <UNDEFINED> instruction: 0xf91b0000
    20b4:	4800000a 	stmdami	r0, {r1, r3}
    20b8:	0000000c 	andeq	r0, r0, ip
    20bc:	00000c48 	andeq	r0, r0, r8, asr #24
    20c0:	0000001a 	andeq	r0, r0, sl, lsl r0
    20c4:	1402b801 	strne	fp, [r2], #-2049	; 0xfffff7ff
    20c8:	000b0b1c 	andeq	r0, fp, ip, lsl fp
    20cc:	001a9e00 	andseq	r9, sl, r0, lsl #28
    20d0:	001a9c00 	andseq	r9, sl, r0, lsl #24
    20d4:	0b181d00 	bleq	6094dc <_etext+0x607780>
    20d8:	1ab50000 	bne	fed420e0 <_ebss+0xded41d64>
    20dc:	1ab10000 	bne	fec420e4 <_ebss+0xdec41d68>
    20e0:	00000000 	andeq	r0, r0, r0
    20e4:	000c470b 	andeq	r4, ip, fp, lsl #14
    20e8:	026e0100 	rsbeq	r0, lr, #0, 2
    20ec:	00002c01 	andeq	r2, r0, r1, lsl #24
    20f0:	000bf800 	andeq	pc, fp, r0, lsl #16
    20f4:	00004c00 	andeq	r4, r0, r0, lsl #24
    20f8:	699c0100 	ldmibvs	ip, {r8}
    20fc:	0c00000a 	stceq	0, cr0, [r0], {10}
    2100:	0000092d 	andeq	r0, r0, sp, lsr #18
    2104:	25026e01 	strcs	r6, [r2, #-3585]	; 0xfffff1ff
    2108:	00000054 	andeq	r0, r0, r4, asr r0
    210c:	00001ad8 	ldrdeq	r1, [r0], -r8
    2110:	00001ad4 	ldrdeq	r1, [r0], -r4
    2114:	000af91b 	andeq	pc, sl, fp, lsl r9	; <UNPREDICTABLE>
    2118:	000bfc00 	andeq	pc, fp, r0, lsl #24
    211c:	0bfc0000 	bleq	fff02124 <_ebss+0xdff01da8>
    2120:	001a0000 	andseq	r0, sl, r0
    2124:	79010000 	stmdbvc	r1, {}	; <UNPREDICTABLE>
    2128:	0b1c1402 	bleq	707138 <_etext+0x7053dc>
    212c:	f800000b 			; <UNDEFINED> instruction: 0xf800000b
    2130:	f600001a 			; <UNDEFINED> instruction: 0xf600001a
    2134:	1d00001a 	stcne	0, cr0, [r0, #-104]	; 0xffffff98
    2138:	00000b18 	andeq	r0, r0, r8, lsl fp
    213c:	00001b0f 	andeq	r1, r0, pc, lsl #22
    2140:	00001b0b 	andeq	r1, r0, fp, lsl #22
    2144:	720b0000 	andvc	r0, fp, #0
    2148:	0100000b 	tsteq	r0, fp
    214c:	2c010214 	sfmcs	f0, 4, [r1], {20}
    2150:	90000000 	andls	r0, r0, r0
    2154:	6800000b 	stmdavs	r0, {r0, r1, r3}
    2158:	01000000 	mrseq	r0, (UNDEF: 0)
    215c:	000a9a9c 	muleq	sl, ip, sl
    2160:	092d0c00 	pusheq	{sl, fp}
    2164:	14010000 	strne	r0, [r1], #-0
    2168:	00542702 	subseq	r2, r4, r2, lsl #14
    216c:	1b3a0000 	blne	e82174 <_etext+0xe80418>
    2170:	1b2e0000 	blne	b82178 <_etext+0xb8041c>
    2174:	0b000000 	bleq	217c <_etext+0x420>
    2178:	00000beb 	andeq	r0, r0, fp, ror #23
    217c:	0101b801 	tsteq	r1, r1, lsl #16
    2180:	0000002c 	andeq	r0, r0, ip, lsr #32
    2184:	00000b7c 	andeq	r0, r0, ip, ror fp
    2188:	00000014 	andeq	r0, r0, r4, lsl r0
    218c:	0acb9c01 	beq	ff2e9198 <_ebss+0xdf2e8e1c>
    2190:	cf0c0000 	svcgt	0x000c0000
    2194:	0100000b 	tsteq	r0, fp
    2198:	542001b8 	strtpl	r0, [r0], #-440	; 0xfffffe48
    219c:	91000000 	mrsls	r0, (UNDEF: 0)
    21a0:	8d00001b 	stchi	0, cr0, [r0, #-108]	; 0xffffff94
    21a4:	0000001b 	andeq	r0, r0, fp, lsl r0
    21a8:	000b2711 	andeq	r2, fp, r1, lsl r7
    21ac:	01930100 	orrseq	r0, r3, r0, lsl #2
    21b0:	00005401 	andeq	r5, r0, r1, lsl #8
    21b4:	000b6400 	andeq	r6, fp, r0, lsl #8
    21b8:	00001800 	andeq	r1, r0, r0, lsl #16
    21bc:	119c0100 	orrsne	r0, ip, r0, lsl #2
    21c0:	00000839 	andeq	r0, r0, r9, lsr r8
    21c4:	01018101 	tsteq	r1, r1, lsl #2
    21c8:	00000054 	andeq	r0, r0, r4, asr r0
    21cc:	00000b4c 	andeq	r0, r0, ip, asr #22
    21d0:	00000018 	andeq	r0, r0, r8, lsl r0
    21d4:	201e9c01 	andscs	r9, lr, r1, lsl #24
    21d8:	01000008 	tsteq	r0, r8
    21dc:	54010159 	strpl	r0, [r1], #-345	; 0xfffffea7
    21e0:	01000000 	mrseq	r0, (UNDEF: 0)
    21e4:	00000b26 	andeq	r0, r0, r6, lsr #22
    21e8:	00092d1f 	andeq	r2, r9, pc, lsl sp
    21ec:	01590100 	cmpeq	r9, r0, lsl #2
    21f0:	00005428 	andeq	r5, r0, r8, lsr #8
    21f4:	08e72000 	stmiaeq	r7!, {sp}^
    21f8:	5b010000 	blpl	42200 <_etext+0x404a4>
    21fc:	00541301 	subseq	r1, r4, r1, lsl #6
    2200:	21000000 	mrscs	r0, (UNDEF: 0)
    2204:	0000098a 	andeq	r0, r0, sl, lsl #19
    2208:	0000098a 	andeq	r0, r0, sl, lsl #19
    220c:	210d3e02 	tstcs	sp, r2, lsl #28
    2210:	00000d3e 	andeq	r0, r0, lr, lsr sp
    2214:	00000d3e 	andeq	r0, r0, lr, lsr sp
    2218:	210d4d03 	tstcs	sp, r3, lsl #26
    221c:	00000fca 	andeq	r0, r0, sl, asr #31
    2220:	00000fca 	andeq	r0, r0, sl, asr #31
    2224:	210d4603 	tstcs	sp, r3, lsl #12
    2228:	0000105c 	andeq	r1, r0, ip, asr r0
    222c:	0000105c 	andeq	r1, r0, ip, asr r0
    2230:	210d4503 	tstcs	sp, r3, lsl #10
    2234:	00000ff3 	strdeq	r0, [r0], -r3
    2238:	00000ff3 	strdeq	r0, [r0], -r3
    223c:	000d4c03 	andeq	r4, sp, r3, lsl #24
    2240:	00000c82 	andeq	r0, r0, r2, lsl #25
    2244:	07590004 	ldrbeq	r0, [r9, -r4]
    2248:	01040000 	mrseq	r0, (UNDEF: 4)
    224c:	00000498 	muleq	r0, r8, r4
    2250:	000d840c 	andeq	r8, sp, ip, lsl #8
    2254:	0001ef00 	andeq	lr, r1, r0, lsl #30
    2258:	00164800 	andseq	r4, r6, r0, lsl #16
    225c:	00035800 	andeq	r5, r3, r0, lsl #16
    2260:	001c9b00 	andseq	r9, ip, r0, lsl #22
    2264:	05690200 	strbeq	r0, [r9, #-512]!	; 0xfffffe00
    2268:	30030000 	andcc	r0, r3, r0
    226c:	00003117 	andeq	r3, r0, r7, lsl r1
    2270:	08010300 	stmdaeq	r1, {r8, r9}
    2274:	000001b3 			; <UNDEFINED> instruction: 0x000001b3
    2278:	00006104 	andeq	r6, r0, r4, lsl #2
    227c:	00004e00 	andeq	r4, r0, r0, lsl #28
    2280:	00530500 	subseq	r0, r3, r0, lsl #10
    2284:	05070000 	streq	r0, [r7, #-0]
    2288:	00000053 	andeq	r0, r0, r3, asr r0
    228c:	38060001 	stmdacc	r6, {r0}
    2290:	03000000 	movweq	r0, #0
    2294:	00120704 	andseq	r0, r2, r4, lsl #14
    2298:	04030000 	streq	r0, [r3], #-0
    229c:	00000d07 	andeq	r0, r0, r7, lsl #26
    22a0:	005a0600 	subseq	r0, sl, r0, lsl #12
    22a4:	21070000 	mrscs	r0, (UNDEF: 7)
    22a8:	01000010 	tsteq	r0, r0, lsl r0
    22ac:	004e1c48 	subeq	r1, lr, r8, asr #24
    22b0:	03050000 	movweq	r0, #20480	; 0x5000
    22b4:	00001d1c 	andeq	r1, r0, ip, lsl sp
    22b8:	000f5308 	andeq	r5, pc, r8, lsl #6
    22bc:	076e0100 	strbeq	r0, [lr, -r0, lsl #2]!
    22c0:	00197401 	andseq	r7, r9, r1, lsl #8
    22c4:	00002c00 	andeq	r2, r0, r0, lsl #24
    22c8:	c39c0100 	orrsgt	r0, ip, #0, 2
    22cc:	09000000 	stmdbeq	r0, {}	; <UNPREDICTABLE>
    22d0:	000002fb 	strdeq	r0, [r0], -fp
    22d4:	20076e01 	andcs	r6, r7, r1, lsl #28
    22d8:	0000005a 	andeq	r0, r0, sl, asr r0
    22dc:	ce095001 	cdpgt	0, 0, cr5, cr9, cr1, {0}
    22e0:	0100000d 	tsteq	r0, sp
    22e4:	3136076e 	teqcc	r6, lr, ror #14
    22e8:	01000000 	mrseq	r0, (UNDEF: 0)
    22ec:	0ec90a51 			; <UNDEFINED> instruction: 0x0ec90a51
    22f0:	70010000 	andvc	r0, r1, r0
    22f4:	005a1307 	subseq	r1, sl, r7, lsl #6
    22f8:	1bb60000 	blne	fed82300 <_ebss+0xded81f84>
    22fc:	1bb20000 	blne	fec82304 <_ebss+0xdec81f88>
    2300:	08000000 	stmdaeq	r0, {}	; <UNPREDICTABLE>
    2304:	00000de7 	andeq	r0, r0, r7, ror #27
    2308:	01074701 	tsteq	r7, r1, lsl #14
    230c:	00001968 	andeq	r1, r0, r8, ror #18
    2310:	0000000a 	andeq	r0, r0, sl
    2314:	01089c01 	tsteq	r8, r1, lsl #24
    2318:	fb090000 	blx	242322 <_etext+0x2405c6>
    231c:	01000002 	tsteq	r0, r2
    2320:	5a1f0747 	bpl	7c4044 <_etext+0x7c22e8>
    2324:	01000000 	mrseq	r0, (UNDEF: 0)
    2328:	0dce0950 	vstreq.16	s1, [lr, #160]	; 0xa0	; <UNPREDICTABLE>
    232c:	47010000 	strmi	r0, [r1, -r0]
    2330:	00313507 	eorseq	r3, r1, r7, lsl #10
    2334:	51010000 	mrspl	r0, (UNDEF: 1)
    2338:	000f4c09 	andeq	r4, pc, r9, lsl #24
    233c:	07480100 	strbeq	r0, [r8, -r0, lsl #2]
    2340:	0000311f 	andeq	r3, r0, pc, lsl r1
    2344:	00520100 	subseq	r0, r2, r0, lsl #2
    2348:	000d2a08 	andeq	r2, sp, r8, lsl #20
    234c:	07240100 	streq	r0, [r4, -r0, lsl #2]!
    2350:	00195801 	andseq	r5, r9, r1, lsl #16
    2354:	00000e00 	andeq	r0, r0, r0, lsl #28
    2358:	2f9c0100 	svccs	0x009c0100
    235c:	09000001 	stmdbeq	r0, {r0}
    2360:	000002fb 	strdeq	r0, [r0], -fp
    2364:	1f072401 	svcne	0x00072401
    2368:	0000005a 	andeq	r0, r0, sl, asr r0
    236c:	08005001 	stmdaeq	r0, {r0, ip, lr}
    2370:	00000ce9 	andeq	r0, r0, r9, ror #25
    2374:	01070701 	tsteq	r7, r1, lsl #14
    2378:	00001948 	andeq	r1, r0, r8, asr #18
    237c:	0000000e 	andeq	r0, r0, lr
    2380:	01569c01 	cmpeq	r6, r1, lsl #24
    2384:	fb090000 	blx	24238e <_etext+0x240632>
    2388:	01000002 	tsteq	r0, r2
    238c:	5a1e0707 	bpl	783fb0 <_etext+0x782254>
    2390:	01000000 	mrseq	r0, (UNDEF: 0)
    2394:	b60b0050 			; <UNDEFINED> instruction: 0xb60b0050
    2398:	0100000e 	tsteq	r0, lr
    239c:	5a0106ea 	bpl	43f4c <_etext+0x421f0>
    23a0:	40000000 	andmi	r0, r0, r0
    23a4:	06000019 			; <UNDEFINED> instruction: 0x06000019
    23a8:	01000000 	mrseq	r0, (UNDEF: 0)
    23ac:	0001879c 	muleq	r1, ip, r7
    23b0:	02fb0c00 	rscseq	r0, fp, #0, 24
    23b4:	ea010000 	b	423bc <_etext+0x40660>
    23b8:	005a2206 	subseq	r2, sl, r6, lsl #4
    23bc:	1bd90000 	blne	ff6423c4 <_ebss+0xdf642048>
    23c0:	1bd50000 	blne	ff5423c8 <_ebss+0xdf54204c>
    23c4:	08000000 	stmdaeq	r0, {}	; <UNPREDICTABLE>
    23c8:	00000f93 	muleq	r0, r3, pc	; <UNPREDICTABLE>
    23cc:	0106ca01 	tsteq	r6, r1, lsl #20
    23d0:	00001938 	andeq	r1, r0, r8, lsr r9
    23d4:	00000006 	andeq	r0, r0, r6
    23d8:	01bd9c01 			; <UNDEFINED> instruction: 0x01bd9c01
    23dc:	fb090000 	blx	2423e6 <_etext+0x24068a>
    23e0:	01000002 	tsteq	r0, r2
    23e4:	5a2206ca 	bpl	883f14 <_etext+0x8821b8>
    23e8:	01000000 	mrseq	r0, (UNDEF: 0)
    23ec:	0f7b0950 	svceq	0x007b0950
    23f0:	ca010000 	bgt	423f8 <_etext+0x4069c>
    23f4:	005a3806 	subseq	r3, sl, r6, lsl #16
    23f8:	51010000 	mrspl	r0, (UNDEF: 1)
    23fc:	0fa60800 	svceq	0x00a60800
    2400:	a5010000 	strge	r0, [r1, #-0]
    2404:	19300106 	ldmdbne	r0!, {r1, r2, r8}
    2408:	00060000 	andeq	r0, r6, r0
    240c:	9c010000 	stcls	0, cr0, [r1], {-0}
    2410:	000001e4 	andeq	r0, r0, r4, ror #3
    2414:	0002fb09 	andeq	pc, r2, r9, lsl #22
    2418:	06a50100 	strteq	r0, [r5], r0, lsl #2
    241c:	00005a20 	andeq	r5, r0, r0, lsr #20
    2420:	00500100 	subseq	r0, r0, r0, lsl #2
    2424:	000d5a0b 	andeq	r5, sp, fp, lsl #20
    2428:	06890100 	streq	r0, [r9], r0, lsl #2
    242c:	00005a01 	andeq	r5, r0, r1, lsl #20
    2430:	00192800 	andseq	r2, r9, r0, lsl #16
    2434:	00000800 	andeq	r0, r0, r0, lsl #16
    2438:	159c0100 	ldrne	r0, [ip, #256]	; 0x100
    243c:	0c000002 	stceq	0, cr0, [r0], {2}
    2440:	000002fb 	strdeq	r0, [r0], -fp
    2444:	1e068901 	vmlane.f16	s16, s12, s2	; <UNPREDICTABLE>
    2448:	0000005a 	andeq	r0, r0, sl, asr r0
    244c:	00001bfe 	strdeq	r1, [r0], -lr
    2450:	00001bfa 	strdeq	r1, [r0], -sl
    2454:	0f840800 	svceq	0x00840800
    2458:	6a010000 	bvs	42460 <_etext+0x40704>
    245c:	191c0106 	ldmdbne	ip, {r1, r2, r8}
    2460:	000a0000 	andeq	r0, sl, r0
    2464:	9c010000 	stcls	0, cr0, [r1], {-0}
    2468:	00000251 	andeq	r0, r0, r1, asr r2
    246c:	0002fb09 	andeq	pc, r2, r9, lsl #22
    2470:	066a0100 	strbteq	r0, [sl], -r0, lsl #2
    2474:	00005a1e 	andeq	r5, r0, lr, lsl sl
    2478:	0c500100 	ldfeqe	f0, [r0], {-0}
    247c:	00000e6c 	andeq	r0, r0, ip, ror #28
    2480:	34066a01 	strcc	r6, [r6], #-2561	; 0xfffff5ff
    2484:	0000005a 	andeq	r0, r0, sl, asr r0
    2488:	00001c23 	andeq	r1, r0, r3, lsr #24
    248c:	00001c1f 	andeq	r1, r0, pc, lsl ip
    2490:	0e130800 	cdpeq	8, 1, cr0, cr3, cr0, {0}
    2494:	4a010000 	bmi	4249c <_etext+0x40740>
    2498:	19140106 	ldmdbne	r4, {r1, r2, r8}
    249c:	00080000 	andeq	r0, r8, r0
    24a0:	9c010000 	stcls	0, cr0, [r1], {-0}
    24a4:	0000028d 	andeq	r0, r0, sp, lsl #5
    24a8:	0002fb09 	andeq	pc, r2, r9, lsl #22
    24ac:	064a0100 	strbeq	r0, [sl], -r0, lsl #2
    24b0:	00005a1d 	andeq	r5, r0, sp, lsl sl
    24b4:	0c500100 	ldfeqe	f0, [r0], {-0}
    24b8:	00000e6c 	andeq	r0, r0, ip, ror #28
    24bc:	33064a01 	movwcc	r4, #27137	; 0x6a01
    24c0:	0000005a 	andeq	r0, r0, sl, asr r0
    24c4:	00001c48 	andeq	r1, r0, r8, asr #24
    24c8:	00001c44 	andeq	r1, r0, r4, asr #24
    24cc:	0ffd0800 	svceq	0x00fd0800
    24d0:	26010000 	strcs	r0, [r1], -r0
    24d4:	19100106 	ldmdbne	r0, {r1, r2, r8}
    24d8:	00040000 	andeq	r0, r4, r0
    24dc:	9c010000 	stcls	0, cr0, [r1], {-0}
    24e0:	000002c3 	andeq	r0, r0, r3, asr #5
    24e4:	0002fb09 	andeq	pc, r2, r9, lsl #22
    24e8:	06260100 	strteq	r0, [r6], -r0, lsl #2
    24ec:	00005a1c 	andeq	r5, r0, ip, lsl sl
    24f0:	09500100 	ldmdbeq	r0, {r8}^
    24f4:	00000e3c 	andeq	r0, r0, ip, lsr lr
    24f8:	32062601 	andcc	r2, r6, #1048576	; 0x100000
    24fc:	0000005a 	andeq	r0, r0, sl, asr r0
    2500:	0b005101 	bleq	1690c <_etext+0x14bb0>
    2504:	00000f64 	andeq	r0, r0, r4, ror #30
    2508:	0105f601 	tsteq	r5, r1, lsl #12	; <UNPREDICTABLE>
    250c:	0000005a 	andeq	r0, r0, sl, asr r0
    2510:	00001904 	andeq	r1, r0, r4, lsl #18
    2514:	0000000a 	andeq	r0, r0, sl
    2518:	03039c01 	movweq	r9, #15361	; 0x3c01
    251c:	fb0c0000 	blx	302526 <_etext+0x3007ca>
    2520:	01000002 	tsteq	r0, r2
    2524:	5a1d05f6 	bpl	743d04 <_etext+0x741fa8>
    2528:	71000000 	mrsvc	r0, (UNDEF: 0)
    252c:	6900001c 	stmdbvs	r0, {r2, r3, r4}
    2530:	0900001c 	stmdbeq	r0, {r2, r3, r4}
    2534:	0000043c 	andeq	r0, r0, ip, lsr r4
    2538:	2e05f601 	cfmadd32cs	mvax0, mvfx15, mvfx5, mvfx1
    253c:	00000025 	andeq	r0, r0, r5, lsr #32
    2540:	08005101 	stmdaeq	r0, {r0, r8, ip, lr}
    2544:	00000d3a 	andeq	r0, r0, sl, lsr sp
    2548:	0105d801 	tsteq	r5, r1, lsl #16
    254c:	000018f8 	strdeq	r1, [r0], -r8
    2550:	0000000a 	andeq	r0, r0, sl
    2554:	033f9c01 	teqeq	pc, #256	; 0x100
    2558:	fb090000 	blx	242562 <_etext+0x240806>
    255c:	01000002 	tsteq	r0, r2
    2560:	5a1e05d8 	bpl	783cc8 <_etext+0x781f6c>
    2564:	01000000 	mrseq	r0, (UNDEF: 0)
    2568:	0e3c0c50 	mrceq	12, 1, r0, cr12, cr0, {2}
    256c:	d8010000 	stmdale	r1, {}	; <UNPREDICTABLE>
    2570:	005a3405 	subseq	r3, sl, r5, lsl #8
    2574:	1caf0000 	stcne	0, cr0, [pc]	; 257c <_etext+0x820>
    2578:	1cab0000 	stcne	0, cr0, [fp]
    257c:	08000000 	stmdaeq	r0, {}	; <UNPREDICTABLE>
    2580:	00000fef 	andeq	r0, r0, pc, ror #31
    2584:	0105b901 	tsteq	r5, r1, lsl #18
    2588:	000018f0 	strdeq	r1, [r0], -r0
    258c:	00000008 	andeq	r0, r0, r8
    2590:	037b9c01 	cmneq	fp, #256	; 0x100
    2594:	fb090000 	blx	24259e <_etext+0x240842>
    2598:	01000002 	tsteq	r0, r2
    259c:	5a1d05b9 	bpl	743c88 <_etext+0x741f2c>
    25a0:	01000000 	mrseq	r0, (UNDEF: 0)
    25a4:	0e3c0c50 	mrceq	12, 1, r0, cr12, cr0, {2}
    25a8:	b9010000 	stmdblt	r1, {}	; <UNPREDICTABLE>
    25ac:	005a3305 	subseq	r3, sl, r5, lsl #6
    25b0:	1cd40000 	ldclne	0, cr0, [r4], {0}
    25b4:	1cd00000 	ldclne	0, cr0, [r0], {0}
    25b8:	08000000 	stmdaeq	r0, {}	; <UNPREDICTABLE>
    25bc:	00000fc6 	andeq	r0, r0, r6, asr #31
    25c0:	01058201 	tsteq	r5, r1, lsl #4
    25c4:	000018ac 	andeq	r1, r0, ip, lsr #17
    25c8:	00000044 	andeq	r0, r0, r4, asr #32
    25cc:	04129c01 	ldreq	r9, [r2], #-3073	; 0xfffff3ff
    25d0:	fb0c0000 	blx	3025da <_etext+0x30087e>
    25d4:	01000002 	tsteq	r0, r2
    25d8:	5a210582 	bpl	843be8 <_etext+0x841e8c>
    25dc:	fd000000 	stc2	0, cr0, [r0, #-0]
    25e0:	f500001c 			; <UNDEFINED> instruction: 0xf500001c
    25e4:	0d00001c 	stceq	0, cr0, [r0, #-112]	; 0xffffff90
    25e8:	00000fdf 	ldrdeq	r0, [r0], -pc	; <UNPREDICTABLE>
    25ec:	13058401 	movwne	r8, #21505	; 0x5401
    25f0:	0000005a 	andeq	r0, r0, sl, asr r0
    25f4:	000bf50e 	andeq	pc, fp, lr, lsl #10
    25f8:	0018b200 	andseq	fp, r8, r0, lsl #4
    25fc:	01280000 			; <UNDEFINED> instruction: 0x01280000
    2600:	8e010000 	cdphi	0, 0, cr0, cr1, cr0, {0}
    2604:	03eb0d05 	mvneq	r0, #320	; 0x140
    2608:	060f0000 	streq	r0, [pc], -r0
    260c:	3d00000c 	stccc	0, cr0, [r0, #-48]	; 0xffffffd0
    2610:	3700001d 	smladcc	r0, sp, r0, r0
    2614:	1000001d 	andne	r0, r0, sp, lsl r0
    2618:	00000128 	andeq	r0, r0, r8, lsr #2
    261c:	000c1211 	andeq	r1, ip, r1, lsl r2
    2620:	001d6f00 	andseq	r6, sp, r0, lsl #30
    2624:	001d6900 	andseq	r6, sp, r0, lsl #18
    2628:	12000000 	andne	r0, r0, #0
    262c:	000018d0 	ldrdeq	r1, [r0], -r0
    2630:	00000c55 	andeq	r0, r0, r5, asr ip
    2634:	00000400 	andeq	r0, r0, r0, lsl #8
    2638:	03500113 	cmpeq	r0, #-1073741820	; 0xc0000004
    263c:	00067491 	muleq	r6, r1, r4
    2640:	0018dc14 	andseq	sp, r8, r4, lsl ip
    2644:	000c6100 	andeq	r6, ip, r0, lsl #2
    2648:	50011300 	andpl	r1, r1, r0, lsl #6
    264c:	06747d03 	ldrbteq	r7, [r4], -r3, lsl #26
    2650:	58080000 	stmdapl	r8, {}	; <UNPREDICTABLE>
    2654:	01000010 	tsteq	r0, r0, lsl r0
    2658:	68010557 	stmdavs	r1, {r0, r1, r2, r4, r6, r8, sl}
    265c:	44000018 	strmi	r0, [r0], #-24	; 0xffffffe8
    2660:	01000000 	mrseq	r0, (UNDEF: 0)
    2664:	0004be9c 	muleq	r4, ip, lr
    2668:	02fb0c00 	rscseq	r0, fp, #0, 24
    266c:	57010000 	strpl	r0, [r1, -r0]
    2670:	005a1f05 	subseq	r1, sl, r5, lsl #30
    2674:	1da10000 	stcne	0, cr0, [r1]
    2678:	1d990000 	ldcne	0, cr0, [r9]
    267c:	220c0000 	andcs	r0, ip, #0
    2680:	01000007 	tsteq	r0, r7
    2684:	bf2e0557 	svclt	0x002e0557
    2688:	e1000004 	tst	r0, r4
    268c:	db00001d 	blle	2708 <_etext+0x9ac>
    2690:	0d00001d 	stceq	0, cr0, [r0, #-116]	; 0xffffff8c
    2694:	00000fdf 	ldrdeq	r0, [r0], -pc	; <UNPREDICTABLE>
    2698:	13055901 	movwne	r5, #22785	; 0x5901
    269c:	0000005a 	andeq	r0, r0, sl, asr r0
    26a0:	000bf50e 	andeq	pc, fp, lr, lsl #10
    26a4:	00186e00 	andseq	r6, r8, r0, lsl #28
    26a8:	01080000 	mrseq	r0, (UNDEF: 8)
    26ac:	63010000 	movwvs	r0, #4096	; 0x1000
    26b0:	04970d05 	ldreq	r0, [r7], #3333	; 0xd05
    26b4:	060f0000 	streq	r0, [pc], -r0
    26b8:	1300000c 	movwne	r0, #12
    26bc:	0d00001e 	stceq	0, cr0, [r0, #-120]	; 0xffffff88
    26c0:	1000001e 	andne	r0, r0, lr, lsl r0
    26c4:	00000108 	andeq	r0, r0, r8, lsl #2
    26c8:	000c1211 	andeq	r1, ip, r1, lsl r2
    26cc:	001e4500 	andseq	r4, lr, r0, lsl #10
    26d0:	001e3f00 	andseq	r3, lr, r0, lsl #30
    26d4:	12000000 	andne	r0, r0, #0
    26d8:	0000188c 	andeq	r1, r0, ip, lsl #17
    26dc:	00000c6d 	andeq	r0, r0, sp, ror #24
    26e0:	000004ac 	andeq	r0, r0, ip, lsr #9
    26e4:	03500113 	cmpeq	r0, #-1073741820	; 0xc0000004
    26e8:	00067491 	muleq	r6, r1, r4
    26ec:	00189814 	andseq	r9, r8, r4, lsl r8
    26f0:	000c7900 	andeq	r7, ip, r0, lsl #18
    26f4:	50011300 	andpl	r1, r1, r0, lsl #6
    26f8:	06747d03 	ldrbteq	r7, [r4], -r3, lsl #26
    26fc:	16150000 	ldrne	r0, [r5], -r0
    2700:	0004be04 	andeq	fp, r4, r4, lsl #28
    2704:	103e0b00 	eorsne	r0, lr, r0, lsl #22
    2708:	36010000 	strcc	r0, [r1], -r0
    270c:	00250105 	eoreq	r0, r5, r5, lsl #2
    2710:	18600000 	stmdane	r0!, {}^	; <UNPREDICTABLE>
    2714:	00080000 	andeq	r0, r8, r0
    2718:	9c010000 	stcls	0, cr0, [r1], {-0}
    271c:	000004f6 	strdeq	r0, [r0], -r6
    2720:	0002fb0c 	andeq	pc, r2, ip, lsl #22
    2724:	05360100 	ldreq	r0, [r6, #-256]!	; 0xffffff00
    2728:	00005a18 	andeq	r5, r0, r8, lsl sl
    272c:	001e7300 	andseq	r7, lr, r0, lsl #6
    2730:	001e6f00 	andseq	r6, lr, r0, lsl #30
    2734:	03080000 	movweq	r0, #32768	; 0x8000
    2738:	0100000d 	tsteq	r0, sp
    273c:	48010516 	stmdami	r1, {r1, r2, r4, r8, sl}
    2740:	16000018 			; <UNDEFINED> instruction: 0x16000018
    2744:	01000000 	mrseq	r0, (UNDEF: 0)
    2748:	0005329c 	muleq	r5, ip, r2
    274c:	02fb0c00 	rscseq	r0, fp, #0, 24
    2750:	16010000 	strne	r0, [r1], -r0
    2754:	005a1c05 	subseq	r1, sl, r5, lsl #24
    2758:	1e980000 	cdpne	0, 9, cr0, cr8, cr0, {0}
    275c:	1e940000 	cdpne	0, 9, cr0, cr4, cr0, {0}
    2760:	32090000 	andcc	r0, r9, #0
    2764:	01000010 	tsteq	r0, r0, lsl r0
    2768:	252d0516 	strcs	r0, [sp, #-1302]!	; 0xfffffaea
    276c:	01000000 	mrseq	r0, (UNDEF: 0)
    2770:	4c080051 	stcmi	0, cr0, [r8], {81}	; 0x51
    2774:	01000001 	tsteq	r0, r1
    2778:	380104f2 	stmdacc	r1, {r1, r4, r5, r6, r7, sl}
    277c:	0e000018 	mcreq	0, 0, r0, cr0, cr8, {0}
    2780:	01000000 	mrseq	r0, (UNDEF: 0)
    2784:	0005689c 	muleq	r5, ip, r8
    2788:	02fb0900 	rscseq	r0, fp, #0, 18
    278c:	f2010000 	vhadd.s8	d0, d1, d0
    2790:	005a1b04 	subseq	r1, sl, r4, lsl #22
    2794:	50010000 	andpl	r0, r1, r0
    2798:	000db309 	andeq	fp, sp, r9, lsl #6
    279c:	04f20100 	ldrbteq	r0, [r2], #256	; 0x100
    27a0:	00003131 	andeq	r3, r0, r1, lsr r1
    27a4:	00510100 	subseq	r0, r1, r0, lsl #2
    27a8:	000e9f0b 	andeq	r9, lr, fp, lsl #30
    27ac:	04c40100 	strbeq	r0, [r4], #256	; 0x100
    27b0:	00002501 	andeq	r2, r0, r1, lsl #10
    27b4:	00182800 	andseq	r2, r8, r0, lsl #16
    27b8:	00000e00 	andeq	r0, r0, r0, lsl #28
    27bc:	a89c0100 	ldmge	ip, {r8}
    27c0:	0c000005 	stceq	0, cr0, [r0], {5}
    27c4:	000002fb 	strdeq	r0, [r0], -fp
    27c8:	2604c401 	strcs	ip, [r4], -r1, lsl #8
    27cc:	0000005a 	andeq	r0, r0, sl, asr r0
    27d0:	00001ebc 			; <UNDEFINED> instruction: 0x00001ebc
    27d4:	00001eb8 			; <UNDEFINED> instruction: 0x00001eb8
    27d8:	000db309 	andeq	fp, sp, r9, lsl #6
    27dc:	04c40100 	strbeq	r0, [r4], #256	; 0x100
    27e0:	0000313c 	andeq	r3, r0, ip, lsr r1
    27e4:	00510100 	subseq	r0, r1, r0, lsl #2
    27e8:	0001580b 	andeq	r5, r1, fp, lsl #16
    27ec:	049a0100 	ldreq	r0, [sl], #256	; 0x100
    27f0:	0005d901 	andeq	sp, r5, r1, lsl #18
    27f4:	00181800 	andseq	r1, r8, r0, lsl #16
    27f8:	00000e00 	andeq	r0, r0, r0, lsl #28
    27fc:	d99c0100 	ldmible	ip, {r8}
    2800:	0c000005 	stceq	0, cr0, [r0], {5}
    2804:	000002fb 	strdeq	r0, [r0], -fp
    2808:	1b049a01 	blne	129014 <_etext+0x1272b8>
    280c:	0000005a 	andeq	r0, r0, sl, asr r0
    2810:	00001ee1 	andeq	r1, r0, r1, ror #29
    2814:	00001edd 	ldrdeq	r1, [r0], -sp
    2818:	05040300 	streq	r0, [r4, #-768]	; 0xfffffd00
    281c:	000005f3 	strdeq	r0, [r0], -r3
    2820:	00100a0b 	andseq	r0, r0, fp, lsl #20
    2824:	04710100 	ldrbteq	r0, [r1], #-256	; 0xffffff00
    2828:	0005d901 	andeq	sp, r5, r1, lsl #18
    282c:	00180800 	andseq	r0, r8, r0, lsl #16
    2830:	00000e00 	andeq	r0, r0, r0, lsl #28
    2834:	119c0100 	orrsne	r0, ip, r0, lsl #2
    2838:	0c000006 	stceq	0, cr0, [r0], {6}
    283c:	000002fb 	strdeq	r0, [r0], -fp
    2840:	26047101 	strcs	r7, [r4], -r1, lsl #2
    2844:	0000005a 	andeq	r0, r0, sl, asr r0
    2848:	00001f05 	andeq	r1, r0, r5, lsl #30
    284c:	00001f01 	andeq	r1, r0, r1, lsl #30
    2850:	10740b00 	rsbsne	r0, r4, r0, lsl #22
    2854:	50010000 	andpl	r0, r1, r0
    2858:	00250104 	eoreq	r0, r5, r4, lsl #2
    285c:	17fc0000 	ldrbne	r0, [ip, r0]!
    2860:	000c0000 	andeq	r0, ip, r0
    2864:	9c010000 	stcls	0, cr0, [r1], {-0}
    2868:	00000642 	andeq	r0, r0, r2, asr #12
    286c:	0002fb0c 	andeq	pc, r2, ip, lsl #22
    2870:	04500100 	ldrbeq	r0, [r0], #-256	; 0xffffff00
    2874:	00005a1e 	andeq	r5, r0, lr, lsl sl
    2878:	001f2a00 	andseq	r2, pc, r0, lsl #20
    287c:	001f2600 	andseq	r2, pc, r0, lsl #12
    2880:	070b0000 	streq	r0, [fp, -r0]
    2884:	0100000f 	tsteq	r0, pc
    2888:	25010435 	strcs	r0, [r1, #-1077]	; 0xfffffbcb
    288c:	f0000000 			; <UNDEFINED> instruction: 0xf0000000
    2890:	0c000017 	stceq	0, cr0, [r0], {23}
    2894:	01000000 	mrseq	r0, (UNDEF: 0)
    2898:	0006739c 	muleq	r6, ip, r3
    289c:	02fb0c00 	rscseq	r0, fp, #0, 24
    28a0:	35010000 	strcc	r0, [r1, #-0]
    28a4:	005a1e04 	subseq	r1, sl, r4, lsl #28
    28a8:	1f4f0000 	svcne	0x004f0000
    28ac:	1f4b0000 	svcne	0x004b0000
    28b0:	0b000000 	bleq	28b8 <_etext+0xb5c>
    28b4:	00000e5b 	andeq	r0, r0, fp, asr lr
    28b8:	01041901 	tsteq	r4, r1, lsl #18
    28bc:	0000005a 	andeq	r0, r0, sl, asr r0
    28c0:	000017e8 	andeq	r1, r0, r8, ror #15
    28c4:	00000008 	andeq	r0, r0, r8
    28c8:	06a49c01 	strteq	r9, [r4], r1, lsl #24
    28cc:	fb0c0000 	blx	3028d6 <_etext+0x300b7a>
    28d0:	01000002 	tsteq	r0, r2
    28d4:	5a200419 	bpl	803940 <_etext+0x801be4>
    28d8:	74000000 	strvc	r0, [r0], #-0
    28dc:	7000001f 	andvc	r0, r0, pc, lsl r0
    28e0:	0000001f 	andeq	r0, r0, pc, lsl r0
    28e4:	000f1608 	andeq	r1, pc, r8, lsl #12
    28e8:	03f20100 	mvnseq	r0, #0, 2
    28ec:	0017dc01 	andseq	sp, r7, r1, lsl #24
    28f0:	00000c00 	andeq	r0, r0, r0, lsl #24
    28f4:	e09c0100 	adds	r0, ip, r0, lsl #2
    28f8:	09000006 	stmdbeq	r0, {r1, r2}
    28fc:	000002fb 	strdeq	r0, [r0], -fp
    2900:	2003f201 	andcs	pc, r3, r1, lsl #4
    2904:	0000005a 	andeq	r0, r0, sl, asr r0
    2908:	d80c5001 	stmdale	ip, {r0, ip, lr}
    290c:	0100000f 	tsteq	r0, pc
    2910:	5a3603f2 	bpl	d838e0 <_etext+0xd81b84>
    2914:	99000000 	stmdbls	r0, {}	; <UNPREDICTABLE>
    2918:	9500001f 	strls	r0, [r0, #-31]	; 0xffffffe1
    291c:	0000001f 	andeq	r0, r0, pc, lsl r0
    2920:	0010830b 	andseq	r8, r0, fp, lsl #6
    2924:	03cc0100 	biceq	r0, ip, #0, 2
    2928:	00005a01 	andeq	r5, r0, r1, lsl #20
    292c:	0017d400 	andseq	sp, r7, r0, lsl #8
    2930:	00000800 	andeq	r0, r0, r0, lsl #16
    2934:	119c0100 	orrsne	r0, ip, r0, lsl #2
    2938:	0c000007 	stceq	0, cr0, [r0], {7}
    293c:	000002fb 	strdeq	r0, [r0], -fp
    2940:	2203cc01 	andcs	ip, r3, #256	; 0x100
    2944:	0000005a 	andeq	r0, r0, sl, asr r0
    2948:	00001fbe 			; <UNDEFINED> instruction: 0x00001fbe
    294c:	00001fba 			; <UNDEFINED> instruction: 0x00001fba
    2950:	0d8b0800 	stceq	8, cr0, [fp]
    2954:	a7010000 	strge	r0, [r1, -r0]
    2958:	17c80103 	strbne	r0, [r8, r3, lsl #2]
    295c:	000c0000 	andeq	r0, ip, r0
    2960:	9c010000 	stcls	0, cr0, [r1], {-0}
    2964:	0000074d 	andeq	r0, r0, sp, asr #14
    2968:	0002fb09 	andeq	pc, r2, r9, lsl #22
    296c:	03a70100 			; <UNDEFINED> instruction: 0x03a70100
    2970:	00005a22 	andeq	r5, r0, r2, lsr #20
    2974:	0c500100 	ldfeqe	f0, [r0], {-0}
    2978:	00000fd8 	ldrdeq	r0, [r0], -r8
    297c:	3803a701 	stmdacc	r3, {r0, r8, r9, sl, sp, pc}
    2980:	0000005a 	andeq	r0, r0, sl, asr r0
    2984:	00001fe3 	andeq	r1, r0, r3, ror #31
    2988:	00001fdf 	ldrdeq	r1, [r0], -pc	; <UNPREDICTABLE>
    298c:	0e8c0b00 	vdiveq.f64	d0, d12, d0
    2990:	81010000 	mrshi	r0, (UNDEF: 1)
    2994:	005a0103 	subseq	r0, sl, r3, lsl #2
    2998:	17bc0000 	ldrne	r0, [ip, r0]!
    299c:	000a0000 	andeq	r0, sl, r0
    29a0:	9c010000 	stcls	0, cr0, [r1], {-0}
    29a4:	0000077e 	andeq	r0, r0, lr, ror r7
    29a8:	0002fb0c 	andeq	pc, r2, ip, lsl #22
    29ac:	03810100 	orreq	r0, r1, #0, 2
    29b0:	00005a22 	andeq	r5, r0, r2, lsr #20
    29b4:	00200800 	eoreq	r0, r0, r0, lsl #16
    29b8:	00200400 	eoreq	r0, r0, r0, lsl #8
    29bc:	380b0000 	stmdacc	fp, {}	; <UNPREDICTABLE>
    29c0:	0100000f 	tsteq	r0, pc
    29c4:	5a010362 	bpl	43754 <_etext+0x419f8>
    29c8:	b4000000 	strlt	r0, [r0], #-0
    29cc:	08000017 	stmdaeq	r0, {r0, r1, r2, r4}
    29d0:	01000000 	mrseq	r0, (UNDEF: 0)
    29d4:	0007af9c 	muleq	r7, ip, pc	; <UNPREDICTABLE>
    29d8:	02fb0c00 	rscseq	r0, fp, #0, 24
    29dc:	62010000 	andvs	r0, r1, #0
    29e0:	005a2303 	subseq	r2, sl, r3, lsl #6
    29e4:	202d0000 	eorcs	r0, sp, r0
    29e8:	20290000 	eorcs	r0, r9, r0
    29ec:	08000000 	stmdaeq	r0, {}	; <UNPREDICTABLE>
    29f0:	00000ed0 	ldrdeq	r0, [r0], -r0	; <UNPREDICTABLE>
    29f4:	01033b01 	tsteq	r3, r1, lsl #22
    29f8:	000017a4 	andeq	r1, r0, r4, lsr #15
    29fc:	0000000e 	andeq	r0, r0, lr
    2a00:	08009c01 	stmdaeq	r0, {r0, sl, fp, ip, pc}
    2a04:	fb090000 	blx	242a0e <_etext+0x240cb2>
    2a08:	01000002 	tsteq	r0, r2
    2a0c:	5a25033b 	bpl	943700 <_etext+0x9419a4>
    2a10:	01000000 	mrseq	r0, (UNDEF: 0)
    2a14:	0df70c50 	ldcleq	12, cr0, [r7, #320]!	; 0x140
    2a18:	3b010000 	blcc	42a20 <_etext+0x40cc4>
    2a1c:	005a3b03 	subseq	r3, sl, r3, lsl #22
    2a20:	20520000 	subscs	r0, r2, r0
    2a24:	204e0000 	subcs	r0, lr, r0
    2a28:	400a0000 	andmi	r0, sl, r0
    2a2c:	01000007 	tsteq	r0, r7
    2a30:	5a13033d 	bpl	4c372c <_etext+0x4c19d0>
    2a34:	75000000 	strvc	r0, [r0, #-0]
    2a38:	73000020 	movwvc	r0, #32
    2a3c:	00000020 	andeq	r0, r0, r0, lsr #32
    2a40:	000e4708 	andeq	r4, lr, r8, lsl #14
    2a44:	03100100 	tsteq	r0, #0, 2
    2a48:	00179801 	andseq	r9, r7, r1, lsl #16
    2a4c:	00000c00 	andeq	r0, r0, r0, lsl #24
    2a50:	519c0100 	orrspl	r0, ip, r0, lsl #2
    2a54:	09000008 	stmdbeq	r0, {r3}
    2a58:	000002fb 	strdeq	r0, [r0], -fp
    2a5c:	23031001 	movwcs	r1, #12289	; 0x3001
    2a60:	0000005a 	andeq	r0, r0, sl, asr r0
    2a64:	f70c5001 			; <UNDEFINED> instruction: 0xf70c5001
    2a68:	0100000d 	tsteq	r0, sp
    2a6c:	5a390310 	bpl	e436b4 <_etext+0xe41958>
    2a70:	8c000000 	stchi	0, cr0, [r0], {-0}
    2a74:	88000020 	stmdahi	r0, {r5}
    2a78:	0a000020 	beq	2b00 <_etext+0xda4>
    2a7c:	00000740 	andeq	r0, r0, r0, asr #14
    2a80:	13031201 	movwne	r1, #12801	; 0x3201
    2a84:	0000005a 	andeq	r0, r0, sl, asr r0
    2a88:	000020b1 	strheq	r2, [r0], -r1
    2a8c:	000020ad 	andeq	r2, r0, sp, lsr #1
    2a90:	0e770800 	cdpeq	8, 7, cr0, cr7, cr0, {0}
    2a94:	ea010000 	b	42a9c <_etext+0x40d40>
    2a98:	178c0102 	strne	r0, [ip, r2, lsl #2]
    2a9c:	000a0000 	andeq	r0, sl, r0
    2aa0:	9c010000 	stcls	0, cr0, [r1], {-0}
    2aa4:	00000878 	andeq	r0, r0, r8, ror r8
    2aa8:	0002fb09 	andeq	pc, r2, r9, lsl #22
    2aac:	02ea0100 	rsceq	r0, sl, #0, 2
    2ab0:	00005a24 	andeq	r5, r0, r4, lsr #20
    2ab4:	00500100 	subseq	r0, r0, r0, lsl #2
    2ab8:	000e2808 	andeq	r2, lr, r8, lsl #16
    2abc:	02be0100 	adcseq	r0, lr, #0, 2
    2ac0:	00177401 	andseq	r7, r7, r1, lsl #8
    2ac4:	00001600 	andeq	r1, r0, r0, lsl #12
    2ac8:	b49c0100 	ldrlt	r0, [ip], #256	; 0x100
    2acc:	09000008 	stmdbeq	r0, {r3}
    2ad0:	000002fb 	strdeq	r0, [r0], -fp
    2ad4:	2302be01 	movwcs	fp, #11777	; 0x2e01
    2ad8:	0000005a 	andeq	r0, r0, sl, asr r0
    2adc:	100a5001 	andne	r5, sl, r1
    2ae0:	0100000d 	tsteq	r0, sp
    2ae4:	5a1302c0 	bpl	4c35ec <_etext+0x4c1890>
    2ae8:	d3000000 	movwle	r0, #0
    2aec:	cf000020 	svcgt	0x00000020
    2af0:	00000020 	andeq	r0, r0, r0, lsr #32
    2af4:	000ef808 	andeq	pc, lr, r8, lsl #16
    2af8:	029f0100 	addseq	r0, pc, #0, 2
    2afc:	00176801 	andseq	r6, r7, r1, lsl #16
    2b00:	00000a00 	andeq	r0, r0, r0, lsl #20
    2b04:	db9c0100 	blle	fe702f0c <_ebss+0xde702b90>
    2b08:	09000008 	stmdbeq	r0, {r3}
    2b0c:	000002fb 	strdeq	r0, [r0], -fp
    2b10:	1e029f01 	cdpne	15, 0, cr9, cr2, cr1, {0}
    2b14:	0000005a 	andeq	r0, r0, sl, asr r0
    2b18:	08005001 	stmdaeq	r0, {r0, ip, lr}
    2b1c:	00000dc0 	andeq	r0, r0, r0, asr #27
    2b20:	01027501 	tsteq	r2, r1, lsl #10
    2b24:	00001754 	andeq	r1, r0, r4, asr r7
    2b28:	00000014 	andeq	r0, r0, r4, lsl r0
    2b2c:	09119c01 	ldmdbeq	r1, {r0, sl, fp, ip, pc}
    2b30:	fb090000 	blx	242b3a <_etext+0x240dde>
    2b34:	01000002 	tsteq	r0, r2
    2b38:	5a1d0275 	bpl	743514 <_etext+0x7417b8>
    2b3c:	01000000 	mrseq	r0, (UNDEF: 0)
    2b40:	0da90950 			; <UNDEFINED> instruction: 0x0da90950
    2b44:	75010000 	strvc	r0, [r1, #-0]
    2b48:	00252e02 	eoreq	r2, r5, r2, lsl #28
    2b4c:	51010000 	mrspl	r0, (UNDEF: 1)
    2b50:	0d740800 	ldcleq	8, cr0, [r4, #-0]
    2b54:	50010000 	andpl	r0, r1, r0
    2b58:	17480102 	strbne	r0, [r8, -r2, lsl #2]
    2b5c:	000a0000 	andeq	r0, sl, r0
    2b60:	9c010000 	stcls	0, cr0, [r1], {-0}
    2b64:	00000938 	andeq	r0, r0, r8, lsr r9
    2b68:	0002fb09 	andeq	pc, r2, r9, lsl #22
    2b6c:	02500100 	subseq	r0, r0, #0, 2
    2b70:	00005a1f 	andeq	r5, r0, pc, lsl sl
    2b74:	00500100 	subseq	r0, r0, r0, lsl #2
    2b78:	000fb708 	andeq	fp, pc, r8, lsl #14
    2b7c:	02370100 	eorseq	r0, r7, #0, 2
    2b80:	00173c01 	andseq	r3, r7, r1, lsl #24
    2b84:	00000a00 	andeq	r0, r0, r0, lsl #20
    2b88:	5f9c0100 	svcpl	0x009c0100
    2b8c:	09000009 	stmdbeq	r0, {r0, r3}
    2b90:	000002fb 	strdeq	r0, [r0], -fp
    2b94:	1e023701 	cdpne	7, 0, cr3, cr2, cr1, {0}
    2b98:	0000005a 	andeq	r0, r0, sl, asr r0
    2b9c:	17005001 	strne	r5, [r0, -r1]
    2ba0:	00001068 	andeq	r1, r0, r8, rrx
    2ba4:	01021101 	tsteq	r2, r1, lsl #2
    2ba8:	00097b01 	andeq	r7, r9, r1, lsl #22
    2bac:	02fb1800 	rscseq	r1, fp, #0, 16
    2bb0:	11010000 	mrsne	r0, (UNDEF: 1)
    2bb4:	005a1b02 	subseq	r1, sl, r2, lsl #22
    2bb8:	17000000 	strne	r0, [r0, -r0]
    2bbc:	00000cf8 	strdeq	r0, [r0], -r8
    2bc0:	0101f101 	tsteq	r1, r1, lsl #2	; <UNPREDICTABLE>
    2bc4:	00099701 	andeq	r9, r9, r1, lsl #14
    2bc8:	02fb1800 	rscseq	r1, fp, #0, 16
    2bcc:	f1010000 	setend	le
    2bd0:	005a1a01 	subseq	r1, sl, r1, lsl #20
    2bd4:	08000000 	stmdaeq	r0, {}	; <UNPREDICTABLE>
    2bd8:	00000d16 	andeq	r0, r0, r6, lsl sp
    2bdc:	0101bf01 	tsteq	r1, r1, lsl #30
    2be0:	000016dc 	ldrdeq	r1, [r0], -ip
    2be4:	00000028 	andeq	r0, r0, r8, lsr #32
    2be8:	0a219c01 	beq	869bf4 <_etext+0x867e98>
    2bec:	fb090000 	blx	242bf6 <_etext+0x240e9a>
    2bf0:	01000002 	tsteq	r0, r2
    2bf4:	5a2301bf 	bpl	8c32f8 <_etext+0x8c159c>
    2bf8:	01000000 	mrseq	r0, (UNDEF: 0)
    2bfc:	0eee0c50 	mcreq	12, 7, r0, cr14, cr0, {2}
    2c00:	bf010000 	svclt	0x00010000
    2c04:	005a3901 	subseq	r3, sl, r1, lsl #18
    2c08:	20f60000 	rscscs	r0, r6, r0
    2c0c:	20f20000 	rscscs	r0, r2, r0
    2c10:	e60c0000 	str	r0, [ip], -r0
    2c14:	0100000e 	tsteq	r0, lr
    2c18:	212401c0 	smlawtcs	r4, r0, r1, r0
    2c1c:	1b00000a 	blne	2c4c <_etext+0xef0>
    2c20:	17000021 	strne	r0, [r0, -r1, lsr #32]
    2c24:	09000021 	stmdbeq	r0, {r0, r5}
    2c28:	00000fe5 	andeq	r0, r0, r5, ror #31
    2c2c:	3c01c001 	stccc	0, cr12, [r1], {1}
    2c30:	00000a21 	andeq	r0, r0, r1, lsr #20
    2c34:	df0a5301 	svcle	0x000a5301
    2c38:	0100000f 	tsteq	r0, pc
    2c3c:	5a1301c2 	bpl	4c334c <_etext+0x4c15f0>
    2c40:	3e000000 	cdpcc	0, 0, cr0, cr0, cr0, {0}
    2c44:	3c000021 	stccc	0, cr0, [r0], {33}	; 0x21
    2c48:	0a000021 	beq	2cd4 <_etext+0xf78>
    2c4c:	00000e21 	andeq	r0, r0, r1, lsr #28
    2c50:	1a01c201 	bne	7345c <_etext+0x71700>
    2c54:	0000005a 	andeq	r0, r0, sl, asr r0
    2c58:	00002153 	andeq	r2, r0, r3, asr r1
    2c5c:	00002151 	andeq	r2, r0, r1, asr r1
    2c60:	5a041600 	bpl	108468 <_etext+0x10670c>
    2c64:	08000000 	stmdaeq	r0, {}	; <UNPREDICTABLE>
    2c68:	00000132 	andeq	r0, r0, r2, lsr r1
    2c6c:	01015801 	tsteq	r1, r1, lsl #16
    2c70:	00001674 	andeq	r1, r0, r4, ror r6
    2c74:	00000068 	andeq	r0, r0, r8, rrx
    2c78:	0ae69c01 	beq	ff9a9c84 <_ebss+0xdf9a9908>
    2c7c:	fb090000 	blx	242c86 <_etext+0x240f2a>
    2c80:	01000002 	tsteq	r0, r2
    2c84:	5a230158 	bpl	8c31ec <_etext+0x8c1490>
    2c88:	01000000 	mrseq	r0, (UNDEF: 0)
    2c8c:	0eee0c50 	mcreq	12, 7, r0, cr14, cr0, {2}
    2c90:	58010000 	stmdapl	r1, {}	; <UNPREDICTABLE>
    2c94:	005a3901 	subseq	r3, sl, r1, lsl #18
    2c98:	216a0000 	cmncs	sl, r0
    2c9c:	21660000 	cmncs	r6, r0
    2ca0:	e70c0000 	str	r0, [ip, -r0]
    2ca4:	0100000e 	tsteq	r0, lr
    2ca8:	5a230159 	bpl	8c3214 <_etext+0x8c14b8>
    2cac:	91000000 	mrsls	r0, (UNDEF: 0)
    2cb0:	8b000021 	blhi	2d3c <_etext+0xfe0>
    2cb4:	0c000021 	stceq	0, cr0, [r0], {33}	; 0x21
    2cb8:	00000fe6 	andeq	r0, r0, r6, ror #31
    2cbc:	39015901 	stmdbcc	r1, {r0, r8, fp, ip, lr}
    2cc0:	0000005a 	andeq	r0, r0, sl, asr r0
    2cc4:	000021c1 	andeq	r2, r0, r1, asr #3
    2cc8:	000021bd 			; <UNDEFINED> instruction: 0x000021bd
    2ccc:	000dba0a 	andeq	fp, sp, sl, lsl #20
    2cd0:	015b0100 	cmpeq	fp, r0, lsl #2
    2cd4:	00005a13 	andeq	r5, r0, r3, lsl sl
    2cd8:	0021e400 	eoreq	lr, r1, r0, lsl #8
    2cdc:	0021e200 	eoreq	lr, r1, r0, lsl #4
    2ce0:	095f0e00 	ldmdbeq	pc, {r9, sl, fp}^	; <UNPREDICTABLE>
    2ce4:	16740000 	ldrbtne	r0, [r4], -r0
    2ce8:	d8060000 	stmdale	r6, {}	; <UNPREDICTABLE>
    2cec:	01000000 	mrseq	r0, (UNDEF: 0)
    2cf0:	c5050167 	strgt	r0, [r5, #-359]	; 0xfffffe99
    2cf4:	0f00000a 	svceq	0x0000000a
    2cf8:	0000096d 	andeq	r0, r0, sp, ror #18
    2cfc:	000021fd 	strdeq	r2, [r0], -sp
    2d00:	000021fb 	strdeq	r2, [r0], -fp
    2d04:	097b1900 	ldmdbeq	fp!, {r8, fp, ip}^
    2d08:	16c40000 	strbne	r0, [r4], r0
    2d0c:	f0010000 			; <UNDEFINED> instruction: 0xf0010000
    2d10:	01000000 	mrseq	r0, (UNDEF: 0)
    2d14:	0f05019a 	svceq	0x0005019a
    2d18:	00000989 	andeq	r0, r0, r9, lsl #19
    2d1c:	00002212 	andeq	r2, r0, r2, lsl r2
    2d20:	00002210 	andeq	r2, r0, r0, lsl r2
    2d24:	49080000 	stmdbmi	r8, {}	; <UNPREDICTABLE>
    2d28:	0100000d 	tsteq	r0, sp
    2d2c:	64010118 	strvs	r0, [r1], #-280	; 0xfffffee8
    2d30:	10000016 	andne	r0, r0, r6, lsl r0
    2d34:	01000000 	mrseq	r0, (UNDEF: 0)
    2d38:	000b469c 	muleq	fp, ip, r6
    2d3c:	02fb0c00 	rscseq	r0, fp, #0, 24
    2d40:	18010000 	stmdane	r1, {}	; <UNPREDICTABLE>
    2d44:	005a2001 	subseq	r2, sl, r1
    2d48:	22290000 	eorcs	r0, r9, #0
    2d4c:	22250000 	eorcs	r0, r5, #0
    2d50:	9e090000 	cdpls	0, 0, cr0, cr9, cr0, {0}
    2d54:	0100000d 	tsteq	r0, sp
    2d58:	21370118 	teqcs	r7, r8, lsl r1
    2d5c:	0100000a 	tsteq	r0, sl
    2d60:	0d690951 			; <UNDEFINED> instruction: 0x0d690951
    2d64:	19010000 	stmdbne	r1, {}	; <UNPREDICTABLE>
    2d68:	0a212101 	beq	84b174 <_etext+0x849418>
    2d6c:	52010000 	andpl	r0, r1, #0
    2d70:	0007400a 	andeq	r4, r7, sl
    2d74:	011b0100 	tsteq	fp, r0, lsl #2
    2d78:	00005a13 	andeq	r5, r0, r3, lsl sl
    2d7c:	00224c00 	eoreq	r4, r2, r0, lsl #24
    2d80:	00224a00 	eoreq	r4, r2, r0, lsl #20
    2d84:	471a0000 	ldrmi	r0, [sl, -r0]
    2d88:	01000010 	tsteq	r0, r0, lsl r0
    2d8c:	165c01ed 	ldrbne	r0, [ip], -sp, ror #3
    2d90:	00060000 	andeq	r0, r6, r0
    2d94:	9c010000 	stcls	0, cr0, [r1], {-0}
    2d98:	00000b8d 	andeq	r0, r0, sp, lsl #23
    2d9c:	0002fb1b 	andeq	pc, r2, fp, lsl fp	; <UNPREDICTABLE>
    2da0:	20ed0100 	rsccs	r0, sp, r0, lsl #2
    2da4:	0000005a 	andeq	r0, r0, sl, asr r0
    2da8:	9f1b5001 	svcls	0x001b5001
    2dac:	0100000d 	tsteq	r0, sp
    2db0:	005a36ed 	subseq	r3, sl, sp, ror #13
    2db4:	51010000 	mrspl	r0, (UNDEF: 1)
    2db8:	000d6a1c 	andeq	r6, sp, ip, lsl sl
    2dbc:	20ee0100 	rsccs	r0, lr, r0, lsl #2
    2dc0:	0000005a 	andeq	r0, r0, sl, asr r0
    2dc4:	00002263 	andeq	r2, r0, r3, ror #4
    2dc8:	0000225f 	andeq	r2, r0, pc, asr r2
    2dcc:	0dd51d00 	ldcleq	13, cr1, [r5]
    2dd0:	cc010000 	stcgt	0, cr0, [r1], {-0}
    2dd4:	00005a01 	andeq	r5, r0, r1, lsl #20
    2dd8:	00165400 	andseq	r5, r6, r0, lsl #8
    2ddc:	00000800 	andeq	r0, r0, r0, lsl #16
    2de0:	bc9c0100 	ldflts	f0, [ip], {0}
    2de4:	1c00000b 	stcne	0, cr0, [r0], {11}
    2de8:	000002fb 	strdeq	r0, [r0], -fp
    2dec:	5a21cc01 	bpl	875df8 <_etext+0x87409c>
    2df0:	88000000 	stmdahi	r0, {}	; <UNPREDICTABLE>
    2df4:	84000022 	strhi	r0, [r0], #-34	; 0xffffffde
    2df8:	00000022 	andeq	r0, r0, r2, lsr #32
    2dfc:	000e011a 	andeq	r0, lr, sl, lsl r1
    2e00:	01a90100 			; <UNDEFINED> instruction: 0x01a90100
    2e04:	00001648 	andeq	r1, r0, r8, asr #12
    2e08:	0000000c 	andeq	r0, r0, ip
    2e0c:	0bf59c01 	bleq	ffd69e18 <_ebss+0xdfd69a9c>
    2e10:	fb1b0000 	blx	6c2e1a <_etext+0x6c10be>
    2e14:	01000002 	tsteq	r0, r2
    2e18:	005a21a9 	subseq	r2, sl, r9, lsr #3
    2e1c:	50010000 	andpl	r0, r1, r0
    2e20:	000f721c 	andeq	r7, pc, ip, lsl r2	; <UNPREDICTABLE>
    2e24:	37a90100 	strcc	r0, [r9, r0, lsl #2]!
    2e28:	0000005a 	andeq	r0, r0, sl, asr r0
    2e2c:	000022ad 	andeq	r2, r0, sp, lsr #5
    2e30:	000022a9 	andeq	r2, r0, r9, lsr #5
    2e34:	0f271e00 	svceq	0x00271e00
    2e38:	7a010000 	bvc	42e40 <_etext+0x410e4>
    2e3c:	0005d901 	andeq	sp, r5, r1, lsl #18
    2e40:	0c1f0100 	ldfeqs	f0, [pc], {-0}
    2e44:	fb1f0000 	blx	7c2e4e <_etext+0x7c10f2>
    2e48:	01000002 	tsteq	r0, r2
    2e4c:	005a207a 	subseq	r2, sl, sl, ror r0
    2e50:	1c200000 	stcne	0, cr0, [r0], #-0
    2e54:	01000007 	tsteq	r0, r7
    2e58:	005a137c 	subseq	r1, sl, ip, ror r3
    2e5c:	21000000 	mrscs	r0, (UNDEF: 0)
    2e60:	0000097b 	andeq	r0, r0, fp, ror r9
    2e64:	00001704 	andeq	r1, r0, r4, lsl #14
    2e68:	00000016 	andeq	r0, r0, r6, lsl r0
    2e6c:	0c3a9c01 	ldceq	12, cr9, [sl], #-4
    2e70:	89220000 	stmdbhi	r2!, {}	; <UNPREDICTABLE>
    2e74:	01000009 	tsteq	r0, r9
    2e78:	5f210050 	svcpl	0x00210050
    2e7c:	1c000009 	stcne	0, cr0, [r0], {9}
    2e80:	20000017 	andcs	r0, r0, r7, lsl r0
    2e84:	01000000 	mrseq	r0, (UNDEF: 0)
    2e88:	000c559c 	muleq	ip, ip, r5
    2e8c:	096d2200 	stmdbeq	sp!, {r9, sp}^
    2e90:	50010000 	andpl	r0, r1, r0
    2e94:	0d3e2300 	ldceq	3, cr2, [lr, #-0]
    2e98:	0d3e0000 	ldceq	0, cr0, [lr, #-0]
    2e9c:	4d020000 	stcmi	0, cr0, [r2, #-0]
    2ea0:	0fca230d 	svceq	0x00ca230d
    2ea4:	0fca0000 	svceq	0x00ca0000
    2ea8:	46020000 	strmi	r0, [r2], -r0
    2eac:	105c230d 	subsne	r2, ip, sp, lsl #6
    2eb0:	105c0000 	subsne	r0, ip, r0
    2eb4:	45020000 	strmi	r0, [r2, #-0]
    2eb8:	0ff3230d 	svceq	0x00f3230d
    2ebc:	0ff30000 	svceq	0x00f30000
    2ec0:	4c020000 	stcmi	0, cr0, [r2], {-0}
    2ec4:	011d000d 	tsteq	sp, sp
    2ec8:	00040000 	andeq	r0, r4, r0
    2ecc:	00000997 	muleq	r0, r7, r9
    2ed0:	04980104 	ldreq	r0, [r8], #260	; 0x104
    2ed4:	ae0c0000 	cdpge	0, 0, cr0, cr12, cr0, {0}
    2ed8:	ef000010 	svc	0x00000010
    2edc:	a0000001 	andge	r0, r0, r1
    2ee0:	2a000019 	bcs	2f4c <_etext+0x11f0>
    2ee4:	c1000000 	mrsgt	r0, (UNDEF: 0)
    2ee8:	02000023 	andeq	r0, r0, #35	; 0x23
    2eec:	00000782 	andeq	r0, r0, r2, lsl #15
    2ef0:	01018501 	tsteq	r1, r1, lsl #10
    2ef4:	00000056 	andeq	r0, r0, r6, asr r0
    2ef8:	000019c4 	andeq	r1, r0, r4, asr #19
    2efc:	00000006 	andeq	r0, r0, r6
    2f00:	00569c01 	subseq	r9, r6, r1, lsl #24
    2f04:	b0030000 	andlt	r0, r3, r0
    2f08:	01000007 	tsteq	r0, r7
    2f0c:	56130187 	ldrpl	r0, [r3], -r7, lsl #3
    2f10:	d0000000 	andle	r0, r0, r0
    2f14:	ce000022 	cdpgt	0, 0, cr0, cr0, cr2, {1}
    2f18:	00000022 	andeq	r0, r0, r2, lsr #32
    2f1c:	0d070404 	cfstrseq	mvf0, [r7, #-16]
    2f20:	05000000 	streq	r0, [r0, #-0]
    2f24:	00000790 	muleq	r0, r0, r7
    2f28:	01015401 	tsteq	r1, r1, lsl #8
    2f2c:	000019bc 			; <UNDEFINED> instruction: 0x000019bc
    2f30:	00000006 	andeq	r0, r0, r6
    2f34:	00849c01 	addeq	r9, r4, r1, lsl #24
    2f38:	96060000 	strls	r0, [r6], -r0
    2f3c:	01000010 	tsteq	r0, r0, lsl r0
    2f40:	561d0154 			; <UNDEFINED> instruction: 0x561d0154
    2f44:	01000000 	mrseq	r0, (UNDEF: 0)
    2f48:	8a070050 	bhi	1c3090 <_etext+0x1c1334>
    2f4c:	01000009 	tsteq	r0, r9
    2f50:	b8010124 	stmdalt	r1, {r2, r5, r8}
    2f54:	04000019 	streq	r0, [r0], #-25	; 0xffffffe7
    2f58:	01000000 	mrseq	r0, (UNDEF: 0)
    2f5c:	07a7089c 			; <UNDEFINED> instruction: 0x07a7089c
    2f60:	d3010000 	movwle	r0, #4096	; 0x1000
    2f64:	00005601 	andeq	r5, r0, r1, lsl #12
    2f68:	0019b000 	andseq	fp, r9, r0
    2f6c:	00000800 	andeq	r0, r0, r0, lsl #16
    2f70:	c69c0100 	ldrgt	r0, [ip], r0, lsl #2
    2f74:	09000000 	stmdbeq	r0, {}	; <UNPREDICTABLE>
    2f78:	000007b0 			; <UNDEFINED> instruction: 0x000007b0
    2f7c:	5613d501 	ldrpl	sp, [r3], -r1, lsl #10
    2f80:	e5000000 	str	r0, [r0, #-0]
    2f84:	e3000022 	movw	r0, #34	; 0x22
    2f88:	00000022 	andeq	r0, r0, r2, lsr #32
    2f8c:	0010a308 	andseq	sl, r0, r8, lsl #6
    2f90:	01850100 	orreq	r0, r5, r0, lsl #2
    2f94:	00000056 	andeq	r0, r0, r6, asr r0
    2f98:	000019a8 	andeq	r1, r0, r8, lsr #19
    2f9c:	00000006 	andeq	r0, r0, r6
    2fa0:	00f59c01 	rscseq	r9, r5, r1, lsl #24
    2fa4:	b0090000 	andlt	r0, r9, r0
    2fa8:	01000007 	tsteq	r0, r7
    2fac:	00561387 	subseq	r1, r6, r7, lsl #7
    2fb0:	22fa0000 	rscscs	r0, sl, #0
    2fb4:	22f80000 	rscscs	r0, r8, #0
    2fb8:	0a000000 	beq	2fc0 <_etext+0x1264>
    2fbc:	0000079e 	muleq	r0, lr, r7
    2fc0:	56013301 	strpl	r3, [r1], -r1, lsl #6
    2fc4:	a0000000 	andge	r0, r0, r0
    2fc8:	08000019 	stmdaeq	r0, {r0, r3, r4}
    2fcc:	01000000 	mrseq	r0, (UNDEF: 0)
    2fd0:	07b0099c 			; <UNDEFINED> instruction: 0x07b0099c
    2fd4:	35010000 	strcc	r0, [r1, #-0]
    2fd8:	00005613 	andeq	r5, r0, r3, lsl r6
    2fdc:	00230f00 	eoreq	r0, r3, r0, lsl #30
    2fe0:	00230d00 	eoreq	r0, r3, r0, lsl #26
    2fe4:	Address 0x00002fe4 is out of bounds.


Disassembly of section .debug_abbrev:

00000000 <.debug_abbrev>:
   0:	25011101 	strcs	r1, [r1, #-257]	; 0xfffffeff
   4:	030b130e 	movweq	r1, #45838	; 0xb30e
   8:	110e1b0e 	tstne	lr, lr, lsl #22
   c:	10061201 	andne	r1, r6, r1, lsl #4
  10:	02000017 	andeq	r0, r0, #23
  14:	13490101 	movtne	r0, #37121	; 0x9101
  18:	00001301 	andeq	r1, r0, r1, lsl #6
  1c:	49002103 	stmdbmi	r0, {r0, r1, r8, sp}
  20:	000b2f13 	andeq	r2, fp, r3, lsl pc
  24:	00240400 	eoreq	r0, r4, r0, lsl #8
  28:	0b3e0b0b 	bleq	f82c5c <_etext+0xf80f00>
  2c:	00000e03 	andeq	r0, r0, r3, lsl #28
  30:	03003405 	movweq	r3, #1029	; 0x405
  34:	3b0b3a0e 	blcc	2ce874 <_etext+0x2ccb18>
  38:	490b390b 	stmdbmi	fp, {r0, r1, r3, r8, fp, ip, sp}
  3c:	00180213 	andseq	r0, r8, r3, lsl r2
  40:	00260600 	eoreq	r0, r6, r0, lsl #12
  44:	00001349 	andeq	r1, r0, r9, asr #6
  48:	0b000f07 	bleq	3c6c <_etext+0x1f10>
  4c:	0013490b 	andseq	r4, r3, fp, lsl #18
  50:	00150800 	andseq	r0, r5, r0, lsl #16
  54:	00001927 	andeq	r1, r0, r7, lsr #18
  58:	03003409 	movweq	r3, #1033	; 0x409
  5c:	3b0b3a0e 	blcc	2ce89c <_etext+0x2ccb40>
  60:	490b390b 	stmdbmi	fp, {r0, r1, r3, r8, fp, ip, sp}
  64:	02193f13 	andseq	r3, r9, #19, 30	; 0x4c
  68:	0a000018 	beq	d0 <g_pfnVectors+0xd0>
  6c:	0e030034 	mcreq	0, 0, r0, cr3, cr4, {1}
  70:	0b3b0b3a 	bleq	ec2d60 <_etext+0xec1004>
  74:	13490b39 	movtne	r0, #39737	; 0x9b39
  78:	193c193f 	ldmdbne	ip!, {r0, r1, r2, r3, r4, r5, r8, fp, ip}
  7c:	2e0b0000 	cdpcs	0, 0, cr0, cr11, cr0, {0}
  80:	3a0e0300 	bcc	380c88 <_etext+0x37ef2c>
  84:	390b3b0b 	stmdbcc	fp, {r0, r1, r3, r8, r9, fp, ip, sp}
  88:	1119270b 	tstne	r9, fp, lsl #14
  8c:	40061201 	andmi	r1, r6, r1, lsl #4
  90:	19429718 	stmdbne	r2, {r3, r4, r8, r9, sl, ip, pc}^
  94:	2e0c0000 	cdpcs	0, 0, cr0, cr12, cr0, {0}
  98:	03193f01 	tsteq	r9, #1, 30
  9c:	3b0b3a0e 	blcc	2ce8dc <_etext+0x2ccb80>
  a0:	270b390b 	strcs	r3, [fp, -fp, lsl #18]
  a4:	12011119 	andne	r1, r1, #1073741830	; 0x40000006
  a8:	97184006 	ldrls	r4, [r8, -r6]
  ac:	13011942 	movwne	r1, #6466	; 0x1942
  b0:	340d0000 	strcc	r0, [sp], #-0
  b4:	3a0e0300 	bcc	380cbc <_etext+0x37ef60>
  b8:	390b3b0b 	stmdbcc	fp, {r0, r1, r3, r8, r9, fp, ip, sp}
  bc:	0213490b 	andseq	r4, r3, #180224	; 0x2c000
  c0:	1742b717 	smlaldne	fp, r2, r7, r7
  c4:	340e0000 	strcc	r0, [lr], #-0
  c8:	3a0e0300 	bcc	380cd0 <_etext+0x37ef74>
  cc:	390b3b0b 	stmdbcc	fp, {r0, r1, r3, r8, r9, fp, ip, sp}
  d0:	0013490b 	andseq	r4, r3, fp, lsl #18
  d4:	82890f00 	addhi	r0, r9, #0, 30
  d8:	01110001 	tsteq	r1, r1
  dc:	00001331 	andeq	r1, r0, r1, lsr r3
  e0:	01828910 	orreq	r8, r2, r0, lsl r9
  e4:	95011100 	strls	r1, [r1, #-256]	; 0xffffff00
  e8:	13311942 	teqne	r1, #1081344	; 0x108000
  ec:	2e110000 	cdpcs	0, 1, cr0, cr1, cr0, {0}
  f0:	3c193f00 	ldccc	15, cr3, [r9], {-0}
  f4:	030e6e19 	movweq	r6, #60953	; 0xee19
  f8:	3b0b3a0e 	blcc	2ce938 <_etext+0x2ccbdc>
  fc:	000b390b 	andeq	r3, fp, fp, lsl #18
 100:	11010000 	mrsne	r0, (UNDEF: 1)
 104:	130e2501 	movwne	r2, #58625	; 0xe501
 108:	1b0e030b 	blne	380d3c <_etext+0x37efe0>
 10c:	1117550e 	tstne	r7, lr, lsl #10
 110:	00171001 	andseq	r1, r7, r1
 114:	00240200 	eoreq	r0, r4, r0, lsl #4
 118:	0b3e0b0b 	bleq	f82d4c <_etext+0xf80ff0>
 11c:	00000e03 	andeq	r0, r0, r3, lsl #28
 120:	0b002403 	bleq	9134 <_etext+0x73d8>
 124:	030b3e0b 	movweq	r3, #48651	; 0xbe0b
 128:	04000008 	streq	r0, [r0], #-8
 12c:	193f012e 	ldmdbne	pc!, {r1, r2, r3, r5, r8}	; <UNPREDICTABLE>
 130:	0b3a0e03 	bleq	e83944 <_etext+0xe81be8>
 134:	0b390b3b 	bleq	e42e28 <_etext+0xe410cc>
 138:	13491927 	movtne	r1, #39207	; 0x9927
 13c:	06120111 			; <UNDEFINED> instruction: 0x06120111
 140:	42971840 	addsmi	r1, r7, #64, 16	; 0x400000
 144:	00130119 	andseq	r0, r3, r9, lsl r1
 148:	00340500 	eorseq	r0, r4, r0, lsl #10
 14c:	0b3a0e03 	bleq	e83960 <_etext+0xe81c04>
 150:	0b390b3b 	bleq	e42e44 <_etext+0xe410e8>
 154:	17021349 	strne	r1, [r2, -r9, asr #6]
 158:	001742b7 			; <UNDEFINED> instruction: 0x001742b7
 15c:	00340600 	eorseq	r0, r4, r0, lsl #12
 160:	0b3a0803 	bleq	e82174 <_etext+0xe80418>
 164:	0b390b3b 	bleq	e42e58 <_etext+0xe410fc>
 168:	17021349 	strne	r1, [r2, -r9, asr #6]
 16c:	001742b7 			; <UNDEFINED> instruction: 0x001742b7
 170:	82890700 	addhi	r0, r9, #0, 14
 174:	01110101 	tsteq	r1, r1, lsl #2
 178:	13011331 	movwne	r1, #4913	; 0x1331
 17c:	8a080000 	bhi	200184 <_etext+0x1fe428>
 180:	02000182 	andeq	r0, r0, #-2147483616	; 0x80000020
 184:	18429118 	stmdane	r2, {r3, r4, r8, ip, pc}^
 188:	89090000 	stmdbhi	r9, {}	; <UNPREDICTABLE>
 18c:	11000182 	smlabbne	r0, r2, r1, r0
 190:	00133101 	andseq	r3, r3, r1, lsl #2
 194:	82890a00 	addhi	r0, r9, #0, 20
 198:	01110101 	tsteq	r1, r1, lsl #2
 19c:	00001331 	andeq	r1, r0, r1, lsr r3
 1a0:	3f002e0b 	svccc	0x00002e0b
 1a4:	3a0e0319 	bcc	380e10 <_etext+0x37f0b4>
 1a8:	390b3b0b 	stmdbcc	fp, {r0, r1, r3, r8, r9, fp, ip, sp}
 1ac:	4919270b 	ldmdbmi	r9, {r0, r1, r3, r8, r9, sl, sp}
 1b0:	12011113 	andne	r1, r1, #-1073741820	; 0xc0000004
 1b4:	97184006 	ldrls	r4, [r8, -r6]
 1b8:	00001942 	andeq	r1, r0, r2, asr #18
 1bc:	3f002e0c 	svccc	0x00002e0c
 1c0:	6e193c19 	mrcvs	12, 0, r3, cr9, cr9, {0}
 1c4:	3a0e030e 	bcc	380e04 <_etext+0x37f0a8>
 1c8:	39053b0b 	stmdbcc	r5, {r0, r1, r3, r8, r9, fp, ip, sp}
 1cc:	0d00000b 	stceq	0, cr0, [r0, #-44]	; 0xffffffd4
 1d0:	193f002e 	ldmdbne	pc!, {r1, r2, r3, r5}	; <UNPREDICTABLE>
 1d4:	0e6e193c 			; <UNDEFINED> instruction: 0x0e6e193c
 1d8:	0b3a0e03 	bleq	e839ec <_etext+0xe81c90>
 1dc:	0b390b3b 	bleq	e42ed0 <_etext+0xe41174>
 1e0:	01000000 	mrseq	r0, (UNDEF: 0)
 1e4:	0e250111 	mcreq	1, 1, r0, cr5, cr1, {0}
 1e8:	0e030b13 	vmoveq.32	d3[0], r0
 1ec:	01110e1b 	tsteq	r1, fp, lsl lr
 1f0:	17100612 			; <UNDEFINED> instruction: 0x17100612
 1f4:	16020000 	strne	r0, [r2], -r0
 1f8:	3a0e0300 	bcc	380e00 <_etext+0x37f0a4>
 1fc:	390b3b0b 	stmdbcc	fp, {r0, r1, r3, r8, r9, fp, ip, sp}
 200:	0013490b 	andseq	r4, r3, fp, lsl #18
 204:	00240300 	eoreq	r0, r4, r0, lsl #6
 208:	0b3e0b0b 	bleq	f82e3c <_etext+0xf810e0>
 20c:	00000e03 	andeq	r0, r0, r3, lsl #28
 210:	49010104 	stmdbmi	r1, {r2, r8}
 214:	00130113 	andseq	r0, r3, r3, lsl r1
 218:	00210500 	eoreq	r0, r1, r0, lsl #10
 21c:	0b2f1349 	bleq	bc4f48 <_etext+0xbc31ec>
 220:	26060000 	strcs	r0, [r6], -r0
 224:	00134900 	andseq	r4, r3, r0, lsl #18
 228:	00340700 	eorseq	r0, r4, r0, lsl #14
 22c:	0b3a0e03 	bleq	e83a40 <_etext+0xe81ce4>
 230:	0b390b3b 	bleq	e42f24 <_etext+0xe411c8>
 234:	18021349 	stmdane	r2, {r0, r3, r6, r8, r9, ip}
 238:	2e080000 	cdpcs	0, 0, cr0, cr8, cr0, {0}
 23c:	03193f01 	tsteq	r9, #1, 30
 240:	3b0b3a0e 	blcc	2cea80 <_etext+0x2ccd24>
 244:	270b3905 	strcs	r3, [fp, -r5, lsl #18]
 248:	12011119 	andne	r1, r1, #1073741830	; 0x40000006
 24c:	97184006 	ldrls	r4, [r8, -r6]
 250:	13011942 	movwne	r1, #6466	; 0x1942
 254:	05090000 	streq	r0, [r9, #-0]
 258:	3a0e0300 	bcc	380e60 <_etext+0x37f104>
 25c:	39053b0b 	stmdbcc	r5, {r0, r1, r3, r8, r9, fp, ip, sp}
 260:	0213490b 	andseq	r4, r3, #180224	; 0x2c000
 264:	0a000018 	beq	2cc <GPIOGetIntNumber+0x9c>
 268:	0e030005 	cdpeq	0, 0, cr0, cr3, cr5, {0}
 26c:	053b0b3a 	ldreq	r0, [fp, #-2874]!	; 0xfffff4c6
 270:	13490b39 	movtne	r0, #39737	; 0x9b39
 274:	42b71702 	adcsmi	r1, r7, #524288	; 0x80000
 278:	0b000017 	bleq	2dc <GPIOGetIntNumber+0xac>
 27c:	0e030034 	mcreq	0, 0, r0, cr3, cr4, {1}
 280:	053b0b3a 	ldreq	r0, [fp, #-2874]!	; 0xfffff4c6
 284:	13490b39 	movtne	r0, #39737	; 0x9b39
 288:	42b71702 	adcsmi	r1, r7, #524288	; 0x80000
 28c:	0c000017 	stceq	0, cr0, [r0], {23}
 290:	193f012e 	ldmdbne	pc!, {r1, r2, r3, r5, r8}	; <UNPREDICTABLE>
 294:	0b3a0e03 	bleq	e83aa8 <_etext+0xe81d4c>
 298:	0b39053b 	bleq	e4178c <_etext+0xe3fa30>
 29c:	13011927 	movwne	r1, #6439	; 0x1927
 2a0:	050d0000 	streq	r0, [sp, #-0]
 2a4:	3a0e0300 	bcc	380eac <_etext+0x37f150>
 2a8:	39053b0b 	stmdbcc	r5, {r0, r1, r3, r8, r9, fp, ip, sp}
 2ac:	0013490b 	andseq	r4, r3, fp, lsl #18
 2b0:	011d0e00 	tsteq	sp, r0, lsl #28
 2b4:	01521331 	cmpeq	r2, r1, lsr r3
 2b8:	550b42b8 	strpl	r4, [fp, #-696]	; 0xfffffd48
 2bc:	590b5817 	stmdbpl	fp, {r0, r1, r2, r4, fp, ip, lr}
 2c0:	010b5705 	tsteq	fp, r5, lsl #14
 2c4:	0f000013 	svceq	0x00000013
 2c8:	13310005 	teqne	r1, #5
 2cc:	42b71702 	adcsmi	r1, r7, #524288	; 0x80000
 2d0:	10000017 	andne	r0, r0, r7, lsl r0
 2d4:	01018289 	smlabbeq	r1, r9, r2, r8
 2d8:	42950111 	addsmi	r0, r5, #1073741828	; 0x40000004
 2dc:	00133119 	andseq	r3, r3, r9, lsl r1
 2e0:	828a1100 	addhi	r1, sl, #0, 2
 2e4:	18020001 	stmdane	r2, {r0}
 2e8:	00184291 	mulseq	r8, r1, r2
 2ec:	82891200 	addhi	r1, r9, #0, 4
 2f0:	01110101 	tsteq	r1, r1, lsl #2
 2f4:	31194295 			; <UNDEFINED> instruction: 0x31194295
 2f8:	00130113 	andseq	r0, r3, r3, lsl r1
 2fc:	011d1300 	tsteq	sp, r0, lsl #6
 300:	01521331 	cmpeq	r2, r1, lsr r3
 304:	110b42b8 			; <UNDEFINED> instruction: 0x110b42b8
 308:	58061201 	stmdapl	r6, {r0, r9, ip}
 30c:	5705590b 	strpl	r5, [r5, -fp, lsl #18]
 310:	0013010b 	andseq	r0, r3, fp, lsl #2
 314:	82891400 	addhi	r1, r9, #0, 8
 318:	01110101 	tsteq	r1, r1, lsl #2
 31c:	00001331 	andeq	r1, r0, r1, lsr r3
 320:	3f012e15 	svccc	0x00012e15
 324:	3a0e0319 	bcc	380f90 <_etext+0x37f234>
 328:	39053b0b 	stmdbcc	r5, {r0, r1, r3, r8, r9, fp, ip, sp}
 32c:	4919270b 	ldmdbmi	r9, {r0, r1, r3, r8, r9, sl, sp}
 330:	12011113 	andne	r1, r1, #-1073741820	; 0xc0000004
 334:	97184006 	ldrls	r4, [r8, -r6]
 338:	13011942 	movwne	r1, #6466	; 0x1942
 33c:	89160000 	ldmdbhi	r6, {}	; <UNPREDICTABLE>
 340:	11010182 	smlabbne	r1, r2, r1, r0
 344:	01133101 	tsteq	r3, r1, lsl #2
 348:	17000013 	smladne	r0, r3, r0, r0
 34c:	00018289 	andeq	r8, r1, r9, lsl #5
 350:	42950111 	addsmi	r0, r5, #1073741828	; 0x40000004
 354:	00133119 	andseq	r3, r3, r9, lsl r1
 358:	00151800 	andseq	r1, r5, r0, lsl #16
 35c:	00001927 	andeq	r1, r0, r7, lsr #18
 360:	0b000f19 	bleq	3fcc <_etext+0x2270>
 364:	0013490b 	andseq	r4, r3, fp, lsl #18
 368:	012e1a00 			; <UNDEFINED> instruction: 0x012e1a00
 36c:	0e03193f 			; <UNDEFINED> instruction: 0x0e03193f
 370:	053b0b3a 	ldreq	r0, [fp, #-2874]!	; 0xfffff4c6
 374:	19270b39 	stmdbne	r7!, {r0, r3, r4, r5, r8, r9, fp}
 378:	13010b20 	movwne	r0, #6944	; 0x1b20
 37c:	2e1b0000 	cdpcs	0, 1, cr0, cr11, cr0, {0}
 380:	3a0e0301 	bcc	380f8c <_etext+0x37f230>
 384:	390b3b0b 	stmdbcc	fp, {r0, r1, r3, r8, r9, fp, ip, sp}
 388:	4919270b 	ldmdbmi	r9, {r0, r1, r3, r8, r9, sl, sp}
 38c:	12011113 	andne	r1, r1, #-1073741820	; 0xc0000004
 390:	97184006 	ldrls	r4, [r8, -r6]
 394:	13011942 	movwne	r1, #6466	; 0x1942
 398:	051c0000 	ldreq	r0, [ip, #-0]
 39c:	3a0e0300 	bcc	380fa4 <_etext+0x37f248>
 3a0:	390b3b0b 	stmdbcc	fp, {r0, r1, r3, r8, r9, fp, ip, sp}
 3a4:	0213490b 	andseq	r4, r3, #180224	; 0x2c000
 3a8:	1742b717 	smlaldne	fp, r2, r7, r7
 3ac:	341d0000 	ldrcc	r0, [sp], #-0
 3b0:	3a0e0300 	bcc	380fb8 <_etext+0x37f25c>
 3b4:	390b3b0b 	stmdbcc	fp, {r0, r1, r3, r8, r9, fp, ip, sp}
 3b8:	0013490b 	andseq	r4, r3, fp, lsl #18
 3bc:	012e1e00 			; <UNDEFINED> instruction: 0x012e1e00
 3c0:	01111331 	tsteq	r1, r1, lsr r3
 3c4:	18400612 	stmdane	r0, {r1, r4, r9, sl}^
 3c8:	01194297 			; <UNDEFINED> instruction: 0x01194297
 3cc:	1f000013 	svcne	0x00000013
 3d0:	193f002e 	ldmdbne	pc!, {r1, r2, r3, r5}	; <UNPREDICTABLE>
 3d4:	0e6e193c 			; <UNDEFINED> instruction: 0x0e6e193c
 3d8:	0b3a0e03 	bleq	e83bec <_etext+0xe81e90>
 3dc:	0b390b3b 	bleq	e430d0 <_etext+0xe41374>
 3e0:	01000000 	mrseq	r0, (UNDEF: 0)
 3e4:	0e250111 	mcreq	1, 1, r0, cr5, cr1, {0}
 3e8:	0e030b13 	vmoveq.32	d3[0], r0
 3ec:	01110e1b 	tsteq	r1, fp, lsl lr
 3f0:	17100612 			; <UNDEFINED> instruction: 0x17100612
 3f4:	16020000 	strne	r0, [r2], -r0
 3f8:	3a0e0300 	bcc	381000 <_etext+0x37f2a4>
 3fc:	390b3b0b 	stmdbcc	fp, {r0, r1, r3, r8, r9, fp, ip, sp}
 400:	0013490b 	andseq	r4, r3, fp, lsl #18
 404:	00240300 	eoreq	r0, r4, r0, lsl #6
 408:	0b3e0b0b 	bleq	f8303c <_etext+0xf812e0>
 40c:	00000e03 	andeq	r0, r0, r3, lsl #28
 410:	49010104 	stmdbmi	r1, {r2, r8}
 414:	00130113 	andseq	r0, r3, r3, lsl r1
 418:	00210500 	eoreq	r0, r1, r0, lsl #10
 41c:	0b2f1349 	bleq	bc5148 <_etext+0xbc33ec>
 420:	26060000 	strcs	r0, [r6], -r0
 424:	00134900 	andseq	r4, r3, r0, lsl #18
 428:	00340700 	eorseq	r0, r4, r0, lsl #14
 42c:	0b3a0e03 	bleq	e83c40 <_etext+0xe81ee4>
 430:	0b390b3b 	bleq	e43124 <_etext+0xe413c8>
 434:	18021349 	stmdane	r2, {r0, r3, r6, r8, r9, ip}
 438:	0f080000 	svceq	0x00080000
 43c:	490b0b00 	stmdbmi	fp, {r8, r9, fp}
 440:	09000013 	stmdbeq	r0, {r0, r1, r4}
 444:	19270015 	stmdbne	r7!, {r0, r2, r4}
 448:	340a0000 	strcc	r0, [sl], #-0
 44c:	3a0e0300 	bcc	381054 <_etext+0x37f2f8>
 450:	390b3b0b 	stmdbcc	fp, {r0, r1, r3, r8, r9, fp, ip, sp}
 454:	8813490b 	ldmdahi	r3, {r0, r1, r3, r8, fp, lr}
 458:	18020501 	stmdane	r2, {r0, r8, sl}
 45c:	2e0b0000 	cdpcs	0, 0, cr0, cr11, cr0, {0}
 460:	03193f01 	tsteq	r9, #1, 30
 464:	3b0b3a0e 	blcc	2ceca4 <_etext+0x2ccf48>
 468:	270b3905 	strcs	r3, [fp, -r5, lsl #18]
 46c:	11134919 	tstne	r3, r9, lsl r9
 470:	40061201 	andmi	r1, r6, r1, lsl #4
 474:	19429718 	stmdbne	r2, {r3, r4, r8, r9, sl, ip, pc}^
 478:	00001301 	andeq	r1, r0, r1, lsl #6
 47c:	0182890c 	orreq	r8, r2, ip, lsl #18
 480:	95011100 	strls	r1, [r1, #-256]	; 0xffffff00
 484:	13311942 	teqne	r1, #1081344	; 0x108000
 488:	2e0d0000 	cdpcs	0, 0, cr0, cr13, cr0, {0}
 48c:	03193f01 	tsteq	r9, #1, 30
 490:	3b0b3a0e 	blcc	2cecd0 <_etext+0x2ccf74>
 494:	270b3905 	strcs	r3, [fp, -r5, lsl #18]
 498:	12011119 	andne	r1, r1, #1073741830	; 0x40000006
 49c:	97184006 	ldrls	r4, [r8, -r6]
 4a0:	13011942 	movwne	r1, #6466	; 0x1942
 4a4:	050e0000 	streq	r0, [lr, #-0]
 4a8:	3a0e0300 	bcc	3810b0 <_etext+0x37f354>
 4ac:	39053b0b 	stmdbcc	r5, {r0, r1, r3, r8, r9, fp, ip, sp}
 4b0:	0213490b 	andseq	r4, r3, #180224	; 0x2c000
 4b4:	1742b717 	smlaldne	fp, r2, r7, r7
 4b8:	890f0000 	stmdbhi	pc, {}	; <UNPREDICTABLE>
 4bc:	11010182 	smlabbne	r1, r2, r1, r0
 4c0:	19429501 	stmdbne	r2, {r0, r8, sl, ip, pc}^
 4c4:	00001331 	andeq	r1, r0, r1, lsr r3
 4c8:	01828a10 	orreq	r8, r2, r0, lsl sl
 4cc:	91180200 	tstls	r8, r0, lsl #4
 4d0:	00001842 	andeq	r1, r0, r2, asr #16
 4d4:	03003411 	movweq	r3, #1041	; 0x411
 4d8:	3b0b3a0e 	blcc	2ced18 <_etext+0x2ccfbc>
 4dc:	490b3905 	stmdbmi	fp, {r0, r2, r8, fp, ip, sp}
 4e0:	b7170213 			; <UNDEFINED> instruction: 0xb7170213
 4e4:	00001742 	andeq	r1, r0, r2, asr #14
 4e8:	03000512 	movweq	r0, #1298	; 0x512
 4ec:	3b0b3a0e 	blcc	2ced2c <_etext+0x2ccfd0>
 4f0:	490b3905 	stmdbmi	fp, {r0, r2, r8, fp, ip, sp}
 4f4:	00180213 	andseq	r0, r8, r3, lsl r2
 4f8:	012e1300 			; <UNDEFINED> instruction: 0x012e1300
 4fc:	0e03193f 			; <UNDEFINED> instruction: 0x0e03193f
 500:	0b3b0b3a 	bleq	ec31f0 <_etext+0xec1494>
 504:	19270b39 	stmdbne	r7!, {r0, r3, r4, r5, r8, r9, fp}
 508:	01111349 	tsteq	r1, r9, asr #6
 50c:	18400612 	stmdane	r0, {r1, r4, r9, sl}^
 510:	01194297 			; <UNDEFINED> instruction: 0x01194297
 514:	14000013 	strne	r0, [r0], #-19	; 0xffffffed
 518:	00018289 	andeq	r8, r1, r9, lsl #5
 51c:	13310111 	teqne	r1, #1073741828	; 0x40000004
 520:	2e150000 	cdpcs	0, 1, cr0, cr5, cr0, {0}
 524:	3a0e0300 	bcc	38112c <_etext+0x37f3d0>
 528:	390b3b0b 	stmdbcc	fp, {r0, r1, r3, r8, r9, fp, ip, sp}
 52c:	1119270b 	tstne	r9, fp, lsl #14
 530:	40061201 	andmi	r1, r6, r1, lsl #4
 534:	19429718 	stmdbne	r2, {r3, r4, r8, r9, sl, ip, pc}^
 538:	2e160000 	cdpcs	0, 1, cr0, cr6, cr0, {0}
 53c:	3c193f00 	ldccc	15, cr3, [r9], {-0}
 540:	030e6e19 	movweq	r6, #60953	; 0xee19
 544:	3b0b3a0e 	blcc	2ced84 <_etext+0x2cd028>
 548:	000b390b 	andeq	r3, fp, fp, lsl #18
 54c:	11010000 	mrsne	r0, (UNDEF: 1)
 550:	130e2501 	movwne	r2, #58625	; 0xe501
 554:	1b0e030b 	blne	381188 <_etext+0x37f42c>
 558:	1201110e 	andne	r1, r1, #-2147483645	; 0x80000003
 55c:	00171006 	andseq	r1, r7, r6
 560:	00240200 	eoreq	r0, r4, r0, lsl #4
 564:	0b3e0b0b 	bleq	f83198 <_etext+0xf8143c>
 568:	00000e03 	andeq	r0, r0, r3, lsl #28
 56c:	03001603 	movweq	r1, #1539	; 0x603
 570:	3b0b3a0e 	blcc	2cedb0 <_etext+0x2cd054>
 574:	490b390b 	stmdbmi	fp, {r0, r1, r3, r8, fp, ip, sp}
 578:	04000013 	streq	r0, [r0], #-19	; 0xffffffed
 57c:	13490101 	movtne	r0, #37121	; 0x9101
 580:	00001301 	andeq	r1, r0, r1, lsl #6
 584:	49002105 	stmdbmi	r0, {r0, r2, r8, sp}
 588:	000b2f13 	andeq	r2, fp, r3, lsl pc
 58c:	00260600 	eoreq	r0, r6, r0, lsl #12
 590:	00001349 	andeq	r1, r0, r9, asr #6
 594:	49003507 	stmdbmi	r0, {r0, r1, r2, r8, sl, ip, sp}
 598:	08000013 	stmdaeq	r0, {r0, r1, r4}
 59c:	0e030034 	mcreq	0, 0, r0, cr3, cr4, {1}
 5a0:	0b3b0b3a 	bleq	ec3290 <_etext+0xec1534>
 5a4:	13490b39 	movtne	r0, #39737	; 0x9b39
 5a8:	00001802 	andeq	r1, r0, r2, lsl #16
 5ac:	03003409 	movweq	r3, #1033	; 0x409
 5b0:	3b0b3a0e 	blcc	2cedf0 <_etext+0x2cd094>
 5b4:	490b3905 	stmdbmi	fp, {r0, r2, r8, fp, ip, sp}
 5b8:	00180213 	andseq	r0, r8, r3, lsl r2
 5bc:	00340a00 	eorseq	r0, r4, r0, lsl #20
 5c0:	0b3a0e03 	bleq	e83dd4 <_etext+0xe82078>
 5c4:	0b39053b 	bleq	e41ab8 <_etext+0xe3fd5c>
 5c8:	193f1349 	ldmdbne	pc!, {r0, r3, r6, r8, r9, ip}	; <UNPREDICTABLE>
 5cc:	00001802 	andeq	r1, r0, r2, lsl #16
 5d0:	3f012e0b 	svccc	0x00012e0b
 5d4:	3a0e0319 	bcc	381240 <_etext+0x37f4e4>
 5d8:	39053b0b 	stmdbcc	r5, {r0, r1, r3, r8, r9, fp, ip, sp}
 5dc:	4919270b 	ldmdbmi	r9, {r0, r1, r3, r8, r9, sl, sp}
 5e0:	12011113 	andne	r1, r1, #-1073741820	; 0xc0000004
 5e4:	97184006 	ldrls	r4, [r8, -r6]
 5e8:	13011942 	movwne	r1, #6466	; 0x1942
 5ec:	050c0000 	streq	r0, [ip, #-0]
 5f0:	3a0e0300 	bcc	3811f8 <_etext+0x37f49c>
 5f4:	39053b0b 	stmdbcc	r5, {r0, r1, r3, r8, r9, fp, ip, sp}
 5f8:	0213490b 	andseq	r4, r3, #180224	; 0x2c000
 5fc:	1742b717 	smlaldne	fp, r2, r7, r7
 600:	340d0000 	strcc	r0, [sp], #-0
 604:	3a0e0300 	bcc	38120c <_etext+0x37f4b0>
 608:	39053b0b 	stmdbcc	r5, {r0, r1, r3, r8, r9, fp, ip, sp}
 60c:	0213490b 	andseq	r4, r3, #180224	; 0x2c000
 610:	1742b717 	smlaldne	fp, r2, r7, r7
 614:	2e0e0000 	cdpcs	0, 0, cr0, cr14, cr0, {0}
 618:	03193f00 	tsteq	r9, #0, 30
 61c:	3b0b3a0e 	blcc	2cee5c <_etext+0x2cd100>
 620:	270b3905 	strcs	r3, [fp, -r5, lsl #18]
 624:	12011119 	andne	r1, r1, #1073741830	; 0x40000006
 628:	97184006 	ldrls	r4, [r8, -r6]
 62c:	00001942 	andeq	r1, r0, r2, asr #18
 630:	3f012e0f 	svccc	0x00012e0f
 634:	3a0e0319 	bcc	3812a0 <_etext+0x37f544>
 638:	39053b0b 	stmdbcc	r5, {r0, r1, r3, r8, r9, fp, ip, sp}
 63c:	1119270b 	tstne	r9, fp, lsl #14
 640:	40061201 	andmi	r1, r6, r1, lsl #4
 644:	19429718 	stmdbne	r2, {r3, r4, r8, r9, sl, ip, pc}^
 648:	00001301 	andeq	r1, r0, r1, lsl #6
 64c:	03000510 	movweq	r0, #1296	; 0x510
 650:	3b0b3a0e 	blcc	2cee90 <_etext+0x2cd134>
 654:	490b3905 	stmdbmi	fp, {r0, r2, r8, fp, ip, sp}
 658:	00180213 	andseq	r0, r8, r3, lsl r2
 65c:	002e1100 	eoreq	r1, lr, r0, lsl #2
 660:	0e03193f 			; <UNDEFINED> instruction: 0x0e03193f
 664:	053b0b3a 	ldreq	r0, [fp, #-2874]!	; 0xfffff4c6
 668:	19270b39 	stmdbne	r7!, {r0, r3, r4, r5, r8, r9, fp}
 66c:	01111349 	tsteq	r1, r9, asr #6
 670:	18400612 	stmdane	r0, {r1, r4, r9, sl}^
 674:	00194297 	mulseq	r9, r7, r2
 678:	82891200 	addhi	r1, r9, #0, 4
 67c:	01110101 	tsteq	r1, r1, lsl #2
 680:	13011331 	movwne	r1, #4913	; 0x1331
 684:	8a130000 	bhi	4c068c <_etext+0x4be930>
 688:	02000182 	andeq	r0, r0, #-2147483616	; 0x80000020
 68c:	18429118 	stmdane	r2, {r3, r4, r8, ip, pc}^
 690:	89140000 	ldmdbhi	r4, {}	; <UNPREDICTABLE>
 694:	11010182 	smlabbne	r1, r2, r1, r0
 698:	19429501 	stmdbne	r2, {r0, r8, sl, ip, pc}^
 69c:	13011331 	movwne	r1, #4913	; 0x1331
 6a0:	89150000 	ldmdbhi	r5, {}	; <UNPREDICTABLE>
 6a4:	11010182 	smlabbne	r1, r2, r1, r0
 6a8:	00133101 	andseq	r3, r3, r1, lsl #2
 6ac:	82891600 	addhi	r1, r9, #0, 12
 6b0:	01110001 	tsteq	r1, r1
 6b4:	00001331 	andeq	r1, r0, r1, lsr r3
 6b8:	01828917 	orreq	r8, r2, r7, lsl r9
 6bc:	95011100 	strls	r1, [r1, #-256]	; 0xffffff00
 6c0:	13311942 	teqne	r1, #1081344	; 0x108000
 6c4:	89180000 	ldmdbhi	r8, {}	; <UNPREDICTABLE>
 6c8:	11010182 	smlabbne	r1, r2, r1, r0
 6cc:	19429501 	stmdbne	r2, {r0, r8, sl, ip, pc}^
 6d0:	00001331 	andeq	r1, r0, r1, lsr r3
 6d4:	27001519 	smladcs	r0, r9, r5, r1
 6d8:	1a000019 	bne	744 <GPIOPinTypeI2CSCL+0x34>
 6dc:	0b0b000f 	bleq	2c0720 <_etext+0x2be9c4>
 6e0:	00001349 	andeq	r1, r0, r9, asr #6
 6e4:	31011d1b 	tstcc	r1, fp, lsl sp
 6e8:	b8015213 	stmdalt	r1, {r0, r1, r4, r9, ip, lr}
 6ec:	01110b42 	tsteq	r1, r2, asr #22
 6f0:	0b580612 	bleq	1601f40 <_etext+0x16001e4>
 6f4:	0b570559 	bleq	15c1c60 <_etext+0x15bff04>
 6f8:	051c0000 	ldreq	r0, [ip, #-0]
 6fc:	02133100 	andseq	r3, r3, #0, 2
 700:	1742b717 	smlaldne	fp, r2, r7, r7
 704:	341d0000 	ldrcc	r0, [sp], #-0
 708:	02133100 	andseq	r3, r3, #0, 2
 70c:	1742b717 	smlaldne	fp, r2, r7, r7
 710:	2e1e0000 	cdpcs	0, 1, cr0, cr14, cr0, {0}
 714:	3a0e0301 	bcc	381320 <_etext+0x37f5c4>
 718:	39053b0b 	stmdbcc	r5, {r0, r1, r3, r8, r9, fp, ip, sp}
 71c:	4919270b 	ldmdbmi	r9, {r0, r1, r3, r8, r9, sl, sp}
 720:	010b2013 	tsteq	fp, r3, lsl r0
 724:	1f000013 	svcne	0x00000013
 728:	0e030005 	cdpeq	0, 0, cr0, cr3, cr5, {0}
 72c:	053b0b3a 	ldreq	r0, [fp, #-2874]!	; 0xfffff4c6
 730:	13490b39 	movtne	r0, #39737	; 0x9b39
 734:	34200000 	strtcc	r0, [r0], #-0
 738:	3a0e0300 	bcc	381340 <_etext+0x37f5e4>
 73c:	39053b0b 	stmdbcc	r5, {r0, r1, r3, r8, r9, fp, ip, sp}
 740:	0013490b 	andseq	r4, r3, fp, lsl #18
 744:	002e2100 	eoreq	r2, lr, r0, lsl #2
 748:	193c193f 	ldmdbne	ip!, {r0, r1, r2, r3, r4, r5, r8, fp, ip}
 74c:	0e030e6e 	cdpeq	14, 0, cr0, cr3, cr14, {3}
 750:	0b3b0b3a 	bleq	ec3440 <_etext+0xec16e4>
 754:	00000b39 	andeq	r0, r0, r9, lsr fp
 758:	01110100 	tsteq	r1, r0, lsl #2
 75c:	0b130e25 	bleq	4c3ff8 <_etext+0x4c229c>
 760:	0e1b0e03 	cdpeq	14, 1, cr0, cr11, cr3, {0}
 764:	06120111 			; <UNDEFINED> instruction: 0x06120111
 768:	00001710 	andeq	r1, r0, r0, lsl r7
 76c:	03001602 	movweq	r1, #1538	; 0x602
 770:	3b0b3a0e 	blcc	2cefb0 <_etext+0x2cd254>
 774:	490b390b 	stmdbmi	fp, {r0, r1, r3, r8, fp, ip, sp}
 778:	03000013 	movweq	r0, #19
 77c:	0b0b0024 	bleq	2c0814 <_etext+0x2beab8>
 780:	0e030b3e 	vmoveq.16	d3[0], r0
 784:	01040000 	mrseq	r0, (UNDEF: 4)
 788:	01134901 	tsteq	r3, r1, lsl #18
 78c:	05000013 	streq	r0, [r0, #-19]	; 0xffffffed
 790:	13490021 	movtne	r0, #36897	; 0x9021
 794:	00000b2f 	andeq	r0, r0, pc, lsr #22
 798:	49002606 	stmdbmi	r0, {r1, r2, r9, sl, sp}
 79c:	07000013 	smladeq	r0, r3, r0, r0
 7a0:	0e030034 	mcreq	0, 0, r0, cr3, cr4, {1}
 7a4:	0b3b0b3a 	bleq	ec3494 <_etext+0xec1738>
 7a8:	13490b39 	movtne	r0, #39737	; 0x9b39
 7ac:	00001802 	andeq	r1, r0, r2, lsl #16
 7b0:	3f012e08 	svccc	0x00012e08
 7b4:	3a0e0319 	bcc	381420 <_etext+0x37f6c4>
 7b8:	39053b0b 	stmdbcc	r5, {r0, r1, r3, r8, r9, fp, ip, sp}
 7bc:	1119270b 	tstne	r9, fp, lsl #14
 7c0:	40061201 	andmi	r1, r6, r1, lsl #4
 7c4:	19429718 	stmdbne	r2, {r3, r4, r8, r9, sl, ip, pc}^
 7c8:	00001301 	andeq	r1, r0, r1, lsl #6
 7cc:	03000509 	movweq	r0, #1289	; 0x509
 7d0:	3b0b3a0e 	blcc	2cf010 <_etext+0x2cd2b4>
 7d4:	490b3905 	stmdbmi	fp, {r0, r2, r8, fp, ip, sp}
 7d8:	00180213 	andseq	r0, r8, r3, lsl r2
 7dc:	00340a00 	eorseq	r0, r4, r0, lsl #20
 7e0:	0b3a0e03 	bleq	e83ff4 <_etext+0xe82298>
 7e4:	0b39053b 	bleq	e41cd8 <_etext+0xe3ff7c>
 7e8:	17021349 	strne	r1, [r2, -r9, asr #6]
 7ec:	001742b7 			; <UNDEFINED> instruction: 0x001742b7
 7f0:	012e0b00 			; <UNDEFINED> instruction: 0x012e0b00
 7f4:	0e03193f 			; <UNDEFINED> instruction: 0x0e03193f
 7f8:	053b0b3a 	ldreq	r0, [fp, #-2874]!	; 0xfffff4c6
 7fc:	19270b39 	stmdbne	r7!, {r0, r3, r4, r5, r8, r9, fp}
 800:	01111349 	tsteq	r1, r9, asr #6
 804:	18400612 	stmdane	r0, {r1, r4, r9, sl}^
 808:	01194297 			; <UNDEFINED> instruction: 0x01194297
 80c:	0c000013 	stceq	0, cr0, [r0], {19}
 810:	0e030005 	cdpeq	0, 0, cr0, cr3, cr5, {0}
 814:	053b0b3a 	ldreq	r0, [fp, #-2874]!	; 0xfffff4c6
 818:	13490b39 	movtne	r0, #39737	; 0x9b39
 81c:	42b71702 	adcsmi	r1, r7, #524288	; 0x80000
 820:	0d000017 	stceq	0, cr0, [r0, #-92]	; 0xffffffa4
 824:	0e030034 	mcreq	0, 0, r0, cr3, cr4, {1}
 828:	053b0b3a 	ldreq	r0, [fp, #-2874]!	; 0xfffff4c6
 82c:	13490b39 	movtne	r0, #39737	; 0x9b39
 830:	1d0e0000 	stcne	0, cr0, [lr, #-0]
 834:	52133101 	andspl	r3, r3, #1073741824	; 0x40000000
 838:	0b42b801 	bleq	10ae844 <_etext+0x10acae8>
 83c:	0b581755 	bleq	1606598 <_etext+0x160483c>
 840:	0b570559 	bleq	15c1dac <_etext+0x15c0050>
 844:	00001301 	andeq	r1, r0, r1, lsl #6
 848:	3100050f 	tstcc	r0, pc, lsl #10
 84c:	b7170213 			; <UNDEFINED> instruction: 0xb7170213
 850:	00001742 	andeq	r1, r0, r2, asr #14
 854:	55010b10 	strpl	r0, [r1, #-2832]	; 0xfffff4f0
 858:	11000017 	tstne	r0, r7, lsl r0
 85c:	13310034 	teqne	r1, #52	; 0x34
 860:	42b71702 	adcsmi	r1, r7, #524288	; 0x80000
 864:	12000017 	andne	r0, r0, #23
 868:	01018289 	smlabbeq	r1, r9, r2, r8
 86c:	13310111 	teqne	r1, #1073741828	; 0x40000004
 870:	00001301 	andeq	r1, r0, r1, lsl #6
 874:	01828a13 	orreq	r8, r2, r3, lsl sl
 878:	91180200 	tstls	r8, r0, lsl #4
 87c:	00001842 	andeq	r1, r0, r2, asr #16
 880:	01828914 	orreq	r8, r2, r4, lsl r9
 884:	95011101 	strls	r1, [r1, #-257]	; 0xfffffeff
 888:	13311942 	teqne	r1, #1081344	; 0x108000
 88c:	15150000 	ldrne	r0, [r5, #-0]
 890:	00192700 	andseq	r2, r9, r0, lsl #14
 894:	000f1600 	andeq	r1, pc, r0, lsl #12
 898:	13490b0b 	movtne	r0, #39691	; 0x9b0b
 89c:	2e170000 	cdpcs	0, 1, cr0, cr7, cr0, {0}
 8a0:	03193f01 	tsteq	r9, #1, 30
 8a4:	3b0b3a0e 	blcc	2cf0e4 <_etext+0x2cd388>
 8a8:	270b3905 	strcs	r3, [fp, -r5, lsl #18]
 8ac:	010b2019 	tsteq	fp, r9, lsl r0
 8b0:	18000013 	stmdane	r0, {r0, r1, r4}
 8b4:	0e030005 	cdpeq	0, 0, cr0, cr3, cr5, {0}
 8b8:	053b0b3a 	ldreq	r0, [fp, #-2874]!	; 0xfffff4c6
 8bc:	13490b39 	movtne	r0, #39737	; 0x9b39
 8c0:	1d190000 	ldcne	0, cr0, [r9, #-0]
 8c4:	52133101 	andspl	r3, r3, #1073741824	; 0x40000000
 8c8:	0b42b801 	bleq	10ae8d4 <_etext+0x10acb78>
 8cc:	0b581755 	bleq	1606628 <_etext+0x16048cc>
 8d0:	0b570559 	bleq	15c1e3c <_etext+0x15c00e0>
 8d4:	2e1a0000 	cdpcs	0, 1, cr0, cr10, cr0, {0}
 8d8:	03193f01 	tsteq	r9, #1, 30
 8dc:	3b0b3a0e 	blcc	2cf11c <_etext+0x2cd3c0>
 8e0:	270b390b 	strcs	r3, [fp, -fp, lsl #18]
 8e4:	12011119 	andne	r1, r1, #1073741830	; 0x40000006
 8e8:	97184006 	ldrls	r4, [r8, -r6]
 8ec:	13011942 	movwne	r1, #6466	; 0x1942
 8f0:	051b0000 	ldreq	r0, [fp, #-0]
 8f4:	3a0e0300 	bcc	3814fc <_etext+0x37f7a0>
 8f8:	390b3b0b 	stmdbcc	fp, {r0, r1, r3, r8, r9, fp, ip, sp}
 8fc:	0213490b 	andseq	r4, r3, #180224	; 0x2c000
 900:	1c000018 	stcne	0, cr0, [r0], {24}
 904:	0e030005 	cdpeq	0, 0, cr0, cr3, cr5, {0}
 908:	0b3b0b3a 	bleq	ec35f8 <_etext+0xec189c>
 90c:	13490b39 	movtne	r0, #39737	; 0x9b39
 910:	42b71702 	adcsmi	r1, r7, #524288	; 0x80000
 914:	1d000017 	stcne	0, cr0, [r0, #-92]	; 0xffffffa4
 918:	193f012e 	ldmdbne	pc!, {r1, r2, r3, r5, r8}	; <UNPREDICTABLE>
 91c:	0b3a0e03 	bleq	e84130 <_etext+0xe823d4>
 920:	0b390b3b 	bleq	e43614 <_etext+0xe418b8>
 924:	13491927 	movtne	r1, #39207	; 0x9927
 928:	06120111 			; <UNDEFINED> instruction: 0x06120111
 92c:	42971840 	addsmi	r1, r7, #64, 16	; 0x400000
 930:	00130119 	andseq	r0, r3, r9, lsl r1
 934:	012e1e00 			; <UNDEFINED> instruction: 0x012e1e00
 938:	0b3a0e03 	bleq	e8414c <_etext+0xe823f0>
 93c:	0b390b3b 	bleq	e43630 <_etext+0xe418d4>
 940:	13491927 	movtne	r1, #39207	; 0x9927
 944:	13010b20 	movwne	r0, #6944	; 0x1b20
 948:	051f0000 	ldreq	r0, [pc, #-0]	; 950 <IntPriorityGet+0xc>
 94c:	3a0e0300 	bcc	381554 <_etext+0x37f7f8>
 950:	390b3b0b 	stmdbcc	fp, {r0, r1, r3, r8, r9, fp, ip, sp}
 954:	0013490b 	andseq	r4, r3, fp, lsl #18
 958:	00342000 	eorseq	r2, r4, r0
 95c:	0b3a0e03 	bleq	e84170 <_etext+0xe82414>
 960:	0b390b3b 	bleq	e43654 <_etext+0xe418f8>
 964:	00001349 	andeq	r1, r0, r9, asr #6
 968:	31012e21 	tstcc	r1, r1, lsr #28
 96c:	12011113 	andne	r1, r1, #-1073741820	; 0xc0000004
 970:	97184006 	ldrls	r4, [r8, -r6]
 974:	13011942 	movwne	r1, #6466	; 0x1942
 978:	05220000 	streq	r0, [r2, #-0]!
 97c:	02133100 	andseq	r3, r3, #0, 2
 980:	23000018 	movwcs	r0, #24
 984:	193f002e 	ldmdbne	pc!, {r1, r2, r3, r5}	; <UNPREDICTABLE>
 988:	0e6e193c 			; <UNDEFINED> instruction: 0x0e6e193c
 98c:	0b3a0e03 	bleq	e841a0 <_etext+0xe82444>
 990:	0b390b3b 	bleq	e43684 <_etext+0xe41928>
 994:	01000000 	mrseq	r0, (UNDEF: 0)
 998:	0e250111 	mcreq	1, 1, r0, cr5, cr1, {0}
 99c:	0e030b13 	vmoveq.32	d3[0], r0
 9a0:	01110e1b 	tsteq	r1, fp, lsl lr
 9a4:	17100612 			; <UNDEFINED> instruction: 0x17100612
 9a8:	2e020000 	cdpcs	0, 0, cr0, cr2, cr0, {0}
 9ac:	03193f01 	tsteq	r9, #1, 30
 9b0:	3b0b3a0e 	blcc	2cf1f0 <_etext+0x2cd494>
 9b4:	270b3905 	strcs	r3, [fp, -r5, lsl #18]
 9b8:	11134919 	tstne	r3, r9, lsl r9
 9bc:	40061201 	andmi	r1, r6, r1, lsl #4
 9c0:	19429718 	stmdbne	r2, {r3, r4, r8, r9, sl, ip, pc}^
 9c4:	00001301 	andeq	r1, r0, r1, lsl #6
 9c8:	03003403 	movweq	r3, #1027	; 0x403
 9cc:	3b0b3a0e 	blcc	2cf20c <_etext+0x2cd4b0>
 9d0:	490b3905 	stmdbmi	fp, {r0, r2, r8, fp, ip, sp}
 9d4:	b7170213 			; <UNDEFINED> instruction: 0xb7170213
 9d8:	00001742 	andeq	r1, r0, r2, asr #14
 9dc:	0b002404 	bleq	99f4 <_etext+0x7c98>
 9e0:	030b3e0b 	movweq	r3, #48651	; 0xbe0b
 9e4:	0500000e 	streq	r0, [r0, #-14]
 9e8:	193f012e 	ldmdbne	pc!, {r1, r2, r3, r5, r8}	; <UNPREDICTABLE>
 9ec:	0b3a0e03 	bleq	e84200 <_etext+0xe824a4>
 9f0:	0b39053b 	bleq	e41ee4 <_etext+0xe40188>
 9f4:	01111927 	tsteq	r1, r7, lsr #18
 9f8:	18400612 	stmdane	r0, {r1, r4, r9, sl}^
 9fc:	01194297 			; <UNDEFINED> instruction: 0x01194297
 a00:	06000013 			; <UNDEFINED> instruction: 0x06000013
 a04:	0e030005 	cdpeq	0, 0, cr0, cr3, cr5, {0}
 a08:	053b0b3a 	ldreq	r0, [fp, #-2874]!	; 0xfffff4c6
 a0c:	13490b39 	movtne	r0, #39737	; 0x9b39
 a10:	00001802 	andeq	r1, r0, r2, lsl #16
 a14:	3f002e07 	svccc	0x00002e07
 a18:	3a0e0319 	bcc	381684 <_etext+0x37f928>
 a1c:	39053b0b 	stmdbcc	r5, {r0, r1, r3, r8, r9, fp, ip, sp}
 a20:	1119270b 	tstne	r9, fp, lsl #14
 a24:	40061201 	andmi	r1, r6, r1, lsl #4
 a28:	19429718 	stmdbne	r2, {r3, r4, r8, r9, sl, ip, pc}^
 a2c:	2e080000 	cdpcs	0, 0, cr0, cr8, cr0, {0}
 a30:	03193f01 	tsteq	r9, #1, 30
 a34:	3b0b3a0e 	blcc	2cf274 <_etext+0x2cd518>
 a38:	270b390b 	strcs	r3, [fp, -fp, lsl #18]
 a3c:	11134919 	tstne	r3, r9, lsl r9
 a40:	40061201 	andmi	r1, r6, r1, lsl #4
 a44:	19429718 	stmdbne	r2, {r3, r4, r8, r9, sl, ip, pc}^
 a48:	00001301 	andeq	r1, r0, r1, lsl #6
 a4c:	03003409 	movweq	r3, #1033	; 0x409
 a50:	3b0b3a0e 	blcc	2cf290 <_etext+0x2cd534>
 a54:	490b390b 	stmdbmi	fp, {r0, r1, r3, r8, fp, ip, sp}
 a58:	b7170213 			; <UNDEFINED> instruction: 0xb7170213
 a5c:	00001742 	andeq	r1, r0, r2, asr #14
 a60:	3f012e0a 	svccc	0x00012e0a
 a64:	3a0e0319 	bcc	3816d0 <_etext+0x37f974>
 a68:	390b3b0b 	stmdbcc	fp, {r0, r1, r3, r8, r9, fp, ip, sp}
 a6c:	4919270b 	ldmdbmi	r9, {r0, r1, r3, r8, r9, sl, sp}
 a70:	12011113 	andne	r1, r1, #-1073741820	; 0xc0000004
 a74:	97184006 	ldrls	r4, [r8, -r6]
 a78:	00001942 	andeq	r1, r0, r2, asr #18
	...

Disassembly of section .debug_loc:

00000000 <.debug_loc>:
       0:	00010100 	andeq	r0, r1, r0, lsl #2
       4:	00240000 	eoreq	r0, r4, r0
       8:	00240000 	eoreq	r0, r4, r0
       c:	00010000 	andeq	r0, r1, r0
      10:	00002453 	andeq	r2, r0, r3, asr r4
      14:	00002800 	andeq	r2, r0, r0, lsl #16
      18:	73000300 	movwvc	r0, #768	; 0x300
      1c:	00289f04 	eoreq	r9, r8, r4, lsl #30
      20:	00300000 	eorseq	r0, r0, r0
      24:	00010000 	andeq	r0, r1, r0
      28:	00000053 	andeq	r0, r0, r3, asr r0
      2c:	00000000 	andeq	r0, r0, r0
      30:	ec000000 	stc	0, cr0, [r0], {-0}
      34:	30000001 	andcc	r0, r0, r1
      38:	01000002 	tsteq	r0, r2
      3c:	00005400 	andeq	r5, r0, r0, lsl #8
      40:	00000000 	andeq	r0, r0, r0
      44:	00010000 	andeq	r0, r1, r0
      48:	000001ec 	andeq	r0, r0, ip, ror #3
      4c:	000001f6 	strdeq	r0, [r0], -r6
      50:	00700012 	rsbseq	r0, r0, r2, lsl r0
      54:	f71aff08 	pldw	[sl, -r8, lsl #30]
      58:	f425f72c 	vld1.8	{d15}, [r5 :128], ip
      5c:	66660425 	strbtvs	r0, [r6], -r5, lsr #8
      60:	9f1e3fe6 	svcls	0x001e3fe6
	...
      70:	0000062c 	andeq	r0, r0, ip, lsr #12
      74:	00000634 	andeq	r0, r0, r4, lsr r6
      78:	34510001 	ldrbcc	r0, [r1], #-1
      7c:	3a000006 	bcc	9c <g_pfnVectors+0x9c>
      80:	04000006 	streq	r0, [r0], #-6
      84:	5101f300 	mrspl	pc, SP_irq	; <UNPREDICTABLE>
      88:	0000009f 	muleq	r0, pc, r0	; <UNPREDICTABLE>
	...
      94:	00062000 	andeq	r2, r6, r0
      98:	00062600 	andeq	r2, r6, r0, lsl #12
      9c:	51000100 	mrspl	r0, (UNDEF: 16)
      a0:	00000626 	andeq	r0, r0, r6, lsr #12
      a4:	0000062c 	andeq	r0, r0, ip, lsr #12
      a8:	01f30004 	mvnseq	r0, r4
      ac:	00009f51 	andeq	r9, r0, r1, asr pc
	...
      b8:	06100000 	ldreq	r0, [r0], -r0
      bc:	06180000 	ldreq	r0, [r8], -r0
      c0:	00010000 	andeq	r0, r1, r0
      c4:	00061851 	andeq	r1, r6, r1, asr r8
      c8:	00061e00 	andeq	r1, r6, r0, lsl #28
      cc:	f3000400 	vshl.u8	d0, d0, d0
      d0:	009f5101 	addseq	r5, pc, r1, lsl #2
	...
      dc:	04000000 	streq	r0, [r0], #-0
      e0:	0a000006 	beq	100 <g_pfnVectors+0x100>
      e4:	01000006 	tsteq	r0, r6
      e8:	060a5100 	streq	r5, [sl], -r0, lsl #2
      ec:	06100000 	ldreq	r0, [r0], -r0
      f0:	00040000 	andeq	r0, r4, r0
      f4:	9f5101f3 	svcls	0x005101f3
	...
     104:	05b80000 	ldreq	r0, [r8, #0]!
     108:	05e00000 	strbeq	r0, [r0, #0]!
     10c:	00010000 	andeq	r0, r1, r0
     110:	0005e050 	andeq	lr, r5, r0, asr r0
     114:	0005f400 	andeq	pc, r5, r0, lsl #8
     118:	f3000400 	vshl.u8	d0, d0, d0
     11c:	f49f5001 			; <UNDEFINED> instruction: 0xf49f5001
     120:	04000005 	streq	r0, [r0], #-5
     124:	01000006 	tsteq	r0, r6
     128:	00005000 	andeq	r5, r0, r0
	...
     13c:	000005be 			; <UNDEFINED> instruction: 0x000005be
     140:	000005cc 	andeq	r0, r0, ip, asr #11
     144:	cc530001 	mrrcgt	0, 0, r0, r3, cr1
     148:	d4000005 	strle	r0, [r0], #-5
     14c:	09000005 	stmdbeq	r0, {r0, r2}
     150:	09007000 	stmdbeq	r0, {ip, sp, lr}
     154:	fc0924ec 	stc2	4, cr2, [r9], {236}	; 0xec
     158:	05d49f25 	ldrbeq	r9, [r4, #3877]	; 0xf25
     15c:	05f40000 	ldrbeq	r0, [r4, #0]!
     160:	00010000 	andeq	r0, r1, r0
     164:	0005f451 	andeq	pc, r5, r1, asr r4	; <UNPREDICTABLE>
     168:	0005fa00 	andeq	pc, r5, r0, lsl #20
     16c:	53000100 	movwpl	r0, #256	; 0x100
     170:	000005fa 	strdeq	r0, [r0], -sl
     174:	00000604 	andeq	r0, r0, r4, lsl #12
     178:	00510001 	subseq	r0, r1, r1
	...
     184:	dc000000 	stcle	0, cr0, [r0], {-0}
     188:	ee000005 	cdp	0, 0, cr0, cr0, cr5, {0}
     18c:	01000005 	tsteq	r0, r5
     190:	05ee5400 	strbeq	r5, [lr, #1024]!	; 0x400
     194:	05f40000 	ldrbeq	r0, [r4, #0]!
     198:	000a0000 	andeq	r0, sl, r0
     19c:	095001f3 	ldmdbeq	r0, {r0, r1, r4, r5, r6, r7, r8}^
     1a0:	fc0924f4 	stc2	4, cr2, [r9], {244}	; 0xf4
     1a4:	00009f25 	andeq	r9, r0, r5, lsr #30
	...
     1b0:	057c0000 	ldrbeq	r0, [ip, #-0]!
     1b4:	05a10000 	streq	r0, [r1, #0]!
     1b8:	00010000 	andeq	r0, r1, r0
     1bc:	0005a150 	andeq	sl, r5, r0, asr r1
     1c0:	0005a200 	andeq	sl, r5, r0, lsl #4
     1c4:	f3000400 	vshl.u8	d0, d0, d0
     1c8:	009f5001 	addseq	r5, pc, r1
	...
     1d4:	7c000000 	stcvc	0, cr0, [r0], {-0}
     1d8:	a1000005 	tstge	r0, r5
     1dc:	01000005 	tsteq	r0, r5
     1e0:	05a15100 	streq	r5, [r1, #256]!	; 0x100
     1e4:	05a20000 	streq	r0, [r2, #0]!
     1e8:	00040000 	andeq	r0, r4, r0
     1ec:	9f5101f3 	svcls	0x005101f3
	...
     1f8:	05900000 	ldreq	r0, [r0]
     1fc:	05960000 	ldreq	r0, [r6]
     200:	00020000 	andeq	r0, r2, r0
     204:	00009f32 	andeq	r9, r0, r2, lsr pc
	...
     210:	00000590 	muleq	r0, r0, r5
     214:	00000596 	muleq	r0, r6, r5
     218:	00510001 	subseq	r0, r1, r1
     21c:	00000000 	andeq	r0, r0, r0
     220:	03000000 	movweq	r0, #0
     224:	00057c00 	andeq	r7, r5, r0, lsl #24
     228:	00059600 	andeq	r9, r5, r0, lsl #12
     22c:	50000100 	andpl	r0, r0, r0, lsl #2
	...
     244:	000004e0 	andeq	r0, r0, r0, ror #9
     248:	00000547 	andeq	r0, r0, r7, asr #10
     24c:	47500001 	ldrbmi	r0, [r0, -r1]
     250:	48000005 	stmdami	r0, {r0, r2}
     254:	04000005 	streq	r0, [r0], #-5
     258:	5001f300 	andpl	pc, r1, r0, lsl #6
     25c:	0005489f 	muleq	r5, pc, r8	; <UNPREDICTABLE>
     260:	00054c00 	andeq	r4, r5, r0, lsl #24
     264:	50000100 	andpl	r0, r0, r0, lsl #2
     268:	0000054c 	andeq	r0, r0, ip, asr #10
     26c:	00000550 	andeq	r0, r0, r0, asr r5
     270:	50530001 	subspl	r0, r3, r1
     274:	55000005 	strpl	r0, [r0, #-5]
     278:	01000005 	tsteq	r0, r5
     27c:	05555000 	ldrbeq	r5, [r5, #-0]
     280:	05680000 	strbeq	r0, [r8, #-0]!
     284:	00040000 	andeq	r0, r4, r0
     288:	9f5001f3 	svcls	0x005001f3
	...
     29c:	000004e0 	andeq	r0, r0, r0, ror #9
     2a0:	00000547 	andeq	r0, r0, r7, asr #10
     2a4:	47510001 	ldrbmi	r0, [r1, -r1]
     2a8:	48000005 	stmdami	r0, {r0, r2}
     2ac:	04000005 	streq	r0, [r0], #-5
     2b0:	5101f300 	mrspl	pc, SP_irq	; <UNPREDICTABLE>
     2b4:	0005489f 	muleq	r5, pc, r8	; <UNPREDICTABLE>
     2b8:	00054a00 	andeq	r4, r5, r0, lsl #20
     2bc:	51000100 	mrspl	r0, (UNDEF: 16)
     2c0:	0000054a 	andeq	r0, r0, sl, asr #10
     2c4:	00000568 	andeq	r0, r0, r8, ror #10
     2c8:	01f30004 	mvnseq	r0, r4
     2cc:	00009f51 	andeq	r9, r0, r1, asr pc
     2d0:	00000000 	andeq	r0, r0, r0
     2d4:	05000000 	streq	r0, [r0, #-0]
     2d8:	00000504 	andeq	r0, r0, r4, lsl #10
     2dc:	00000504 	andeq	r0, r0, r4, lsl #10
     2e0:	9f320002 	svcls	0x00320002
	...
     2ec:	05040500 	streq	r0, [r4, #-1280]	; 0xfffffb00
     2f0:	05040000 	streq	r0, [r4, #-0]
     2f4:	00010000 	andeq	r0, r1, r0
     2f8:	00000051 	andeq	r0, r0, r1, asr r0
     2fc:	00000000 	andeq	r0, r0, r0
     300:	02050000 	andeq	r0, r5, #0
     304:	04000005 	streq	r0, [r0], #-5
     308:	01000005 	tsteq	r0, r5
     30c:	00005000 	andeq	r5, r0, r0
	...
     318:	04b80000 	ldrteq	r0, [r8], #0
     31c:	04dd0000 	ldrbeq	r0, [sp], #0
     320:	00010000 	andeq	r0, r1, r0
     324:	0004dd50 	andeq	sp, r4, r0, asr sp
     328:	0004de00 	andeq	sp, r4, r0, lsl #28
     32c:	f3000400 	vshl.u8	d0, d0, d0
     330:	009f5001 	addseq	r5, pc, r1
	...
     33c:	b8000000 	stmdalt	r0, {}	; <UNPREDICTABLE>
     340:	dd000004 	stcle	0, cr0, [r0, #-16]
     344:	01000004 	tsteq	r0, r4
     348:	04dd5100 	ldrbeq	r5, [sp], #256	; 0x100
     34c:	04de0000 	ldrbeq	r0, [lr], #0
     350:	00040000 	andeq	r0, r4, r0
     354:	9f5101f3 	svcls	0x005101f3
	...
     360:	04cc0000 	strbeq	r0, [ip], #0
     364:	04d20000 	ldrbeq	r0, [r2], #0
     368:	00020000 	andeq	r0, r2, r0
     36c:	00009f32 	andeq	r9, r0, r2, lsr pc
	...
     378:	000004cc 	andeq	r0, r0, ip, asr #9
     37c:	000004d2 	ldrdeq	r0, [r0], -r2
     380:	00510001 	subseq	r0, r1, r1
     384:	00000000 	andeq	r0, r0, r0
     388:	03000000 	movweq	r0, #0
     38c:	0004b800 	andeq	fp, r4, r0, lsl #16
     390:	0004d200 	andeq	sp, r4, r0, lsl #4
     394:	50000100 	andpl	r0, r0, r0, lsl #2
	...
     3a4:	00000490 	muleq	r0, r0, r4
     3a8:	0000049d 	muleq	r0, sp, r4
     3ac:	9d500001 	ldclls	0, cr0, [r0, #-4]
     3b0:	b6000004 	strlt	r0, [r0], -r4
     3b4:	01000004 	tsteq	r0, r4
     3b8:	00005400 	andeq	r5, r0, r0, lsl #8
	...
     3c4:	04900000 	ldreq	r0, [r0], #0
     3c8:	049d0000 	ldreq	r0, [sp], #0
     3cc:	00010000 	andeq	r0, r1, r0
     3d0:	00049d51 	andeq	r9, r4, r1, asr sp
     3d4:	0004b600 	andeq	fp, r4, r0, lsl #12
     3d8:	f3000400 	vshl.u8	d0, d0, d0
     3dc:	009f5101 	addseq	r5, pc, r1, lsl #2
     3e0:	00000000 	andeq	r0, r0, r0
     3e4:	01000000 	mrseq	r0, (UNDEF: 0)
     3e8:	00049e00 	andeq	r9, r4, r0, lsl #28
     3ec:	0004b400 	andeq	fp, r4, r0, lsl #8
     3f0:	31000200 	mrscc	r0, R8_usr
     3f4:	0000009f 	muleq	r0, pc, r0	; <UNPREDICTABLE>
     3f8:	00000000 	andeq	r0, r0, r0
     3fc:	9e000100 	adflss	f0, f0, f0
     400:	b0000004 	andlt	r0, r0, r4
     404:	01000004 	tsteq	r0, r4
     408:	00005500 	andeq	r5, r0, r0, lsl #10
     40c:	00000000 	andeq	r0, r0, r0
     410:	00010000 	andeq	r0, r1, r0
     414:	0000049e 	muleq	r0, lr, r4
     418:	000004b4 			; <UNDEFINED> instruction: 0x000004b4
     41c:	00540001 	subseq	r0, r4, r1
	...
     428:	68000000 	stmdavs	r0, {}	; <UNPREDICTABLE>
     42c:	75000004 	strvc	r0, [r0, #-4]
     430:	01000004 	tsteq	r0, r4
     434:	04755000 	ldrbteq	r5, [r5], #-0
     438:	048e0000 	streq	r0, [lr], #0
     43c:	00010000 	andeq	r0, r1, r0
     440:	00000054 	andeq	r0, r0, r4, asr r0
	...
     44c:	00046800 	andeq	r6, r4, r0, lsl #16
     450:	00047500 	andeq	r7, r4, r0, lsl #10
     454:	51000100 	mrspl	r0, (UNDEF: 16)
     458:	00000475 	andeq	r0, r0, r5, ror r4
     45c:	0000048e 	andeq	r0, r0, lr, lsl #9
     460:	01f30004 	mvnseq	r0, r4
     464:	00009f51 	andeq	r9, r0, r1, asr pc
     468:	00000000 	andeq	r0, r0, r0
     46c:	00010000 	andeq	r0, r1, r0
     470:	00000476 	andeq	r0, r0, r6, ror r4
     474:	0000048c 	andeq	r0, r0, ip, lsl #9
     478:	9f310002 	svcls	0x00310002
	...
     484:	04760001 	ldrbteq	r0, [r6], #-1
     488:	04880000 	streq	r0, [r8], #0
     48c:	00010000 	andeq	r0, r1, r0
     490:	00000055 	andeq	r0, r0, r5, asr r0
     494:	00000000 	andeq	r0, r0, r0
     498:	76000100 	strvc	r0, [r0], -r0, lsl #2
     49c:	8c000004 	stchi	0, cr0, [r0], {4}
     4a0:	01000004 	tsteq	r0, r4
     4a4:	00005400 	andeq	r5, r0, r0, lsl #8
	...
     4b0:	04400000 	strbeq	r0, [r0], #-0
     4b4:	04650000 	strbteq	r0, [r5], #-0
     4b8:	00010000 	andeq	r0, r1, r0
     4bc:	00046550 	andeq	r6, r4, r0, asr r5
     4c0:	00046600 	andeq	r6, r4, r0, lsl #12
     4c4:	f3000400 	vshl.u8	d0, d0, d0
     4c8:	009f5001 	addseq	r5, pc, r1
	...
     4d4:	40000000 	andmi	r0, r0, r0
     4d8:	65000004 	strvs	r0, [r0, #-4]
     4dc:	01000004 	tsteq	r0, r4
     4e0:	04655100 	strbteq	r5, [r5], #-256	; 0xffffff00
     4e4:	04660000 	strbteq	r0, [r6], #-0
     4e8:	00040000 	andeq	r0, r4, r0
     4ec:	9f5101f3 	svcls	0x005101f3
	...
     4f8:	04400003 	strbeq	r0, [r0], #-3
     4fc:	045e0000 	ldrbeq	r0, [lr], #-0
     500:	00020000 	andeq	r0, r2, r0
     504:	00009f30 	andeq	r9, r0, r0, lsr pc
     508:	00000000 	andeq	r0, r0, r0
     50c:	00030000 	andeq	r0, r3, r0
     510:	00000440 	andeq	r0, r0, r0, asr #8
     514:	0000045e 	andeq	r0, r0, lr, asr r4
     518:	00510001 	subseq	r0, r1, r1
     51c:	00000000 	andeq	r0, r0, r0
     520:	03000000 	movweq	r0, #0
     524:	00044000 	andeq	r4, r4, r0
     528:	00045e00 	andeq	r5, r4, r0, lsl #28
     52c:	50000100 	andpl	r0, r0, r0, lsl #2
	...
     53c:	00000418 	andeq	r0, r0, r8, lsl r4
     540:	0000043d 	andeq	r0, r0, sp, lsr r4
     544:	3d500001 	ldclcc	0, cr0, [r0, #-4]
     548:	3e000004 	cdpcc	0, 0, cr0, cr0, cr4, {0}
     54c:	04000004 	streq	r0, [r0], #-4
     550:	5001f300 	andpl	pc, r1, r0, lsl #6
     554:	0000009f 	muleq	r0, pc, r0	; <UNPREDICTABLE>
	...
     560:	00041800 	andeq	r1, r4, r0, lsl #16
     564:	00043d00 	andeq	r3, r4, r0, lsl #26
     568:	51000100 	mrspl	r0, (UNDEF: 16)
     56c:	0000043d 	andeq	r0, r0, sp, lsr r4
     570:	0000043e 	andeq	r0, r0, lr, lsr r4
     574:	01f30004 	mvnseq	r0, r4
     578:	00009f51 	andeq	r9, r0, r1, asr pc
	...
     584:	0000042c 	andeq	r0, r0, ip, lsr #8
     588:	00000432 	andeq	r0, r0, r2, lsr r4
     58c:	9f320002 	svcls	0x00320002
	...
     598:	042c0000 	strteq	r0, [ip], #-0
     59c:	04320000 	ldrteq	r0, [r2], #-0
     5a0:	00010000 	andeq	r0, r1, r0
     5a4:	00000051 	andeq	r0, r0, r1, asr r0
     5a8:	00000000 	andeq	r0, r0, r0
     5ac:	18000300 	stmdane	r0, {r8, r9}
     5b0:	32000004 	andcc	r0, r0, #4
     5b4:	01000004 	tsteq	r0, r4
     5b8:	00005000 	andeq	r5, r0, r0
	...
     5c4:	03e00000 	mvneq	r0, #0
     5c8:	04050000 	streq	r0, [r5], #-0
     5cc:	00010000 	andeq	r0, r1, r0
     5d0:	00040550 	andeq	r0, r4, r0, asr r5
     5d4:	00040600 	andeq	r0, r4, r0, lsl #12
     5d8:	f3000400 	vshl.u8	d0, d0, d0
     5dc:	009f5001 	addseq	r5, pc, r1
	...
     5e8:	e0000000 	and	r0, r0, r0
     5ec:	05000003 	streq	r0, [r0, #-3]
     5f0:	01000004 	tsteq	r0, r4
     5f4:	04055100 	streq	r5, [r5], #-256	; 0xffffff00
     5f8:	04060000 	streq	r0, [r6], #-0
     5fc:	00040000 	andeq	r0, r4, r0
     600:	9f5101f3 	svcls	0x005101f3
	...
     60c:	03f40000 	mvnseq	r0, #0
     610:	03fa0000 	mvnseq	r0, #0
     614:	00020000 	andeq	r0, r2, r0
     618:	00009f32 	andeq	r9, r0, r2, lsr pc
	...
     624:	000003f4 	strdeq	r0, [r0], -r4
     628:	000003fa 	strdeq	r0, [r0], -sl
     62c:	00510001 	subseq	r0, r1, r1
     630:	00000000 	andeq	r0, r0, r0
     634:	03000000 	movweq	r0, #0
     638:	0003e000 	andeq	lr, r3, r0
     63c:	0003fa00 	andeq	pc, r3, r0, lsl #20
     640:	50000100 	andpl	r0, r0, r0, lsl #2
	...
     650:	000003b8 			; <UNDEFINED> instruction: 0x000003b8
     654:	000003dd 	ldrdeq	r0, [r0], -sp
     658:	dd500001 	ldclle	0, cr0, [r0, #-4]
     65c:	de000003 	cdple	0, 0, cr0, cr0, cr3, {0}
     660:	04000003 	streq	r0, [r0], #-3
     664:	5001f300 	andpl	pc, r1, r0, lsl #6
     668:	0000009f 	muleq	r0, pc, r0	; <UNPREDICTABLE>
	...
     674:	0003b800 	andeq	fp, r3, r0, lsl #16
     678:	0003dd00 	andeq	sp, r3, r0, lsl #26
     67c:	51000100 	mrspl	r0, (UNDEF: 16)
     680:	000003dd 	ldrdeq	r0, [r0], -sp
     684:	000003de 	ldrdeq	r0, [r0], -lr
     688:	01f30004 	mvnseq	r0, r4
     68c:	00009f51 	andeq	r9, r0, r1, asr pc
     690:	00000000 	andeq	r0, r0, r0
     694:	00030000 	andeq	r0, r3, r0
     698:	000003b8 			; <UNDEFINED> instruction: 0x000003b8
     69c:	000003d6 	ldrdeq	r0, [r0], -r6
     6a0:	9f300002 	svcls	0x00300002
	...
     6ac:	03b80003 			; <UNDEFINED> instruction: 0x03b80003
     6b0:	03d60000 	bicseq	r0, r6, #0
     6b4:	00010000 	andeq	r0, r1, r0
     6b8:	00000051 	andeq	r0, r0, r1, asr r0
     6bc:	00000000 	andeq	r0, r0, r0
     6c0:	b8000300 	stmdalt	r0, {r8, r9}
     6c4:	d6000003 	strle	r0, [r0], -r3
     6c8:	01000003 	tsteq	r0, r3
     6cc:	00005000 	andeq	r5, r0, r0
	...
     6d8:	03a80000 			; <UNDEFINED> instruction: 0x03a80000
     6dc:	03ac0000 			; <UNDEFINED> instruction: 0x03ac0000
     6e0:	00010000 	andeq	r0, r1, r0
     6e4:	0003ac50 	andeq	sl, r3, r0, asr ip
     6e8:	0003ae00 	andeq	sl, r3, r0, lsl #28
     6ec:	f3000400 	vshl.u8	d0, d0, d0
     6f0:	009f5001 	addseq	r5, pc, r1
	...
     704:	00039000 	andeq	r9, r3, r0
     708:	00039500 	andeq	r9, r3, r0, lsl #10
     70c:	50000100 	andpl	r0, r0, r0, lsl #2
     710:	00000395 	muleq	r0, r5, r3
     714:	00000398 	muleq	r0, r8, r3
     718:	01f30004 	mvnseq	r0, r4
     71c:	03989f50 	orrseq	r9, r8, #80, 30	; 0x140
     720:	039b0000 	orrseq	r0, fp, #0
     724:	00010000 	andeq	r0, r1, r0
     728:	00039b50 	andeq	r9, r3, r0, asr fp
     72c:	0003a200 	andeq	sl, r3, r0, lsl #4
     730:	54000100 	strpl	r0, [r0], #-256	; 0xffffff00
     734:	000003a2 	andeq	r0, r0, r2, lsr #7
     738:	000003a5 	andeq	r0, r0, r5, lsr #7
     73c:	00500001 	subseq	r0, r0, r1
	...
     750:	00037800 	andeq	r7, r3, r0, lsl #16
     754:	00037d00 	andeq	r7, r3, r0, lsl #26
     758:	50000100 	andpl	r0, r0, r0, lsl #2
     75c:	0000037d 	andeq	r0, r0, sp, ror r3
     760:	00000380 	andeq	r0, r0, r0, lsl #7
     764:	01f30004 	mvnseq	r0, r4
     768:	03809f50 	orreq	r9, r0, #80, 30	; 0x140
     76c:	03830000 	orreq	r0, r3, #0
     770:	00010000 	andeq	r0, r1, r0
     774:	00038350 	andeq	r8, r3, r0, asr r3
     778:	00038a00 	andeq	r8, r3, r0, lsl #20
     77c:	54000100 	strpl	r0, [r0], #-256	; 0xffffff00
     780:	0000038a 	andeq	r0, r0, sl, lsl #7
     784:	0000038d 	andeq	r0, r0, sp, lsl #7
     788:	00500001 	subseq	r0, r0, r1
	...
     794:	78000000 	stmdavc	r0, {}	; <UNPREDICTABLE>
     798:	83000003 	movwhi	r0, #3
     79c:	01000003 	tsteq	r0, r3
     7a0:	03835100 	orreq	r5, r3, #0, 2
     7a4:	038e0000 	orreq	r0, lr, #0
     7a8:	00040000 	andeq	r0, r4, r0
     7ac:	9f5101f3 	svcls	0x005101f3
	...
     7c0:	00000360 	andeq	r0, r0, r0, ror #6
     7c4:	00000366 	andeq	r0, r0, r6, ror #6
     7c8:	66500001 	ldrbvs	r0, [r0], -r1
     7cc:	68000003 	stmdavs	r0, {r0, r1}
     7d0:	04000003 	streq	r0, [r0], #-3
     7d4:	5001f300 	andpl	pc, r1, r0, lsl #6
     7d8:	0003689f 	muleq	r3, pc, r8	; <UNPREDICTABLE>
     7dc:	00036c00 	andeq	r6, r3, r0, lsl #24
     7e0:	50000100 	andpl	r0, r0, r0, lsl #2
     7e4:	0000036c 	andeq	r0, r0, ip, ror #6
     7e8:	0000036e 	andeq	r0, r0, lr, ror #6
     7ec:	01f30004 	mvnseq	r0, r4
     7f0:	00009f50 	andeq	r9, r0, r0, asr pc
	...
     7fc:	03500000 	cmpeq	r0, #0
     800:	03580000 	cmpeq	r8, #0
     804:	00010000 	andeq	r0, r1, r0
     808:	00035851 	andeq	r5, r3, r1, asr r8
     80c:	00035e00 	andeq	r5, r3, r0, lsl #28
     810:	f3000400 	vshl.u8	d0, d0, d0
     814:	009f5101 	addseq	r5, pc, r1, lsl #2
	...
     820:	44000000 	strmi	r0, [r0], #-0
     824:	4a000003 	bmi	838 <GPIODMATriggerEnable+0x4>
     828:	01000003 	tsteq	r0, r3
     82c:	034a5100 	movteq	r5, #41216	; 0xa100
     830:	03500000 	cmpeq	r0, #0
     834:	00040000 	andeq	r0, r4, r0
     838:	9f5101f3 	svcls	0x005101f3
	...
     848:	000002d0 	ldrdeq	r0, [r0], -r0	; <UNPREDICTABLE>
     84c:	00000326 	andeq	r0, r0, r6, lsr #6
     850:	26500001 	ldrbcs	r0, [r0], -r1
     854:	42000003 	andmi	r0, r0, #3
     858:	04000003 	streq	r0, [r0], #-3
     85c:	5001f300 	andpl	pc, r1, r0, lsl #6
     860:	0000009f 	muleq	r0, pc, r0	; <UNPREDICTABLE>
     864:	00000000 	andeq	r0, r0, r0
     868:	05050000 	streq	r0, [r5, #-0]
     86c:	d0000000 	andle	r0, r0, r0
     870:	d0000002 	andle	r0, r0, r2
     874:	01000002 	tsteq	r0, r2
     878:	02d05100 	sbcseq	r5, r0, #0, 2
     87c:	02d80000 	sbcseq	r0, r8, #0
     880:	00050000 	andeq	r0, r5, r0
     884:	24007131 	strcs	r7, [r0], #-305	; 0xfffffecf
     888:	0002d89f 	muleq	r2, pc, r8	; <UNPREDICTABLE>
     88c:	00034200 	andeq	r4, r3, r0, lsl #4
     890:	31000600 	tstcc	r0, r0, lsl #12
     894:	245101f3 	ldrbcs	r0, [r1], #-499	; 0xfffffe0d
     898:	0000009f 	muleq	r0, pc, r0	; <UNPREDICTABLE>
	...
     8a4:	0002d000 	andeq	sp, r2, r0
     8a8:	00031000 	andeq	r1, r3, r0
     8ac:	52000100 	andpl	r0, r0, #0, 2
     8b0:	00000310 	andeq	r0, r0, r0, lsl r3
     8b4:	00000342 	andeq	r0, r0, r2, asr #6
     8b8:	01f30004 	mvnseq	r0, r4
     8bc:	00009f52 	andeq	r9, r0, r2, asr pc
	...
     8c8:	0000031c 	andeq	r0, r0, ip, lsl r3
     8cc:	0000032c 	andeq	r0, r0, ip, lsr #6
     8d0:	00520001 	subseq	r0, r2, r1
	...
     8dc:	0002ea00 	andeq	lr, r2, r0, lsl #20
     8e0:	0002f600 	andeq	pc, r2, r0, lsl #12
     8e4:	54000100 	strpl	r0, [r0], #-256	; 0xffffff00
	...
     8f8:	0000020c 	andeq	r0, r0, ip, lsl #4
     8fc:	000002aa 	andeq	r0, r0, sl, lsr #5
     900:	aa500001 	bge	140090c <_etext+0x13febb0>
     904:	b2000002 	andlt	r0, r0, #2
     908:	04000002 	streq	r0, [r0], #-2
     90c:	75d87000 	ldrbvc	r7, [r8]
     910:	0002b29f 	muleq	r2, pc, r2	; <UNPREDICTABLE>
     914:	0002c800 	andeq	ip, r2, r0, lsl #16
     918:	50000100 	andpl	r0, r0, r0, lsl #2
     91c:	000002c8 	andeq	r0, r0, r8, asr #5
     920:	000002d0 	ldrdeq	r0, [r0], -r0	; <UNPREDICTABLE>
     924:	d8700004 	ldmdale	r0!, {r2}^
     928:	00009f75 	andeq	r9, r0, r5, ror pc
	...
     938:	020c0000 	andeq	r0, ip, #0
     93c:	029e0000 	addseq	r0, lr, #0
     940:	00010000 	andeq	r0, r1, r0
     944:	00029e51 	andeq	r9, r2, r1, asr lr
     948:	0002b200 	andeq	fp, r2, r0, lsl #4
     94c:	f3000400 	vshl.u8	d0, d0, d0
     950:	b29f5101 	addslt	r5, pc, #1073741824	; 0x40000000
     954:	ca000002 	bgt	964 <IntEnable>
     958:	01000002 	tsteq	r0, r2
     95c:	02ca5100 	sbceq	r5, sl, #0, 2
     960:	02d00000 	sbcseq	r0, r0, #0
     964:	00040000 	andeq	r0, r4, r0
     968:	9f5101f3 	svcls	0x005101f3
	...
     978:	0000020c 	andeq	r0, r0, ip, lsl #4
     97c:	00000252 	andeq	r0, r0, r2, asr r2
     980:	52520001 	subspl	r0, r2, #1
     984:	d0000002 	andle	r0, r0, r2
     988:	04000002 	streq	r0, [r0], #-2
     98c:	5201f300 	andpl	pc, r1, #0, 6
     990:	0000009f 	muleq	r0, pc, r0	; <UNPREDICTABLE>
	...
     9a0:	00020c00 	andeq	r0, r2, r0, lsl #24
     9a4:	00029c00 	andeq	r9, r2, r0, lsl #24
     9a8:	53000100 	movwpl	r0, #256	; 0x100
     9ac:	0000029c 	muleq	r0, ip, r2
     9b0:	000002b2 			; <UNDEFINED> instruction: 0x000002b2
     9b4:	01f30004 	mvnseq	r0, r4
     9b8:	02b29f53 	adcseq	r9, r2, #332	; 0x14c
     9bc:	02c40000 	sbceq	r0, r4, #0
     9c0:	00010000 	andeq	r0, r1, r0
     9c4:	0002c453 	andeq	ip, r2, r3, asr r4
     9c8:	0002d000 	andeq	sp, r2, r0
     9cc:	f3000400 	vshl.u8	d0, d0, d0
     9d0:	009f5301 	addseq	r5, pc, r1, lsl #6
	...
     9dc:	d8000000 	stmdale	r0, {}	; <UNPREDICTABLE>
     9e0:	f4000001 	vst4.8	{d0-d3}, [r0], r1
     9e4:	01000001 	tsteq	r0, r1
     9e8:	01f45000 	mvnseq	r5, r0
     9ec:	020c0000 	andeq	r0, ip, #0
     9f0:	00040000 	andeq	r0, r4, r0
     9f4:	9f5001f3 	svcls	0x005001f3
	...
     a00:	00050500 	andeq	r0, r5, r0, lsl #10
     a04:	01d80000 	bicseq	r0, r8, r0
     a08:	01d80000 	bicseq	r0, r8, r0
     a0c:	00010000 	andeq	r0, r1, r0
     a10:	0001d851 	andeq	sp, r1, r1, asr r8
     a14:	0001e000 	andeq	lr, r1, r0
     a18:	31000500 	tstcc	r0, r0, lsl #10
     a1c:	9f240071 	svcls	0x00240071
     a20:	000001e0 	andeq	r0, r0, r0, ror #3
     a24:	0000020c 	andeq	r0, r0, ip, lsl #4
     a28:	f3310006 	vhadd.u<illegal width 64>	d0, d1, d6
     a2c:	9f245101 	svcls	0x00245101
	...
     a38:	01e40000 	mvneq	r0, r0
     a3c:	020a0000 	andeq	r0, sl, #0
     a40:	00010000 	andeq	r0, r1, r0
     a44:	00000054 	andeq	r0, r0, r4, asr r0
     a48:	00000000 	andeq	r0, r0, r0
     a4c:	e8000000 	stmda	r0, {}	; <UNPREDICTABLE>
     a50:	0c000001 	stceq	0, cr0, [r0], {1}
     a54:	01000002 	tsteq	r0, r2
     a58:	00005200 	andeq	r5, r0, r0, lsl #4
	...
     a64:	000001ec 	andeq	r0, r0, ip, ror #3
     a68:	0000020c 	andeq	r0, r0, ip, lsl #4
     a6c:	00530001 	subseq	r0, r3, r1
	...
     a78:	94000000 	strls	r0, [r0], #-0
     a7c:	cc000001 	stcgt	0, cr0, [r0], {1}
     a80:	01000001 	tsteq	r0, r1
     a84:	01cc5000 	biceq	r5, ip, r0
     a88:	01d80000 	bicseq	r0, r8, r0
     a8c:	00040000 	andeq	r0, r4, r0
     a90:	9f77f470 	svcls	0x0077f470
	...
     aa0:	00000194 	muleq	r0, r4, r1
     aa4:	000001d0 	ldrdeq	r0, [r0], -r0	; <UNPREDICTABLE>
     aa8:	d0510001 	subsle	r0, r1, r1
     aac:	d8000001 	stmdale	r0, {r0}
     ab0:	04000001 	streq	r0, [r0], #-1
     ab4:	5101f300 	mrspl	pc, SP_irq	; <UNPREDICTABLE>
     ab8:	0000009f 	muleq	r0, pc, r0	; <UNPREDICTABLE>
	...
     ac4:	00019400 	andeq	r9, r1, r0, lsl #8
     ac8:	0001c800 	andeq	ip, r1, r0, lsl #16
     acc:	52000100 	andpl	r0, r0, #0, 2
     ad0:	000001c8 	andeq	r0, r0, r8, asr #3
     ad4:	000001d8 	ldrdeq	r0, [r0], -r8
     ad8:	01f30004 	mvnseq	r0, r4
     adc:	00009f52 	andeq	r9, r0, r2, asr pc
	...
     ae8:	01700000 	cmneq	r0, r0
     aec:	01860000 	orreq	r0, r6, r0
     af0:	00010000 	andeq	r0, r1, r0
     af4:	00018650 	andeq	r8, r1, r0, asr r6
     af8:	00019200 	andeq	r9, r1, r0, lsl #4
     afc:	f3000400 	vshl.u8	d0, d0, d0
     b00:	009f5001 	addseq	r5, pc, r1
	...
     b0c:	00000505 	andeq	r0, r0, r5, lsl #10
     b10:	00017000 	andeq	r7, r1, r0
     b14:	00017000 	andeq	r7, r1, r0
     b18:	51000100 	mrspl	r0, (UNDEF: 16)
     b1c:	00000170 	andeq	r0, r0, r0, ror r1
     b20:	0000017a 	andeq	r0, r0, sl, ror r1
     b24:	71310005 	teqvc	r1, r5
     b28:	7a9f2400 	bvc	fe7c9b30 <_ebss+0xde7c97b4>
     b2c:	92000001 	andls	r0, r0, #1
     b30:	06000001 	streq	r0, [r0], -r1
     b34:	01f33100 	mvnseq	r3, r0, lsl #2
     b38:	009f2451 	addseq	r2, pc, r1, asr r4	; <UNPREDICTABLE>
	...
     b44:	00017600 	andeq	r7, r1, r0, lsl #12
     b48:	00019200 	andeq	r9, r1, r0, lsl #4
     b4c:	52000100 	andpl	r0, r0, #0, 2
	...
     b58:	01800000 	orreq	r0, r0, r0
     b5c:	01920000 	orrseq	r0, r2, r0
     b60:	00010000 	andeq	r0, r1, r0
     b64:	00000053 	andeq	r0, r0, r3, asr r0
	...
     bbc:	00002a00 	andeq	r2, r0, r0, lsl #20
     bc0:	50000100 	andpl	r0, r0, r0, lsl #2
     bc4:	0000002a 	andeq	r0, r0, sl, lsr #32
     bc8:	0000002c 	andeq	r0, r0, ip, lsr #32
     bcc:	01f30004 	mvnseq	r0, r4
     bd0:	002c9f50 	eoreq	r9, ip, r0, asr pc
     bd4:	00460000 	subeq	r0, r6, r0
     bd8:	00010000 	andeq	r0, r1, r0
     bdc:	00004650 	andeq	r4, r0, r0, asr r6
     be0:	00004800 	andeq	r4, r0, r0, lsl #16
     be4:	f3000400 	vshl.u8	d0, d0, d0
     be8:	489f5001 	ldmmi	pc, {r0, ip, lr}	; <UNPREDICTABLE>
     bec:	56000000 	strpl	r0, [r0], -r0
     bf0:	01000000 	mrseq	r0, (UNDEF: 0)
     bf4:	00565000 	subseq	r5, r6, r0
     bf8:	00580000 	subseq	r0, r8, r0
     bfc:	00040000 	andeq	r0, r4, r0
     c00:	9f5001f3 	svcls	0x005001f3
     c04:	00000058 	andeq	r0, r0, r8, asr r0
     c08:	0000006a 	andeq	r0, r0, sl, rrx
     c0c:	6a500001 	bvs	1400c18 <_etext+0x13feebc>
     c10:	6c000000 	stcvs	0, cr0, [r0], {-0}
     c14:	04000000 	streq	r0, [r0], #-0
     c18:	5001f300 	andpl	pc, r1, r0, lsl #6
     c1c:	00006c9f 	muleq	r0, pc, ip	; <UNPREDICTABLE>
     c20:	00007e00 	andeq	r7, r0, r0, lsl #28
     c24:	50000100 	andpl	r0, r0, r0, lsl #2
     c28:	0000007e 	andeq	r0, r0, lr, ror r0
     c2c:	00000080 	andeq	r0, r0, r0, lsl #1
     c30:	01f30004 	mvnseq	r0, r4
     c34:	00809f50 	addeq	r9, r0, r0, asr pc
     c38:	00980000 	addseq	r0, r8, r0
     c3c:	00010000 	andeq	r0, r1, r0
     c40:	00009850 	andeq	r9, r0, r0, asr r8
     c44:	00009a00 	andeq	r9, r0, r0, lsl #20
     c48:	f3000400 	vshl.u8	d0, d0, d0
     c4c:	9a9f5001 	bls	fe7d4c58 <_ebss+0xde7d48dc>
     c50:	a8000000 	stmdage	r0, {}	; <UNPREDICTABLE>
     c54:	01000000 	mrseq	r0, (UNDEF: 0)
     c58:	00a85000 	adceq	r5, r8, r0
     c5c:	00aa0000 	adceq	r0, sl, r0
     c60:	00040000 	andeq	r0, r4, r0
     c64:	9f5001f3 	svcls	0x005001f3
     c68:	000000aa 	andeq	r0, r0, sl, lsr #1
     c6c:	000000b8 	strheq	r0, [r0], -r8
     c70:	b8500001 	ldmdalt	r0, {r0}^
     c74:	ba000000 	blt	c7c <SysCtlPeripheralPowerOn+0x38>
     c78:	04000000 	streq	r0, [r0], #-0
     c7c:	5001f300 	andpl	pc, r1, r0, lsl #6
     c80:	0000ba9f 	muleq	r0, pc, sl	; <UNPREDICTABLE>
     c84:	0000d000 	andeq	sp, r0, r0
     c88:	50000100 	andpl	r0, r0, r0, lsl #2
     c8c:	000000d0 	ldrdeq	r0, [r0], -r0	; <UNPREDICTABLE>
     c90:	000000d2 	ldrdeq	r0, [r0], -r2
     c94:	01f30004 	mvnseq	r0, r4
     c98:	00d29f50 	sbcseq	r9, r2, r0, asr pc
     c9c:	00e00000 	rsceq	r0, r0, r0
     ca0:	00010000 	andeq	r0, r1, r0
     ca4:	0000e050 	andeq	lr, r0, r0, asr r0
     ca8:	0000e200 	andeq	lr, r0, r0, lsl #4
     cac:	f3000400 	vshl.u8	d0, d0, d0
     cb0:	e29f5001 	adds	r5, pc, #1
     cb4:	f8000000 			; <UNDEFINED> instruction: 0xf8000000
     cb8:	01000000 	mrseq	r0, (UNDEF: 0)
     cbc:	00f85000 	rscseq	r5, r8, r0
     cc0:	00fa0000 	rscseq	r0, sl, r0
     cc4:	00040000 	andeq	r0, r4, r0
     cc8:	9f5001f3 	svcls	0x005001f3
     ccc:	000000fa 	strdeq	r0, [r0], -sl
     cd0:	00000104 	andeq	r0, r0, r4, lsl #2
     cd4:	04500001 	ldrbeq	r0, [r0], #-1
     cd8:	08000001 	stmdaeq	r0, {r0}
     cdc:	04000001 	streq	r0, [r0], #-1
     ce0:	5001f300 	andpl	pc, r1, r0, lsl #6
     ce4:	0001089f 	muleq	r1, pc, r8	; <UNPREDICTABLE>
     ce8:	00010a00 	andeq	r0, r1, r0, lsl #20
     cec:	50000100 	andpl	r0, r0, r0, lsl #2
     cf0:	0000010a 	andeq	r0, r0, sl, lsl #2
     cf4:	0000010c 	andeq	r0, r0, ip, lsl #2
     cf8:	01f30004 	mvnseq	r0, r4
     cfc:	010c9f50 	tsteq	ip, r0, asr pc
     d00:	010e0000 	mrseq	r0, (UNDEF: 14)
     d04:	00010000 	andeq	r0, r1, r0
     d08:	00010e50 	andeq	r0, r1, r0, asr lr
     d0c:	00011000 	andeq	r1, r1, r0
     d10:	f3000400 	vshl.u8	d0, d0, d0
     d14:	109f5001 	addsne	r5, pc, r1
     d18:	12000001 	andne	r0, r0, #1
     d1c:	01000001 	tsteq	r0, r1
     d20:	01125000 	tsteq	r2, r0
     d24:	01140000 	tsteq	r4, r0
     d28:	00040000 	andeq	r0, r4, r0
     d2c:	9f5001f3 	svcls	0x005001f3
     d30:	00000114 	andeq	r0, r0, r4, lsl r1
     d34:	00000116 	andeq	r0, r0, r6, lsl r1
     d38:	16500001 	ldrbne	r0, [r0], -r1
     d3c:	18000001 	stmdane	r0, {r0}
     d40:	04000001 	streq	r0, [r0], #-1
     d44:	5001f300 	andpl	pc, r1, r0, lsl #6
     d48:	0001189f 	muleq	r1, pc, r8	; <UNPREDICTABLE>
     d4c:	00011a00 	andeq	r1, r1, r0, lsl #20
     d50:	50000100 	andpl	r0, r0, r0, lsl #2
     d54:	0000011a 	andeq	r0, r0, sl, lsl r1
     d58:	0000011c 	andeq	r0, r0, ip, lsl r1
     d5c:	01f30004 	mvnseq	r0, r4
     d60:	011c9f50 	tsteq	ip, r0, asr pc
     d64:	011e0000 	tsteq	lr, r0
     d68:	00010000 	andeq	r0, r1, r0
     d6c:	00011e50 	andeq	r1, r1, r0, asr lr
     d70:	00012000 	andeq	r2, r1, r0
     d74:	f3000400 	vshl.u8	d0, d0, d0
     d78:	209f5001 	addscs	r5, pc, r1
     d7c:	22000001 	andcs	r0, r0, #1
     d80:	01000001 	tsteq	r0, r1
     d84:	01225000 			; <UNDEFINED> instruction: 0x01225000
     d88:	01400000 	mrseq	r0, (UNDEF: 64)
     d8c:	00040000 	andeq	r0, r4, r0
     d90:	9f5001f3 	svcls	0x005001f3
	...
     da0:	00000140 	andeq	r0, r0, r0, asr #2
     da4:	00000164 	andeq	r0, r0, r4, ror #2
     da8:	64500001 	ldrbvs	r0, [r0], #-1
     dac:	70000001 	andvc	r0, r0, r1
     db0:	04000001 	streq	r0, [r0], #-1
     db4:	77e07000 	strbvc	r7, [r0, r0]!
     db8:	0000009f 	muleq	r0, pc, r0	; <UNPREDICTABLE>
	...
     dc4:	00014000 	andeq	r4, r1, r0
     dc8:	00016800 	andeq	r6, r1, r0, lsl #16
     dcc:	51000100 	mrspl	r0, (UNDEF: 16)
     dd0:	00000168 	andeq	r0, r0, r8, ror #2
     dd4:	00000170 	andeq	r0, r0, r0, ror r1
     dd8:	01f30004 	mvnseq	r0, r4
     ddc:	00009f51 	andeq	r9, r0, r1, asr pc
	...
     de8:	01400000 	mrseq	r0, (UNDEF: 64)
     dec:	01600000 	cmneq	r0, r0
     df0:	00010000 	andeq	r0, r1, r0
     df4:	00016052 	andeq	r6, r1, r2, asr r0
     df8:	00017000 	andeq	r7, r1, r0
     dfc:	f3000400 	vshl.u8	d0, d0, d0
     e00:	009f5201 	addseq	r5, pc, r1, lsl #4
	...
     e0c:	d8000000 	stmdale	r0, {}	; <UNPREDICTABLE>
     e10:	db000002 	blle	e20 <SysCtlPeripheralSleepEnable+0x1c>
     e14:	01000002 	tsteq	r0, r2
     e18:	02db5000 	sbcseq	r5, fp, #0
     e1c:	02dc0000 	sbcseq	r0, ip, #0
     e20:	00040000 	andeq	r0, r4, r0
     e24:	9f5001f3 	svcls	0x005001f3
	...
     e38:	00000290 	muleq	r0, r0, r2
     e3c:	0000029c 	muleq	r0, ip, r2
     e40:	9c500001 	mrrcls	0, 0, r0, r0, cr1	; <UNPREDICTABLE>
     e44:	a8000002 	stmdage	r0, {r1}
     e48:	03000002 	movweq	r0, #2
     e4c:	9f107000 	svcls	0x00107000
     e50:	000002a8 	andeq	r0, r0, r8, lsr #5
     e54:	000002b6 			; <UNDEFINED> instruction: 0x000002b6
     e58:	01f30004 	mvnseq	r0, r4
     e5c:	02b69f50 	adcseq	r9, r6, #80, 30	; 0x140
     e60:	02d80000 	sbcseq	r0, r8, #0
     e64:	00010000 	andeq	r0, r1, r0
     e68:	00000050 	andeq	r0, r0, r0, asr r0
	...
     e78:	00023800 	andeq	r3, r2, r0, lsl #16
     e7c:	00024800 	andeq	r4, r2, r0, lsl #16
     e80:	50000100 	andpl	r0, r0, r0, lsl #2
     e84:	00000248 	andeq	r0, r0, r8, asr #4
     e88:	00000254 	andeq	r0, r0, r4, asr r2
     e8c:	10700003 	rsbsne	r0, r0, r3
     e90:	0002549f 	muleq	r2, pc, r4	; <UNPREDICTABLE>
     e94:	00026200 	andeq	r6, r2, r0, lsl #4
     e98:	f3000400 	vshl.u8	d0, d0, d0
     e9c:	629f5001 	addsvs	r5, pc, #1
     ea0:	90000002 	andls	r0, r0, r2
     ea4:	01000002 	tsteq	r0, r2
     ea8:	00005000 	andeq	r5, r0, r0
	...
     ecc:	000001d0 	ldrdeq	r0, [r0], -r0	; <UNPREDICTABLE>
     ed0:	000001e4 	andeq	r0, r0, r4, ror #3
     ed4:	e4500001 	ldrb	r0, [r0], #-1
     ed8:	f0000001 			; <UNDEFINED> instruction: 0xf0000001
     edc:	03000001 	movweq	r0, #1
     ee0:	9f107000 	svcls	0x00107000
     ee4:	000001f0 	strdeq	r0, [r0], -r0	; <UNPREDICTABLE>
     ee8:	00000200 	andeq	r0, r0, r0, lsl #4
     eec:	01f30004 	mvnseq	r0, r4
     ef0:	02009f50 	andeq	r9, r0, #80, 30	; 0x140
     ef4:	02040000 	andeq	r0, r4, #0
     ef8:	00010000 	andeq	r0, r1, r0
     efc:	00020450 	andeq	r0, r2, r0, asr r4
     f00:	00020a00 	andeq	r0, r2, r0, lsl #20
     f04:	f3000400 	vshl.u8	d0, d0, d0
     f08:	0a9f5001 	beq	fe7d4f14 <_ebss+0xde7d4b98>
     f0c:	0e000002 	cdpeq	0, 0, cr0, cr0, cr2, {0}
     f10:	01000002 	tsteq	r0, r2
     f14:	020e5000 	andeq	r5, lr, #0
     f18:	02140000 	andseq	r0, r4, #0
     f1c:	00040000 	andeq	r0, r4, r0
     f20:	9f5001f3 	svcls	0x005001f3
     f24:	00000214 	andeq	r0, r0, r4, lsl r2
     f28:	00000218 	andeq	r0, r0, r8, lsl r2
     f2c:	18500001 	ldmdane	r0, {r0}^
     f30:	1e000002 	cdpne	0, 0, cr0, cr0, cr2, {0}
     f34:	04000002 	streq	r0, [r0], #-2
     f38:	5001f300 	andpl	pc, r1, r0, lsl #6
     f3c:	00021e9f 	muleq	r2, pc, lr	; <UNPREDICTABLE>
     f40:	00022200 	andeq	r2, r2, r0, lsl #4
     f44:	50000100 	andpl	r0, r0, r0, lsl #2
     f48:	00000222 	andeq	r0, r0, r2, lsr #4
     f4c:	00000228 	andeq	r0, r0, r8, lsr #4
     f50:	01f30004 	mvnseq	r0, r4
     f54:	02289f50 	eoreq	r9, r8, #80, 30	; 0x140
     f58:	022a0000 	eoreq	r0, sl, #0
     f5c:	00010000 	andeq	r0, r1, r0
     f60:	00022a50 	andeq	r2, r2, r0, asr sl
     f64:	00023800 	andeq	r3, r2, r0, lsl #16
     f68:	f3000400 	vshl.u8	d0, d0, d0
     f6c:	009f5001 	addseq	r5, pc, r1
     f70:	00000000 	andeq	r0, r0, r0
     f74:	04000000 	streq	r0, [r0], #-0
	...
     f8c:	0001d000 	andeq	sp, r1, r0
     f90:	0001fe00 	andeq	pc, r1, r0, lsl #28
     f94:	30000200 	andcc	r0, r0, r0, lsl #4
     f98:	0001fe9f 	muleq	r1, pc, lr	; <UNPREDICTABLE>
     f9c:	00020000 	andeq	r0, r2, r0
     fa0:	50000100 	andpl	r0, r0, r0, lsl #2
     fa4:	00000200 	andeq	r0, r0, r0, lsl #4
     fa8:	00000208 	andeq	r0, r0, r8, lsl #4
     fac:	9f300002 	svcls	0x00300002
     fb0:	00000208 	andeq	r0, r0, r8, lsl #4
     fb4:	0000020a 	andeq	r0, r0, sl, lsl #4
     fb8:	0a500001 	beq	1400fc4 <_etext+0x13ff268>
     fbc:	12000002 	andne	r0, r0, #2
     fc0:	02000002 	andeq	r0, r0, #2
     fc4:	129f3000 	addsne	r3, pc, #0
     fc8:	14000002 	strne	r0, [r0], #-2
     fcc:	01000002 	tsteq	r0, r2
     fd0:	02145000 	andseq	r5, r4, #0
     fd4:	021c0000 	andseq	r0, ip, #0
     fd8:	00020000 	andeq	r0, r2, r0
     fdc:	021c9f30 	andseq	r9, ip, #48, 30	; 0xc0
     fe0:	021e0000 	andseq	r0, lr, #0
     fe4:	00010000 	andeq	r0, r1, r0
     fe8:	00021e50 	andeq	r1, r2, r0, asr lr
     fec:	00022600 	andeq	r2, r2, r0, lsl #12
     ff0:	30000200 	andcc	r0, r0, r0, lsl #4
     ff4:	0002269f 	muleq	r2, pc, r6	; <UNPREDICTABLE>
     ff8:	00022800 	andeq	r2, r2, r0, lsl #16
     ffc:	50000100 	andpl	r0, r0, r0, lsl #2
    1000:	00000228 	andeq	r0, r0, r8, lsr #4
    1004:	00000238 	andeq	r0, r0, r8, lsr r2
    1008:	9f300002 	svcls	0x00300002
	...
    101c:	00000164 	andeq	r0, r0, r4, ror #2
    1020:	00000178 	andeq	r0, r0, r8, ror r1
    1024:	78500001 	ldmdavc	r0, {r0}^
    1028:	84000001 	strhi	r0, [r0], #-1
    102c:	03000001 	movweq	r0, #1
    1030:	9f107000 	svcls	0x00107000
    1034:	00000184 	andeq	r0, r0, r4, lsl #3
    1038:	00000192 	muleq	r0, r2, r1
    103c:	01f30004 	mvnseq	r0, r4
    1040:	01929f50 	orrseq	r9, r2, r0, asr pc
    1044:	01d00000 	bicseq	r0, r0, r0
    1048:	00010000 	andeq	r0, r1, r0
    104c:	00000050 	andeq	r0, r0, r0, asr r0
	...
    105c:	0000f800 	andeq	pc, r0, r0, lsl #16
    1060:	00010c00 	andeq	r0, r1, r0, lsl #24
    1064:	50000100 	andpl	r0, r0, r0, lsl #2
    1068:	0000010c 	andeq	r0, r0, ip, lsl #2
    106c:	00000118 	andeq	r0, r0, r8, lsl r1
    1070:	10700003 	rsbsne	r0, r0, r3
    1074:	0001189f 	muleq	r1, pc, r8	; <UNPREDICTABLE>
    1078:	00012600 	andeq	r2, r1, r0, lsl #12
    107c:	f3000400 	vshl.u8	d0, d0, d0
    1080:	269f5001 	ldrcs	r5, [pc], r1
    1084:	64000001 	strvs	r0, [r0], #-1
    1088:	01000001 	tsteq	r0, r1
    108c:	00005000 	andeq	r5, r0, r0
	...
    1098:	00d80000 	sbcseq	r0, r8, r0
    109c:	00e40000 	rsceq	r0, r4, r0
    10a0:	00010000 	andeq	r0, r1, r0
    10a4:	0000e450 	andeq	lr, r0, r0, asr r4
    10a8:	0000f800 	andeq	pc, r0, r0, lsl #16
    10ac:	f3000400 	vshl.u8	d0, d0, d0
    10b0:	009f5001 	addseq	r5, pc, r1
	...
    10bc:	ac000000 	stcge	0, cr0, [r0], {-0}
    10c0:	bc000000 	stclt	0, cr0, [r0], {-0}
    10c4:	01000000 	mrseq	r0, (UNDEF: 0)
    10c8:	00bc5000 	adcseq	r5, ip, r0
    10cc:	00d80000 	sbcseq	r0, r8, r0
    10d0:	00040000 	andeq	r0, r4, r0
    10d4:	9f5001f3 	svcls	0x005001f3
	...
    10e4:	000000ac 	andeq	r0, r0, ip, lsr #1
    10e8:	000000c6 	andeq	r0, r0, r6, asr #1
    10ec:	c6510001 	ldrbgt	r0, [r1], -r1
    10f0:	d8000000 	stmdale	r0, {}	; <UNPREDICTABLE>
    10f4:	04000000 	streq	r0, [r0], #-0
    10f8:	5101f300 	mrspl	pc, SP_irq	; <UNPREDICTABLE>
    10fc:	0000009f 	muleq	r0, pc, r0	; <UNPREDICTABLE>
	...
    1108:	0000be00 	andeq	fp, r0, r0, lsl #28
    110c:	0000ca00 	andeq	ip, r0, r0, lsl #20
    1110:	53000100 	movwpl	r0, #256	; 0x100
    1114:	000000ca 	andeq	r0, r0, sl, asr #1
    1118:	000000d8 	ldrdeq	r0, [r0], -r8
    111c:	00500001 	subseq	r0, r0, r1
    1120:	00000000 	andeq	r0, r0, r0
    1124:	01000000 	mrseq	r0, (UNDEF: 0)
    1128:	90000000 	andls	r0, r0, r0
    112c:	94000000 	strls	r0, [r0], #-0
    1130:	02000000 	andeq	r0, r0, #0
    1134:	949f3000 	ldrls	r3, [pc], #0	; 113c <SysCtlClockSet+0x98>
    1138:	ac000000 	stcge	0, cr0, [r0], {-0}
    113c:	01000000 	mrseq	r0, (UNDEF: 0)
    1140:	00005000 	andeq	r5, r0, r0
	...
    114c:	00000090 	muleq	r0, r0, r0
    1150:	000000ac 	andeq	r0, r0, ip, lsr #1
    1154:	00510001 	subseq	r0, r1, r1
    1158:	00000000 	andeq	r0, r0, r0
    115c:	01000000 	mrseq	r0, (UNDEF: 0)
    1160:	00002a00 	andeq	r2, r0, r0, lsl #20
    1164:	00003400 	andeq	r3, r0, r0, lsl #8
    1168:	30000200 	andcc	r0, r0, r0, lsl #4
    116c:	0000009f 	muleq	r0, pc, r0	; <UNPREDICTABLE>
	...
    1178:	2a000000 	bcs	1180 <SysCtlClockSet+0xdc>
    117c:	2c000000 	stccs	0, cr0, [r0], {-0}
    1180:	01000000 	mrseq	r0, (UNDEF: 0)
    1184:	002c5400 	eoreq	r5, ip, r0, lsl #8
    1188:	002e0000 	eoreq	r0, lr, r0
    118c:	00030000 	andeq	r0, r3, r0
    1190:	2e9f7c74 	mrccs	12, 4, r7, cr15, cr4, {3}
    1194:	42000000 	andmi	r0, r0, #0
    1198:	09000000 	stmdbeq	r0, {}	; <UNPREDICTABLE>
    119c:	03007400 	movweq	r7, #1024	; 0x400
    11a0:	1ffffffc 	svcne	0x00fffffc
    11a4:	00009f22 	andeq	r9, r0, r2, lsr #30
	...
    11b4:	00000001 	andeq	r0, r0, r1
    11b8:	00000000 	andeq	r0, r0, r0
    11bc:	00000a18 	andeq	r0, r0, r8, lsl sl
    11c0:	00000a28 	andeq	r0, r0, r8, lsr #20
    11c4:	28500001 	ldmdacs	r0, {r0}^
    11c8:	2e00000a 	cdpcs	0, 0, cr0, cr0, cr10, {0}
    11cc:	0e00000a 	cdpeq	0, 0, cr0, cr0, cr10, {0}
    11d0:	36007300 	strcc	r7, [r0], -r0, lsl #6
    11d4:	321a4f25 	andscc	r4, sl, #37, 30	; 0x94
    11d8:	1cb00324 	ldcne	3, cr0, [r0], #144	; 0x90
    11dc:	4c220000 	stcmi	0, cr0, [r2], #-0
    11e0:	8c00000a 	stchi	0, cr0, [r0], {10}
    11e4:	0100000a 	tsteq	r0, sl
    11e8:	0a945000 	beq	fe5151f0 <_ebss+0xde514e74>
    11ec:	0aa00000 	beq	fe8011f4 <_ebss+0xde800e78>
    11f0:	00010000 	andeq	r0, r1, r0
    11f4:	000aa052 	andeq	sl, sl, r2, asr r0
    11f8:	000ad200 	andeq	sp, sl, r0, lsl #4
    11fc:	50000100 	andpl	r0, r0, r0, lsl #2
    1200:	00000ad2 	ldrdeq	r0, [r0], -r2
    1204:	00000ad6 	ldrdeq	r0, [r0], -r6
    1208:	01f30004 	mvnseq	r0, r4
    120c:	0ad69f50 	beq	ff5a8f54 <_ebss+0xdf5a8bd8>
    1210:	0afc0000 	beq	fff01218 <_ebss+0xdff00e9c>
    1214:	00010000 	andeq	r0, r1, r0
    1218:	00000050 	andeq	r0, r0, r0, asr r0
	...
    1224:	00000303 	andeq	r0, r0, r3, lsl #6
	...
    1230:	000a1800 	andeq	r1, sl, r0, lsl #16
    1234:	000a7800 	andeq	r7, sl, r0, lsl #16
    1238:	51000100 	mrspl	r0, (UNDEF: 16)
    123c:	00000a78 	andeq	r0, r0, r8, ror sl
    1240:	00000a94 	muleq	r0, r4, sl
    1244:	01f30004 	mvnseq	r0, r4
    1248:	0a949f51 	beq	fe528f94 <_ebss+0xde528c18>
    124c:	0a9c0000 	beq	fe701254 <_ebss+0xde700ed8>
    1250:	00050000 	andeq	r0, r5, r0
    1254:	24340074 	ldrtcs	r0, [r4], #-116	; 0xffffff8c
    1258:	000a9c9f 	muleq	sl, pc, ip	; <UNPREDICTABLE>
    125c:	000aa000 	andeq	sl, sl, r0
    1260:	50000100 	andpl	r0, r0, r0, lsl #2
    1264:	00000aa0 	andeq	r0, r0, r0, lsr #21
    1268:	00000ac0 	andeq	r0, r0, r0, asr #21
    126c:	c0510001 	subsgt	r0, r1, r1
    1270:	ce00000a 	cdpgt	0, 0, cr0, cr0, cr10, {0}
    1274:	0400000a 	streq	r0, [r0], #-10
    1278:	5101f300 	mrspl	pc, SP_irq	; <UNPREDICTABLE>
    127c:	000ace9f 	muleq	sl, pc, lr	; <UNPREDICTABLE>
    1280:	000ada00 	andeq	sp, sl, r0, lsl #20
    1284:	51000100 	mrspl	r0, (UNDEF: 16)
    1288:	00000ada 	ldrdeq	r0, [r0], -sl
    128c:	00000afc 	strdeq	r0, [r0], -ip
    1290:	01f30004 	mvnseq	r0, r4
    1294:	00009f51 	andeq	r9, r0, r1, asr pc
	...
    12a8:	0a6c0000 	beq	1b012b0 <_etext+0x1aff554>
    12ac:	0a7c0000 	beq	1f012b4 <_etext+0x1eff558>
    12b0:	00010000 	andeq	r0, r1, r0
    12b4:	000aa053 	andeq	sl, sl, r3, asr r0
    12b8:	000aba00 	andeq	fp, sl, r0, lsl #20
    12bc:	53000100 	movwpl	r0, #256	; 0x100
    12c0:	00000aba 			; <UNDEFINED> instruction: 0x00000aba
    12c4:	00000ac0 	andeq	r0, r0, r0, asr #21
    12c8:	0070000c 	rsbseq	r0, r0, ip
    12cc:	007125f7 	ldrshteq	r2, [r1], #-87	; 0xffffffa9
    12d0:	f71b25f7 			; <UNDEFINED> instruction: 0xf71b25f7
    12d4:	0ac09f00 	beq	ff028edc <_ebss+0xdf028b60>
    12d8:	0ace0000 	beq	ff3812e0 <_ebss+0xdf380f64>
    12dc:	000d0000 	andeq	r0, sp, r0
    12e0:	25f70070 	ldrbcs	r0, [r7, #112]!	; 0x70
    12e4:	f75101f3 			; <UNDEFINED> instruction: 0xf75101f3
    12e8:	00f71b25 	rscseq	r1, r7, r5, lsr #22
    12ec:	000ad69f 	muleq	sl, pc, r6	; <UNPREDICTABLE>
    12f0:	000ade00 	andeq	sp, sl, r0, lsl #28
    12f4:	53000100 	movwpl	r0, #256	; 0x100
    12f8:	00000ade 	ldrdeq	r0, [r0], -lr
    12fc:	00000afc 	strdeq	r0, [r0], -ip
    1300:	0070000d 	rsbseq	r0, r0, sp
    1304:	01f325f7 	ldrsheq	r2, [r3, #87]!	; 0x57
    1308:	1b25f751 	blne	97f054 <_etext+0x97d2f8>
    130c:	009f00f7 	ldrsheq	r0, [pc], r7
	...
    1318:	c0000000 	andgt	r0, r0, r0
    131c:	cc00000a 	stcgt	0, cr0, [r0], {10}
    1320:	0100000a 	tsteq	r0, sl
    1324:	0acc5100 	beq	ff31572c <_ebss+0xdf3153b0>
    1328:	0ace0000 	beq	ff381330 <_ebss+0xdf380fb4>
    132c:	000d0000 	andeq	r0, sp, r0
    1330:	25f70075 	ldrbcs	r0, [r7, #117]!	; 0x75
    1334:	f75101f3 			; <UNDEFINED> instruction: 0xf75101f3
    1338:	00f71b25 	rscseq	r1, r7, r5, lsr #22
    133c:	0000009f 	muleq	r0, pc, r0	; <UNPREDICTABLE>
    1340:	00000000 	andeq	r0, r0, r0
    1344:	26000000 	strcs	r0, [r0], -r0
    1348:	5600000a 	strpl	r0, [r0], -sl
    134c:	0100000a 	tsteq	r0, sl
    1350:	00005200 	andeq	r5, r0, r0, lsl #4
	...
    135c:	09e40000 	stmibeq	r4!, {}^	; <UNPREDICTABLE>
    1360:	09ea0000 	stmibeq	sl!, {}^	; <UNPREDICTABLE>
    1364:	00010000 	andeq	r0, r1, r0
    1368:	0009ea50 	andeq	lr, r9, r0, asr sl
    136c:	0009f800 	andeq	pc, r9, r0, lsl #16
    1370:	f3000400 	vshl.u8	d0, d0, d0
    1374:	009f5001 	addseq	r5, pc, r1
	...
    1380:	d4000000 	strle	r0, [r0], #-0
    1384:	da000009 	ble	13b0 <SysCtlClockGet+0x194>
    1388:	01000009 	tsteq	r0, r9
    138c:	09da5000 	ldmibeq	sl, {ip, lr}^
    1390:	09e40000 	stmibeq	r4!, {}^	; <UNPREDICTABLE>
    1394:	00040000 	andeq	r0, r4, r0
    1398:	9f5001f3 	svcls	0x005001f3
	...
    13a8:	0000093c 	andeq	r0, r0, ip, lsr r9
    13ac:	00000952 	andeq	r0, r0, r2, asr r9
    13b0:	52500001 	subspl	r0, r0, #1
    13b4:	60000009 	andvs	r0, r0, r9
    13b8:	04000009 	streq	r0, [r0], #-9
    13bc:	5001f300 	andpl	pc, r1, r0, lsl #6
    13c0:	0000009f 	muleq	r0, pc, r0	; <UNPREDICTABLE>
	...
    13cc:	00000101 	andeq	r0, r0, r1, lsl #2
    13d0:	00000000 	andeq	r0, r0, r0
    13d4:	0006d600 	andeq	sp, r6, r0, lsl #12
    13d8:	00072000 	andeq	r2, r7, r0
    13dc:	52000100 	andpl	r0, r0, #0, 2
    13e0:	00000724 	andeq	r0, r0, r4, lsr #14
    13e4:	00000764 	andeq	r0, r0, r4, ror #14
    13e8:	64520001 	ldrbvs	r0, [r2], #-1
    13ec:	6c000007 	stcvs	0, cr0, [r0], {7}
    13f0:	07000007 	streq	r0, [r0, -r7]
    13f4:	40007200 	andmi	r7, r0, r0, lsl #4
    13f8:	9f212442 	svcls	0x00212442
    13fc:	0000077a 	andeq	r0, r0, sl, ror r7
    1400:	000007c8 	andeq	r0, r0, r8, asr #15
    1404:	d8520001 	ldmdale	r2, {r0}^
    1408:	06000007 	streq	r0, [r0], -r7
    140c:	01000008 	tsteq	r0, r8
    1410:	081c5200 	ldmdaeq	ip, {r9, ip, lr}
    1414:	09040000 	stmdbeq	r4, {}	; <UNPREDICTABLE>
    1418:	00010000 	andeq	r0, r1, r0
    141c:	00000052 	andeq	r0, r0, r2, asr r0
	...
    142c:	0006d800 	andeq	sp, r6, r0, lsl #16
    1430:	00072000 	andeq	r2, r7, r0
    1434:	53000100 	movwpl	r0, #256	; 0x100
    1438:	00000724 	andeq	r0, r0, r4, lsr #14
    143c:	000007ce 	andeq	r0, r0, lr, asr #15
    1440:	d8530001 	ldmdale	r3, {r0}^
    1444:	12000007 	andne	r0, r0, #7
    1448:	01000008 	tsteq	r0, r8
    144c:	081c5300 	ldmdaeq	ip, {r8, r9, ip, lr}
    1450:	09040000 	stmdbeq	r4, {}	; <UNPREDICTABLE>
    1454:	00010000 	andeq	r0, r1, r0
    1458:	00000053 	andeq	r0, r0, r3, asr r0
	...
    1464:	00073c00 	andeq	r3, r7, r0, lsl #24
    1468:	00076000 	andeq	r6, r7, r0
    146c:	51000100 	mrspl	r0, (UNDEF: 16)
    1470:	000007de 	ldrdeq	r0, [r0], -lr
    1474:	00000800 	andeq	r0, r0, r0, lsl #16
    1478:	00510001 	subseq	r0, r1, r1
	...
    1494:	00071400 	andeq	r1, r7, r0, lsl #8
    1498:	00072400 	andeq	r2, r7, r0, lsl #8
    149c:	50000100 	andpl	r0, r0, r0, lsl #2
    14a0:	00000732 	andeq	r0, r0, r2, lsr r7
    14a4:	00000754 	andeq	r0, r0, r4, asr r7
    14a8:	58500001 	ldmdapl	r0, {r0}^
    14ac:	6c000007 	stcvs	0, cr0, [r0], {7}
    14b0:	01000007 	tsteq	r0, r7
    14b4:	07785000 	ldrbeq	r5, [r8, -r0]!
    14b8:	077a0000 	ldrbeq	r0, [sl, -r0]!
    14bc:	00010000 	andeq	r0, r1, r0
    14c0:	0007c650 	andeq	ip, r7, r0, asr r6
    14c4:	0007ca00 	andeq	ip, r7, r0, lsl #20
    14c8:	50000100 	andpl	r0, r0, r0, lsl #2
    14cc:	000007d6 	ldrdeq	r0, [r0], -r6
    14d0:	000007d8 	ldrdeq	r0, [r0], -r8
    14d4:	de500001 	cdple	0, 5, cr0, cr0, cr1, {0}
    14d8:	fa000007 	blx	14fc <SysCtlPLLVerificationSet+0x8>
    14dc:	01000007 	tsteq	r0, r7
    14e0:	07fe5000 	ldrbeq	r5, [lr, r0]!
    14e4:	08000000 	stmdaeq	r0, {}	; <UNPREDICTABLE>
    14e8:	00010000 	andeq	r0, r1, r0
    14ec:	00081a50 	andeq	r1, r8, r0, asr sl
    14f0:	00081c00 	andeq	r1, r8, r0, lsl #24
    14f4:	50000100 	andpl	r0, r0, r0, lsl #2
	...
    150c:	00000558 	andeq	r0, r0, r8, asr r5
    1510:	00000590 	muleq	r0, r0, r5
    1514:	90500001 	subsls	r0, r0, r1
    1518:	70000005 	andvc	r0, r0, r5
    151c:	01000006 	tsteq	r0, r6
    1520:	06705500 	ldrbteq	r5, [r0], -r0, lsl #10
    1524:	06760000 	ldrbteq	r0, [r6], -r0
    1528:	00040000 	andeq	r0, r4, r0
    152c:	9f5001f3 	svcls	0x005001f3
    1530:	00000676 	andeq	r0, r0, r6, ror r6
    1534:	00000680 	andeq	r0, r0, r0, lsl #13
    1538:	80550001 	subshi	r0, r5, r1
    153c:	8a000006 	bhi	155c <SysCtlUSBPLLDisable+0x8>
    1540:	01000006 	tsteq	r0, r6
    1544:	068a5000 	streq	r5, [sl], r0
    1548:	06d00000 	ldrbeq	r0, [r0], r0
    154c:	00010000 	andeq	r0, r1, r0
    1550:	00000055 	andeq	r0, r0, r5, asr r0
	...
    155c:	52000202 	andpl	r0, r0, #536870912	; 0x20000000
    1560:	54000006 	strpl	r0, [r0], #-6
    1564:	03000006 	movweq	r0, #6
    1568:	9f7f7300 	svcls	0x007f7300
    156c:	00000654 	andeq	r0, r0, r4, asr r6
    1570:	00000656 	andeq	r0, r0, r6, asr r6
    1574:	56530001 	ldrbpl	r0, [r3], -r1
    1578:	5c000006 	stcpl	0, cr0, [r0], {6}
    157c:	03000006 	movweq	r0, #6
    1580:	9f7f7300 	svcls	0x007f7300
	...
    158c:	00010100 	andeq	r0, r1, r0, lsl #2
	...
    15a0:	057e0000 	ldrbeq	r0, [lr, #-0]!
    15a4:	05800000 	streq	r0, [r0]
    15a8:	00010000 	andeq	r0, r1, r0
    15ac:	00058053 	andeq	r8, r5, r3, asr r0
    15b0:	00058800 	andeq	r8, r5, r0, lsl #16
    15b4:	73000700 	movwvc	r0, #1792	; 0x700
    15b8:	08000a00 	stmdaeq	r0, {r9, fp}
    15bc:	05889f21 	streq	r9, [r8, #3873]	; 0xf21
    15c0:	060e0000 	streq	r0, [lr], -r0
    15c4:	00010000 	andeq	r0, r1, r0
    15c8:	00060e58 	andeq	r0, r6, r8, asr lr
    15cc:	00062400 	andeq	r2, r6, r0, lsl #8
    15d0:	52000100 	andpl	r0, r0, #0, 2
    15d4:	00000624 	andeq	r0, r0, r4, lsr #12
    15d8:	0000062c 	andeq	r0, r0, ip, lsr #12
    15dc:	0075000a 	rsbseq	r0, r5, sl
    15e0:	1a30000a 	bne	c01610 <_etext+0xbff8b4>
    15e4:	9f210078 	svcls	0x00210078
    15e8:	0000062c 	andeq	r0, r0, ip, lsr #12
    15ec:	0000063c 	andeq	r0, r0, ip, lsr r6
    15f0:	3c520001 	mrrccc	0, 0, r0, r2, cr1
    15f4:	70000006 	andvc	r0, r0, r6
    15f8:	01000006 	tsteq	r0, r6
    15fc:	06705400 	ldrbteq	r5, [r0], -r0, lsl #8
    1600:	06720000 	ldrbteq	r0, [r2], -r0
    1604:	00020000 	andeq	r0, r2, r0
    1608:	06760072 			; <UNDEFINED> instruction: 0x06760072
    160c:	06800000 	streq	r0, [r0], r0
    1610:	00010000 	andeq	r0, r1, r0
    1614:	00068a58 	andeq	r8, r6, r8, asr sl
    1618:	00069a00 	andeq	r9, r6, r0, lsl #20
    161c:	54000100 	strpl	r0, [r0], #-256	; 0xffffff00
    1620:	0000069a 	muleq	r0, sl, r6
    1624:	000006d0 	ldrdeq	r0, [r0], -r0	; <UNPREDICTABLE>
    1628:	00580001 	subseq	r0, r8, r1
	...
    163c:	00000200 	andeq	r0, r0, r0, lsl #4
    1640:	00000100 	andeq	r0, r0, r0, lsl #2
    1644:	00000000 	andeq	r0, r0, r0
    1648:	00000100 	andeq	r0, r0, r0, lsl #2
    164c:	00000000 	andeq	r0, r0, r0
    1650:	00058000 	andeq	r8, r5, r0
    1654:	00059000 	andeq	r9, r5, r0
    1658:	54000100 	strpl	r0, [r0], #-256	; 0xffffff00
    165c:	00000590 	muleq	r0, r0, r5
    1660:	000005b8 			; <UNDEFINED> instruction: 0x000005b8
    1664:	b8500001 	ldmdalt	r0, {r0}^
    1668:	ce000005 	cdpgt	0, 0, cr0, cr0, cr5, {0}
    166c:	07000005 	streq	r0, [r0, -r5]
    1670:	0a007400 	beq	1e678 <_etext+0x1c91c>
    1674:	9f210800 	svcls	0x00210800
    1678:	000005e6 	andeq	r0, r0, r6, ror #11
    167c:	000005f1 	strdeq	r0, [r0], -r1
    1680:	f1530001 			; <UNDEFINED> instruction: 0xf1530001
    1684:	f6000005 			; <UNDEFINED> instruction: 0xf6000005
    1688:	07000005 	streq	r0, [r0, -r5]
    168c:	0a007400 	beq	1e694 <_etext+0x1c938>
    1690:	9f210800 	svcls	0x00210800
    1694:	0000060e 	andeq	r0, r0, lr, lsl #12
    1698:	00000612 	andeq	r0, r0, r2, lsl r6
    169c:	00730007 	rsbseq	r0, r3, r7
    16a0:	2108000a 	tstcs	r8, sl
    16a4:	0006129f 	muleq	r6, pc, r2	; <UNPREDICTABLE>
    16a8:	00063600 	andeq	r3, r6, r0, lsl #12
    16ac:	51000100 	mrspl	r0, (UNDEF: 16)
    16b0:	0000063c 	andeq	r0, r0, ip, lsr r6
    16b4:	00000646 	andeq	r0, r0, r6, asr #12
    16b8:	46530001 	ldrbmi	r0, [r3], -r1
    16bc:	75000006 	strvc	r0, [r0, #-6]
    16c0:	01000006 	tsteq	r0, r6
    16c4:	06765100 	ldrbteq	r5, [r6], -r0, lsl #2
    16c8:	06800000 	streq	r0, [r0], r0
    16cc:	00010000 	andeq	r0, r1, r0
    16d0:	00068a50 	andeq	r8, r6, r0, asr sl
    16d4:	00069000 	andeq	r9, r6, r0
    16d8:	53000100 	movwpl	r0, #256	; 0x100
    16dc:	00000696 	muleq	r0, r6, r6
    16e0:	00000698 	muleq	r0, r8, r6
    16e4:	98530001 	ldmdals	r3, {r0}^
    16e8:	9a000006 	bls	1708 <UARTEnable+0x4>
    16ec:	01000006 	tsteq	r0, r6
    16f0:	069a5100 	ldreq	r5, [sl], r0, lsl #2
    16f4:	06a60000 	strteq	r0, [r6], r0
    16f8:	00010000 	andeq	r0, r1, r0
    16fc:	0006a650 	andeq	sl, r6, r0, asr r6
    1700:	0006d000 	andeq	sp, r6, r0
    1704:	74000700 	strvc	r0, [r0], #-1792	; 0xfffff900
    1708:	08000a00 	stmdaeq	r0, {r9, fp}
    170c:	00009f21 	andeq	r9, r0, r1, lsr #30
	...
    171c:	05100000 	ldreq	r0, [r0, #-0]
    1720:	05380000 	ldreq	r0, [r8, #-0]!
    1724:	00010000 	andeq	r0, r1, r0
    1728:	00053850 	andeq	r3, r5, r0, asr r8
    172c:	00054800 	andeq	r4, r5, r0, lsl #16
    1730:	0c000500 	cfstr32eq	mvfx0, [r0], {-0}
    1734:	400fe150 	andmi	lr, pc, r0, asr r1	; <UNPREDICTABLE>
    1738:	00000548 	andeq	r0, r0, r8, asr #10
    173c:	0000054a 	andeq	r0, r0, sl, asr #10
    1740:	4a500001 	bmi	140174c <_etext+0x13ff9f0>
    1744:	58000005 	stmdapl	r0, {r0, r2}
    1748:	05000005 	streq	r0, [r0, #-5]
    174c:	e1500c00 	cmp	r0, r0, lsl #24
    1750:	0000400f 	andeq	r4, r0, pc
	...
    175c:	04ec0000 	strbteq	r0, [ip], #0
    1760:	04f20000 	ldrbteq	r0, [r2], #0
    1764:	00010000 	andeq	r0, r1, r0
    1768:	0004f251 	andeq	pc, r4, r1, asr r2	; <UNPREDICTABLE>
    176c:	0004fc00 	andeq	pc, r4, r0, lsl #24
    1770:	f3000400 	vshl.u8	d0, d0, d0
    1774:	009f5101 	addseq	r5, pc, r1, lsl #2
	...
    1780:	dc000000 	stcle	0, cr0, [r0], {-0}
    1784:	e4000004 	str	r0, [r0], #-4
    1788:	01000004 	tsteq	r0, r4
    178c:	04e45000 	strbteq	r5, [r4], #0
    1790:	04ec0000 	strbteq	r0, [ip], #0
    1794:	00040000 	andeq	r0, r4, r0
    1798:	9f5001f3 	svcls	0x005001f3
	...
    17ac:	00000460 	andeq	r0, r0, r0, ror #8
    17b0:	00000466 	andeq	r0, r0, r6, ror #8
    17b4:	66500001 	ldrbvs	r0, [r0], -r1
    17b8:	68000004 	stmdavs	r0, {r2}
    17bc:	04000004 	streq	r0, [r0], #-4
    17c0:	5001f300 	andpl	pc, r1, r0, lsl #6
    17c4:	0004689f 	muleq	r4, pc, r8	; <UNPREDICTABLE>
    17c8:	00046c00 	andeq	r6, r4, r0, lsl #24
    17cc:	50000100 	andpl	r0, r0, r0, lsl #2
    17d0:	0000046c 	andeq	r0, r0, ip, ror #8
    17d4:	00000478 	andeq	r0, r0, r8, ror r4
    17d8:	01f30004 	mvnseq	r0, r4
    17dc:	00009f50 	andeq	r9, r0, r0, asr pc
	...
    17e8:	04440000 	strbeq	r0, [r4], #-0
    17ec:	044c0000 	strbeq	r0, [ip], #-0
    17f0:	00010000 	andeq	r0, r1, r0
    17f4:	00044c50 	andeq	r4, r4, r0, asr ip
    17f8:	00045400 	andeq	r5, r4, r0, lsl #8
    17fc:	f3000400 	vshl.u8	d0, d0, d0
    1800:	009f5001 	addseq	r5, pc, r1
	...
    180c:	34000000 	strcc	r0, [r0], #-0
    1810:	3a000004 	bcc	1828 <UARTCharPutNonBlocking>
    1814:	01000004 	tsteq	r0, r4
    1818:	043a5000 	ldrteq	r5, [sl], #-0
    181c:	04440000 	strbeq	r0, [r4], #-0
    1820:	00040000 	andeq	r0, r4, r0
    1824:	9f5001f3 	svcls	0x005001f3
	...
    1834:	040c0000 	streq	r0, [ip], #-0
    1838:	04120000 	ldreq	r0, [r2], #-0
    183c:	00010000 	andeq	r0, r1, r0
    1840:	00041250 	andeq	r1, r4, r0, asr r2
    1844:	00041500 	andeq	r1, r4, r0, lsl #10
    1848:	51000100 	mrspl	r0, (UNDEF: 16)
    184c:	00000415 	andeq	r0, r0, r5, lsl r4
    1850:	00000420 	andeq	r0, r0, r0, lsr #8
    1854:	01f30004 	mvnseq	r0, r4
    1858:	00009f50 	andeq	r9, r0, r0, asr pc
	...
    1868:	03a00000 	moveq	r0, #0
    186c:	03bc0000 			; <UNDEFINED> instruction: 0x03bc0000
    1870:	00010000 	andeq	r0, r1, r0
    1874:	0003bc50 	andeq	fp, r3, r0, asr ip
    1878:	0003ca00 	andeq	ip, r3, r0, lsl #20
    187c:	f3000400 	vshl.u8	d0, d0, d0
    1880:	ca9f5001 	bgt	fe7d588c <_ebss+0xde7d5510>
    1884:	d2000003 	andle	r0, r0, #3
    1888:	01000003 	tsteq	r0, r3
    188c:	03d25000 	bicseq	r5, r2, #0
    1890:	03f00000 	mvnseq	r0, #0
    1894:	00040000 	andeq	r0, r4, r0
    1898:	9f5001f3 	svcls	0x005001f3
	...
    18ac:	00000354 	andeq	r0, r0, r4, asr r3
    18b0:	00000370 	andeq	r0, r0, r0, ror r3
    18b4:	70500001 	subsvc	r0, r0, r1
    18b8:	7c000003 	stcvc	0, cr0, [r0], {3}
    18bc:	04000003 	streq	r0, [r0], #-3
    18c0:	5001f300 	andpl	pc, r1, r0, lsl #6
    18c4:	00037c9f 	muleq	r3, pc, ip	; <UNPREDICTABLE>
    18c8:	00038400 	andeq	r8, r3, r0, lsl #8
    18cc:	50000100 	andpl	r0, r0, r0, lsl #2
    18d0:	00000384 	andeq	r0, r0, r4, lsl #7
    18d4:	000003a0 	andeq	r0, r0, r0, lsr #7
    18d8:	01f30004 	mvnseq	r0, r4
    18dc:	00009f50 	andeq	r9, r0, r0, asr pc
	...
    18ec:	03040000 	movweq	r0, #16384	; 0x4000
    18f0:	03200000 	nopeq	{0}	; <UNPREDICTABLE>
    18f4:	00010000 	andeq	r0, r1, r0
    18f8:	00032050 	andeq	r2, r3, r0, asr r0
    18fc:	00032e00 	andeq	r2, r3, r0, lsl #28
    1900:	f3000400 	vshl.u8	d0, d0, d0
    1904:	2e9f5001 	cdpcs	0, 9, cr5, cr15, cr1, {0}
    1908:	36000003 	strcc	r0, [r0], -r3
    190c:	01000003 	tsteq	r0, r3
    1910:	03365000 	teqeq	r6, #0
    1914:	03540000 	cmpeq	r4, #0
    1918:	00040000 	andeq	r0, r4, r0
    191c:	9f5001f3 	svcls	0x005001f3
	...
    1930:	000002b8 			; <UNDEFINED> instruction: 0x000002b8
    1934:	000002d4 	ldrdeq	r0, [r0], -r4
    1938:	d4500001 	ldrble	r0, [r0], #-1
    193c:	e0000002 	and	r0, r0, r2
    1940:	04000002 	streq	r0, [r0], #-2
    1944:	5001f300 	andpl	pc, r1, r0, lsl #6
    1948:	0002e09f 	muleq	r2, pc, r0	; <UNPREDICTABLE>
    194c:	0002e800 	andeq	lr, r2, r0, lsl #16
    1950:	50000100 	andpl	r0, r0, r0, lsl #2
    1954:	000002e8 	andeq	r0, r0, r8, ror #5
    1958:	00000304 	andeq	r0, r0, r4, lsl #6
    195c:	01f30004 	mvnseq	r0, r4
    1960:	00009f50 	andeq	r9, r0, r0, asr pc
	...
    1970:	02680000 	rsbeq	r0, r8, #0
    1974:	02840000 	addeq	r0, r4, #0
    1978:	00010000 	andeq	r0, r1, r0
    197c:	00028450 	andeq	r8, r2, r0, asr r4
    1980:	00029200 	andeq	r9, r2, r0, lsl #4
    1984:	f3000400 	vshl.u8	d0, d0, d0
    1988:	929f5001 	addsls	r5, pc, #1
    198c:	9a000002 	bls	199c <UART9BitAddrSend+0x28>
    1990:	01000002 	tsteq	r0, r2
    1994:	029a5000 	addseq	r5, sl, #0
    1998:	02b80000 	adcseq	r0, r8, #0
    199c:	00040000 	andeq	r0, r4, r0
    19a0:	9f5001f3 	svcls	0x005001f3
	...
    19b4:	0000021c 	andeq	r0, r0, ip, lsl r2
    19b8:	00000238 	andeq	r0, r0, r8, lsr r2
    19bc:	38500001 	ldmdacc	r0, {r0}^
    19c0:	44000002 	strmi	r0, [r0], #-2
    19c4:	04000002 	streq	r0, [r0], #-2
    19c8:	5001f300 	andpl	pc, r1, r0, lsl #6
    19cc:	0002449f 	muleq	r2, pc, r4	; <UNPREDICTABLE>
    19d0:	00024c00 	andeq	r4, r2, r0, lsl #24
    19d4:	50000100 	andpl	r0, r0, r0, lsl #2
    19d8:	0000024c 	andeq	r0, r0, ip, asr #4
    19dc:	00000268 	andeq	r0, r0, r8, ror #4
    19e0:	01f30004 	mvnseq	r0, r4
    19e4:	00009f50 	andeq	r9, r0, r0, asr pc
	...
    19f4:	00000190 	muleq	r0, r0, r1
    19f8:	000001ae 	andeq	r0, r0, lr, lsr #3
    19fc:	ae500001 	cdpge	0, 5, cr0, cr0, cr1, {0}
    1a00:	dc000001 	stcle	0, cr0, [r0], {1}
    1a04:	04000001 	streq	r0, [r0], #-1
    1a08:	5001f300 	andpl	pc, r1, r0, lsl #6
    1a0c:	0001dc9f 	muleq	r1, pc, ip	; <UNPREDICTABLE>
    1a10:	00021c00 	andeq	r1, r2, r0, lsl #24
    1a14:	50000100 	andpl	r0, r0, r0, lsl #2
	...
    1a24:	00000144 	andeq	r0, r0, r4, asr #2
    1a28:	00000162 	andeq	r0, r0, r2, ror #2
    1a2c:	62500001 	subsvs	r0, r0, #1
    1a30:	90000001 	andls	r0, r0, r1
    1a34:	01000001 	tsteq	r0, r1
    1a38:	00005000 	andeq	r5, r0, r0
	...
    1a44:	00000148 	andeq	r0, r0, r8, asr #2
    1a48:	00000162 	andeq	r0, r0, r2, ror #2
    1a4c:	00500001 	subseq	r0, r0, r1
    1a50:	00000000 	andeq	r0, r0, r0
    1a54:	03000000 	movweq	r0, #0
    1a58:	48000000 	stmdami	r0, {}	; <UNPREDICTABLE>
    1a5c:	4c000001 	stcmi	0, cr0, [r0], {1}
    1a60:	02000001 	andeq	r0, r0, #1
    1a64:	4c9f3000 	ldcmi	0, cr3, [pc], {0}
    1a68:	60000001 	andvs	r0, r0, r1
    1a6c:	01000001 	tsteq	r0, r1
    1a70:	00005300 	andeq	r5, r0, r0, lsl #6
	...
    1a7c:	00f80000 	rscseq	r0, r8, r0
    1a80:	01160000 	tsteq	r6, r0
    1a84:	00010000 	andeq	r0, r1, r0
    1a88:	00011650 	andeq	r1, r1, r0, asr r6
    1a8c:	00014400 	andeq	r4, r1, r0, lsl #8
    1a90:	50000100 	andpl	r0, r0, r0, lsl #2
	...
    1a9c:	00fc0000 	rscseq	r0, ip, r0
    1aa0:	01160000 	tsteq	r6, r0
    1aa4:	00010000 	andeq	r0, r1, r0
    1aa8:	00000050 	andeq	r0, r0, r0, asr r0
    1aac:	00000000 	andeq	r0, r0, r0
    1ab0:	00000300 	andeq	r0, r0, r0, lsl #6
    1ab4:	0000fc00 	andeq	pc, r0, r0, lsl #24
    1ab8:	00010000 	andeq	r0, r1, r0
    1abc:	30000200 	andcc	r0, r0, r0, lsl #4
    1ac0:	0001009f 	muleq	r1, pc, r0	; <UNPREDICTABLE>
    1ac4:	00011400 	andeq	r1, r1, r0, lsl #8
    1ac8:	53000100 	movwpl	r0, #256	; 0x100
	...
    1ad8:	000000ac 	andeq	r0, r0, ip, lsr #1
    1adc:	000000ca 	andeq	r0, r0, sl, asr #1
    1ae0:	ca500001 	bgt	1401aec <_etext+0x13ffd90>
    1ae4:	e2000000 	and	r0, r0, #0
    1ae8:	01000000 	mrseq	r0, (UNDEF: 0)
    1aec:	00005000 	andeq	r5, r0, r0
	...
    1af8:	000000b0 	strheq	r0, [r0], -r0	; <UNPREDICTABLE>
    1afc:	000000ca 	andeq	r0, r0, sl, asr #1
    1b00:	00500001 	subseq	r0, r0, r1
    1b04:	00000000 	andeq	r0, r0, r0
    1b08:	03000000 	movweq	r0, #0
    1b0c:	b0000000 	andlt	r0, r0, r0
    1b10:	b4000000 	strlt	r0, [r0], #-0
    1b14:	02000000 	andeq	r0, r0, #0
    1b18:	b49f3000 	ldrlt	r3, [pc], #0	; 1b20 <g_pulDisRegs+0xc>
    1b1c:	c8000000 	stmdagt	r0, {}	; <UNPREDICTABLE>
    1b20:	01000000 	mrseq	r0, (UNDEF: 0)
    1b24:	00005300 	andeq	r5, r0, r0, lsl #6
	...
    1b38:	00440000 	subeq	r0, r4, r0
    1b3c:	00640000 	rsbeq	r0, r4, r0
    1b40:	00010000 	andeq	r0, r1, r0
    1b44:	00006450 	andeq	r6, r0, r0, asr r4
    1b48:	00007200 	andeq	r7, r0, r0, lsl #4
    1b4c:	f3000400 	vshl.u8	d0, d0, d0
    1b50:	729f5001 	addsvc	r5, pc, #1
    1b54:	76000000 	strvc	r0, [r0], -r0
    1b58:	01000000 	mrseq	r0, (UNDEF: 0)
    1b5c:	00765000 	rsbseq	r5, r6, r0
    1b60:	00800000 	addeq	r0, r0, r0
    1b64:	00040000 	andeq	r0, r4, r0
    1b68:	9f5001f3 	svcls	0x005001f3
    1b6c:	00000080 	andeq	r0, r0, r0, lsl #1
    1b70:	00000098 	muleq	r0, r8, r0
    1b74:	98500001 	ldmdals	r0, {r0}^
    1b78:	ac000000 	stcge	0, cr0, [r0], {-0}
    1b7c:	04000000 	streq	r0, [r0], #-0
    1b80:	5001f300 	andpl	pc, r1, r0, lsl #6
    1b84:	0000009f 	muleq	r0, pc, r0	; <UNPREDICTABLE>
	...
    1b90:	00003000 	andeq	r3, r0, r0
    1b94:	00003a00 	andeq	r3, r0, r0, lsl #20
    1b98:	50000100 	andpl	r0, r0, r0, lsl #2
    1b9c:	0000003a 	andeq	r0, r0, sl, lsr r0
    1ba0:	00000044 	andeq	r0, r0, r4, asr #32
    1ba4:	01f30004 	mvnseq	r0, r4
    1ba8:	00009f50 	andeq	r9, r0, r0, asr pc
	...
    1bb4:	033c0000 	teqeq	ip, #0
    1bb8:	03560000 	cmpeq	r6, #0
    1bbc:	00010000 	andeq	r0, r1, r0
    1bc0:	00035654 	andeq	r5, r3, r4, asr r6
    1bc4:	00035800 	andeq	r5, r3, r0, lsl #16
    1bc8:	70000200 	andvc	r0, r0, r0, lsl #4
    1bcc:	0000002c 	andeq	r0, r0, ip, lsr #32
	...
    1bd8:	0002f800 	andeq	pc, r2, r0, lsl #16
    1bdc:	0002fc00 	andeq	pc, r2, r0, lsl #24
    1be0:	50000100 	andpl	r0, r0, r0, lsl #2
    1be4:	000002fc 	strdeq	r0, [r0], -ip
    1be8:	000002fe 	strdeq	r0, [r0], -lr
    1bec:	01f30004 	mvnseq	r0, r4
    1bf0:	00009f50 	andeq	r9, r0, r0, asr pc
	...
    1bfc:	02e00000 	rsceq	r0, r0, #0
    1c00:	02e20000 	rsceq	r0, r2, #0
    1c04:	00010000 	andeq	r0, r1, r0
    1c08:	0002e250 	andeq	lr, r2, r0, asr r2
    1c0c:	0002e800 	andeq	lr, r2, r0, lsl #16
    1c10:	f3000400 	vshl.u8	d0, d0, d0
    1c14:	009f5001 	addseq	r5, pc, r1
	...
    1c20:	d4000000 	strle	r0, [r0], #-0
    1c24:	da000002 	ble	1c34 <g_ppulPeripheralMap+0xd4>
    1c28:	01000002 	tsteq	r0, r2
    1c2c:	02da5100 	sbcseq	r5, sl, #0, 2
    1c30:	02de0000 	sbcseq	r0, lr, #0
    1c34:	00040000 	andeq	r0, r4, r0
    1c38:	9f5101f3 	svcls	0x005101f3
	...
    1c48:	000002cc 	andeq	r0, r0, ip, asr #5
    1c4c:	000002d0 	ldrdeq	r0, [r0], -r0	; <UNPREDICTABLE>
    1c50:	d0510001 	subsle	r0, r1, r1
    1c54:	d4000002 	strle	r0, [r0], #-2
    1c58:	04000002 	streq	r0, [r0], #-2
    1c5c:	5101f300 	mrspl	pc, SP_irq	; <UNPREDICTABLE>
    1c60:	0000009f 	muleq	r0, pc, r0	; <UNPREDICTABLE>
	...
    1c70:	0002bc00 	andeq	fp, r2, r0, lsl #24
    1c74:	0002c000 	andeq	ip, r2, r0
    1c78:	50000100 	andpl	r0, r0, r0, lsl #2
    1c7c:	000002c0 	andeq	r0, r0, r0, asr #5
    1c80:	000002c2 	andeq	r0, r0, r2, asr #5
    1c84:	01f30004 	mvnseq	r0, r4
    1c88:	02c29f50 	sbceq	r9, r2, #80, 30	; 0x140
    1c8c:	02c40000 	sbceq	r0, r4, #0
    1c90:	00010000 	andeq	r0, r1, r0
    1c94:	0002c450 	andeq	ip, r2, r0, asr r4
    1c98:	0002c600 	andeq	ip, r2, r0, lsl #12
    1c9c:	f3000400 	vshl.u8	d0, d0, d0
    1ca0:	009f5001 	addseq	r5, pc, r1
	...
    1cac:	b0000000 	andlt	r0, r0, r0
    1cb0:	b6000002 	strlt	r0, [r0], -r2
    1cb4:	01000002 	tsteq	r0, r2
    1cb8:	02b65100 	adcseq	r5, r6, #0, 2
    1cbc:	02ba0000 	adcseq	r0, sl, #0
    1cc0:	00040000 	andeq	r0, r4, r0
    1cc4:	9f5101f3 	svcls	0x005101f3
	...
    1cd4:	000002a8 	andeq	r0, r0, r8, lsr #5
    1cd8:	000002ac 	andeq	r0, r0, ip, lsr #5
    1cdc:	ac510001 	mrrcge	0, 0, r0, r1, cr1
    1ce0:	b0000002 	andlt	r0, r0, r2
    1ce4:	04000002 	streq	r0, [r0], #-2
    1ce8:	5101f300 	mrspl	pc, SP_irq	; <UNPREDICTABLE>
    1cec:	0000009f 	muleq	r0, pc, r0	; <UNPREDICTABLE>
	...
    1cfc:	00026400 	andeq	r6, r2, r0, lsl #8
    1d00:	00028200 	andeq	r8, r2, r0, lsl #4
    1d04:	50000100 	andpl	r0, r0, r0, lsl #2
    1d08:	00000282 	andeq	r0, r0, r2, lsl #5
    1d0c:	00000294 	muleq	r0, r4, r2
    1d10:	01f30004 	mvnseq	r0, r4
    1d14:	02949f50 	addseq	r9, r4, #80, 30	; 0x140
    1d18:	029c0000 	addseq	r0, ip, #0
    1d1c:	00010000 	andeq	r0, r1, r0
    1d20:	00029c50 	andeq	r9, r2, r0, asr ip
    1d24:	0002a800 	andeq	sl, r2, r0, lsl #16
    1d28:	f3000400 	vshl.u8	d0, d0, d0
    1d2c:	009f5001 	addseq	r5, pc, r1
	...
    1d3c:	00026a00 	andeq	r6, r2, r0, lsl #20
    1d40:	00028200 	andeq	r8, r2, r0, lsl #4
    1d44:	50000100 	andpl	r0, r0, r0, lsl #2
    1d48:	00000294 	muleq	r0, r4, r2
    1d4c:	0000029c 	muleq	r0, ip, r2
    1d50:	9c500001 	mrrcls	0, 0, r0, r0, cr1	; <UNPREDICTABLE>
    1d54:	a8000002 	stmdage	r0, {r1}
    1d58:	04000002 	streq	r0, [r0], #-2
    1d5c:	5001f300 	andpl	pc, r1, r0, lsl #6
    1d60:	0000009f 	muleq	r0, pc, r0	; <UNPREDICTABLE>
    1d64:	00000000 	andeq	r0, r0, r0
    1d68:	00000300 	andeq	r0, r0, r0, lsl #6
    1d6c:	6a000000 	bvs	1d74 <_etext+0x18>
    1d70:	70000002 	andvc	r0, r0, r2
    1d74:	02000002 	andeq	r0, r0, #2
    1d78:	709f3000 	addsvc	r3, pc, r0
    1d7c:	82000002 	andhi	r0, r0, #2
    1d80:	01000002 	tsteq	r0, r2
    1d84:	02945300 	addseq	r5, r4, #0, 6
    1d88:	029a0000 	addseq	r0, sl, #0
    1d8c:	00010000 	andeq	r0, r1, r0
    1d90:	00000053 	andeq	r0, r0, r3, asr r0
	...
    1da0:	00022000 	andeq	r2, r2, r0
    1da4:	00023e00 	andeq	r3, r2, r0, lsl #28
    1da8:	50000100 	andpl	r0, r0, r0, lsl #2
    1dac:	0000023e 	andeq	r0, r0, lr, lsr r2
    1db0:	00000250 	andeq	r0, r0, r0, asr r2
    1db4:	01f30004 	mvnseq	r0, r4
    1db8:	02509f50 	subseq	r9, r0, #80, 30	; 0x140
    1dbc:	02580000 	subseq	r0, r8, #0
    1dc0:	00010000 	andeq	r0, r1, r0
    1dc4:	00025850 	andeq	r5, r2, r0, asr r8
    1dc8:	00026400 	andeq	r6, r2, r0, lsl #8
    1dcc:	f3000400 	vshl.u8	d0, d0, d0
    1dd0:	009f5001 	addseq	r5, pc, r1
	...
    1de0:	00022000 	andeq	r2, r2, r0
    1de4:	00024300 	andeq	r4, r2, r0, lsl #6
    1de8:	51000100 	mrspl	r0, (UNDEF: 16)
    1dec:	00000243 	andeq	r0, r0, r3, asr #4
    1df0:	00000250 	andeq	r0, r0, r0, asr r2
    1df4:	01f30004 	mvnseq	r0, r4
    1df8:	02509f51 	subseq	r9, r0, #324	; 0x144
    1dfc:	02640000 	rsbeq	r0, r4, #0
    1e00:	00010000 	andeq	r0, r1, r0
    1e04:	00000051 	andeq	r0, r0, r1, asr r0
	...
    1e10:	26000000 	strcs	r0, [r0], -r0
    1e14:	3e000002 	cdpcc	0, 0, cr0, cr0, cr2, {0}
    1e18:	01000002 	tsteq	r0, r2
    1e1c:	02505000 	subseq	r5, r0, #0
    1e20:	02580000 	subseq	r0, r8, #0
    1e24:	00010000 	andeq	r0, r1, r0
    1e28:	00025850 	andeq	r5, r2, r0, asr r8
    1e2c:	00026400 	andeq	r6, r2, r0, lsl #8
    1e30:	f3000400 	vshl.u8	d0, d0, d0
    1e34:	009f5001 	addseq	r5, pc, r1
    1e38:	00000000 	andeq	r0, r0, r0
    1e3c:	03000000 	movweq	r0, #0
    1e40:	00000000 	andeq	r0, r0, r0
    1e44:	00022600 	andeq	r2, r2, r0, lsl #12
    1e48:	00022c00 	andeq	r2, r2, r0, lsl #24
    1e4c:	30000200 	andcc	r0, r0, r0, lsl #4
    1e50:	00022c9f 	muleq	r2, pc, ip	; <UNPREDICTABLE>
    1e54:	00023e00 	andeq	r3, r2, r0, lsl #28
    1e58:	53000100 	movwpl	r0, #256	; 0x100
    1e5c:	00000250 	andeq	r0, r0, r0, asr r2
    1e60:	00000256 	andeq	r0, r0, r6, asr r2
    1e64:	00530001 	subseq	r0, r3, r1
	...
    1e70:	18000000 	stmdane	r0, {}	; <UNPREDICTABLE>
    1e74:	1a000002 	bne	1e84 <_etext+0x128>
    1e78:	01000002 	tsteq	r0, r2
    1e7c:	021a5000 	andseq	r5, sl, #0
    1e80:	02200000 	eoreq	r0, r0, #0
    1e84:	00040000 	andeq	r0, r4, r0
    1e88:	9f5001f3 	svcls	0x005001f3
	...
    1e98:	00000200 	andeq	r0, r0, r0, lsl #4
    1e9c:	00000204 	andeq	r0, r0, r4, lsl #4
    1ea0:	04500001 	ldrbeq	r0, [r0], #-1
    1ea4:	16000002 	strne	r0, [r0], -r2
    1ea8:	03000002 	movweq	r0, #2
    1eac:	9f547000 	svcls	0x00547000
	...
    1ebc:	000001e0 	andeq	r0, r0, r0, ror #3
    1ec0:	000001ea 	andeq	r0, r0, sl, ror #3
    1ec4:	ea500001 	b	1401ed0 <_etext+0x1400174>
    1ec8:	ee000001 	cdp	0, 0, cr0, cr0, cr1, {0}
    1ecc:	04000001 	streq	r0, [r0], #-1
    1ed0:	5001f300 	andpl	pc, r1, r0, lsl #6
    1ed4:	0000009f 	muleq	r0, pc, r0	; <UNPREDICTABLE>
	...
    1ee0:	0001d000 	andeq	sp, r1, r0
    1ee4:	0001dc00 	andeq	sp, r1, r0, lsl #24
    1ee8:	50000100 	andpl	r0, r0, r0, lsl #2
    1eec:	000001dc 	ldrdeq	r0, [r0], -ip
    1ef0:	000001de 	ldrdeq	r0, [r0], -lr
    1ef4:	68720003 	ldmdavs	r2!, {r0, r1}^
    1ef8:	0000009f 	muleq	r0, pc, r0	; <UNPREDICTABLE>
	...
    1f04:	0001c000 	andeq	ip, r1, r0
    1f08:	0001c800 	andeq	ip, r1, r0, lsl #16
    1f0c:	50000100 	andpl	r0, r0, r0, lsl #2
    1f10:	000001c8 	andeq	r0, r0, r8, asr #3
    1f14:	000001ce 	andeq	r0, r0, lr, asr #3
    1f18:	01f30004 	mvnseq	r0, r4
    1f1c:	00009f50 	andeq	r9, r0, r0, asr pc
	...
    1f28:	01b40000 			; <UNDEFINED> instruction: 0x01b40000
    1f2c:	01b60000 			; <UNDEFINED> instruction: 0x01b60000
    1f30:	00010000 	andeq	r0, r1, r0
    1f34:	0001b650 	andeq	fp, r1, r0, asr r6
    1f38:	0001c000 	andeq	ip, r1, r0
    1f3c:	f3000400 	vshl.u8	d0, d0, d0
    1f40:	009f5001 	addseq	r5, pc, r1
	...
    1f4c:	a8000000 	stmdage	r0, {}	; <UNPREDICTABLE>
    1f50:	aa000001 	bge	1f5c <_etext+0x200>
    1f54:	01000001 	tsteq	r0, r1
    1f58:	01aa5000 			; <UNDEFINED> instruction: 0x01aa5000
    1f5c:	01b40000 			; <UNDEFINED> instruction: 0x01b40000
    1f60:	00040000 	andeq	r0, r4, r0
    1f64:	9f5001f3 	svcls	0x005001f3
	...
    1f74:	000001a0 	andeq	r0, r0, r0, lsr #3
    1f78:	000001a2 	andeq	r0, r0, r2, lsr #3
    1f7c:	a2500001 	subsge	r0, r0, #1
    1f80:	a8000001 	stmdage	r0, {r0}
    1f84:	04000001 	streq	r0, [r0], #-1
    1f88:	5001f300 	andpl	pc, r1, r0, lsl #6
    1f8c:	0000009f 	muleq	r0, pc, r0	; <UNPREDICTABLE>
	...
    1f98:	00019400 	andeq	r9, r1, r0, lsl #8
    1f9c:	00019c00 	andeq	r9, r1, r0, lsl #24
    1fa0:	51000100 	mrspl	r0, (UNDEF: 16)
    1fa4:	0000019c 	muleq	r0, ip, r1
    1fa8:	000001a0 	andeq	r0, r0, r0, lsr #3
    1fac:	01f30004 	mvnseq	r0, r4
    1fb0:	00009f51 	andeq	r9, r0, r1, asr pc
	...
    1fbc:	018c0000 	orreq	r0, ip, r0
    1fc0:	018e0000 	orreq	r0, lr, r0
    1fc4:	00010000 	andeq	r0, r1, r0
    1fc8:	00018e50 	andeq	r8, r1, r0, asr lr
    1fcc:	00019400 	andeq	r9, r1, r0, lsl #8
    1fd0:	f3000400 	vshl.u8	d0, d0, d0
    1fd4:	009f5001 	addseq	r5, pc, r1
	...
    1fe0:	80000000 	andhi	r0, r0, r0
    1fe4:	88000001 	stmdahi	r0, {r0}
    1fe8:	01000001 	tsteq	r0, r1
    1fec:	01885100 	orreq	r5, r8, r0, lsl #2
    1ff0:	018c0000 	orreq	r0, ip, r0
    1ff4:	00040000 	andeq	r0, r4, r0
    1ff8:	9f5101f3 	svcls	0x005101f3
	...
    2008:	00000174 	andeq	r0, r0, r4, ror r1
    200c:	00000176 	andeq	r0, r0, r6, ror r1
    2010:	76500001 	ldrbvc	r0, [r0], -r1
    2014:	7e000001 	cdpvc	0, 0, cr0, cr0, cr1, {0}
    2018:	04000001 	streq	r0, [r0], #-1
    201c:	5001f300 	andpl	pc, r1, r0, lsl #6
    2020:	0000009f 	muleq	r0, pc, r0	; <UNPREDICTABLE>
	...
    202c:	00016c00 	andeq	r6, r1, r0, lsl #24
    2030:	00016e00 	andeq	r6, r1, r0, lsl #28
    2034:	50000100 	andpl	r0, r0, r0, lsl #2
    2038:	0000016e 	andeq	r0, r0, lr, ror #2
    203c:	00000174 	andeq	r0, r0, r4, ror r1
    2040:	01f30004 	mvnseq	r0, r4
    2044:	00009f50 	andeq	r9, r0, r0, asr pc
	...
    2050:	015c0000 	cmpeq	ip, r0
    2054:	01620000 	cmneq	r2, r0
    2058:	00010000 	andeq	r0, r1, r0
    205c:	00016251 	andeq	r6, r1, r1, asr r2
    2060:	00016a00 	andeq	r6, r1, r0, lsl #20
    2064:	f3000400 	vshl.u8	d0, d0, d0
    2068:	009f5101 	addseq	r5, pc, r1, lsl #2
	...
    2074:	00015e00 	andeq	r5, r1, r0, lsl #28
    2078:	00016a00 	andeq	r6, r1, r0, lsl #20
    207c:	53000100 	movwpl	r0, #256	; 0x100
	...
    208c:	00000150 	andeq	r0, r0, r0, asr r1
    2090:	00000156 	andeq	r0, r0, r6, asr r1
    2094:	56510001 	ldrbpl	r0, [r1], -r1
    2098:	5c000001 	stcpl	0, cr0, [r0], {1}
    209c:	04000001 	streq	r0, [r0], #-1
    20a0:	5101f300 	mrspl	pc, SP_irq	; <UNPREDICTABLE>
    20a4:	0000009f 	muleq	r0, pc, r0	; <UNPREDICTABLE>
	...
    20b0:	00015200 	andeq	r5, r1, r0, lsl #4
    20b4:	00015800 	andeq	r5, r1, r0, lsl #16
    20b8:	53000100 	movwpl	r0, #256	; 0x100
    20bc:	00000158 	andeq	r0, r0, r8, asr r1
    20c0:	0000015c 	andeq	r0, r0, ip, asr r1
    20c4:	00510001 	subseq	r0, r1, r1
	...
    20d0:	2e000000 	cdpcs	0, 0, cr0, cr0, cr0, {0}
    20d4:	3a000001 	bcc	20e0 <_etext+0x384>
    20d8:	01000001 	tsteq	r0, r1
    20dc:	013a5300 	teqeq	sl, r0, lsl #6
    20e0:	01400000 	mrseq	r0, (UNDEF: 64)
    20e4:	00020000 	andeq	r0, r2, r0
    20e8:	00002c70 	andeq	r2, r0, r0, ror ip
	...
    20f4:	00940000 	addseq	r0, r4, r0
    20f8:	009c0000 	addseq	r0, ip, r0
    20fc:	00010000 	andeq	r0, r1, r0
    2100:	00009c51 	andeq	r9, r0, r1, asr ip
    2104:	0000bc00 	andeq	fp, r0, r0, lsl #24
    2108:	f3000400 	vshl.u8	d0, d0, d0
    210c:	009f5101 	addseq	r5, pc, r1, lsl #2
	...
    2118:	94000000 	strls	r0, [r0], #-0
    211c:	b2000000 	andlt	r0, r0, #0
    2120:	01000000 	mrseq	r0, (UNDEF: 0)
    2124:	00b25200 	adcseq	r5, r2, r0, lsl #4
    2128:	00bc0000 	adcseq	r0, ip, r0
    212c:	00040000 	andeq	r0, r4, r0
    2130:	9f5201f3 	svcls	0x005201f3
	...
    213c:	00980000 	addseq	r0, r8, r0
    2140:	00b80000 	adcseq	r0, r8, r0
    2144:	00010000 	andeq	r0, r1, r0
    2148:	00000055 	andeq	r0, r0, r5, asr r0
    214c:	00000000 	andeq	r0, r0, r0
    2150:	9a000000 	bls	2158 <_etext+0x3fc>
    2154:	a0000000 	andge	r0, r0, r0
    2158:	01000000 	mrseq	r0, (UNDEF: 0)
    215c:	00005400 	andeq	r5, r0, r0, lsl #8
	...
    2168:	002c0000 	eoreq	r0, ip, r0
    216c:	00600000 	rsbeq	r0, r0, r0
    2170:	00010000 	andeq	r0, r1, r0
    2174:	00006051 	andeq	r6, r0, r1, asr r0
    2178:	00009400 	andeq	r9, r0, r0, lsl #8
    217c:	f3000400 	vshl.u8	d0, d0, d0
    2180:	009f5101 	addseq	r5, pc, r1, lsl #2
	...
    218c:	01010000 	mrseq	r0, (UNDEF: 1)
    2190:	00002c00 	andeq	r2, r0, r0, lsl #24
    2194:	00006400 	andeq	r6, r0, r0, lsl #8
    2198:	52000100 	andpl	r0, r0, #0, 2
    219c:	00000064 	andeq	r0, r0, r4, rrx
    21a0:	00000064 	andeq	r0, r0, r4, rrx
    21a4:	01f30004 	mvnseq	r0, r4
    21a8:	00649f52 	rsbeq	r9, r4, r2, asr pc
    21ac:	00680000 	rsbeq	r0, r8, r0
    21b0:	00010000 	andeq	r0, r1, r0
    21b4:	00000052 	andeq	r0, r0, r2, asr r0
	...
    21c0:	00002c00 	andeq	r2, r0, r0, lsl #24
    21c4:	00007e00 	andeq	r7, r0, r0, lsl #28
    21c8:	53000100 	movwpl	r0, #256	; 0x100
    21cc:	0000007e 	andeq	r0, r0, lr, ror r0
    21d0:	00000094 	muleq	r0, r4, r0
    21d4:	01f30004 	mvnseq	r0, r4
    21d8:	00009f53 	andeq	r9, r0, r3, asr pc
	...
    21e4:	0000006a 	andeq	r0, r0, sl, rrx
    21e8:	00000074 	andeq	r0, r0, r4, ror r0
    21ec:	00720005 	rsbseq	r0, r2, r5
    21f0:	009f2531 	addseq	r2, pc, r1, lsr r5	; <UNPREDICTABLE>
    21f4:	00000000 	andeq	r0, r0, r0
    21f8:	06000000 	streq	r0, [r0], -r0
    21fc:	00002c00 	andeq	r2, r0, r0, lsl #24
    2200:	00004c00 	andeq	r4, r0, r0, lsl #24
    2204:	50000100 	andpl	r0, r0, r0, lsl #2
	...
    2210:	007c0001 	rsbseq	r0, ip, r1
    2214:	00920000 	addseq	r0, r2, r0
    2218:	00010000 	andeq	r0, r1, r0
    221c:	00000050 	andeq	r0, r0, r0, asr r0
	...
    2228:	00001c00 	andeq	r1, r0, r0, lsl #24
    222c:	00002200 	andeq	r2, r0, r0, lsl #4
    2230:	50000100 	andpl	r0, r0, r0, lsl #2
    2234:	00000022 	andeq	r0, r0, r2, lsr #32
    2238:	0000002c 	andeq	r0, r0, ip, lsr #32
    223c:	01f30004 	mvnseq	r0, r4
    2240:	00009f50 	andeq	r9, r0, r0, asr pc
	...
    224c:	0000001e 	andeq	r0, r0, lr, lsl r0
    2250:	00000026 	andeq	r0, r0, r6, lsr #32
    2254:	00530001 	subseq	r0, r3, r1
	...
    2260:	14000000 	strne	r0, [r0], #-0
    2264:	16000000 	strne	r0, [r0], -r0
    2268:	01000000 	mrseq	r0, (UNDEF: 0)
    226c:	00165200 	andseq	r5, r6, r0, lsl #4
    2270:	001a0000 	andseq	r0, sl, r0
    2274:	00040000 	andeq	r0, r4, r0
    2278:	9f5201f3 	svcls	0x005201f3
	...
    2288:	0000000c 	andeq	r0, r0, ip
    228c:	0000000e 	andeq	r0, r0, lr
    2290:	0e500001 	cdpeq	0, 5, cr0, cr0, cr1, {0}
    2294:	14000000 	strne	r0, [r0], #-0
    2298:	04000000 	streq	r0, [r0], #-0
    229c:	5001f300 	andpl	pc, r1, r0, lsl #6
    22a0:	0000009f 	muleq	r0, pc, r0	; <UNPREDICTABLE>
	...
    22b0:	00000800 	andeq	r0, r0, r0, lsl #16
    22b4:	51000100 	mrspl	r0, (UNDEF: 16)
    22b8:	00000008 	andeq	r0, r0, r8
    22bc:	0000000c 	andeq	r0, r0, ip
    22c0:	01f30004 	mvnseq	r0, r4
    22c4:	00009f51 	andeq	r9, r0, r1, asr pc
	...
    22d0:	0000002a 	andeq	r0, r0, sl, lsr #32
    22d4:	0000002a 	andeq	r0, r0, sl, lsr #32
    22d8:	00500001 	subseq	r0, r0, r1
	...
    22e4:	00001800 	andeq	r1, r0, r0, lsl #16
    22e8:	00001800 	andeq	r1, r0, r0, lsl #16
    22ec:	50000100 	andpl	r0, r0, r0, lsl #2
	...
    22f8:	000e0000 	andeq	r0, lr, r0
    22fc:	000e0000 	andeq	r0, lr, r0
    2300:	00010000 	andeq	r0, r1, r0
    2304:	00000050 	andeq	r0, r0, r0, asr r0
    2308:	00000000 	andeq	r0, r0, r0
    230c:	08000000 	stmdaeq	r0, {}	; <UNPREDICTABLE>
    2310:	08000000 	stmdaeq	r0, {}	; <UNPREDICTABLE>
    2314:	01000000 	mrseq	r0, (UNDEF: 0)
    2318:	00005000 	andeq	r5, r0, r0
    231c:	00000000 	andeq	r0, r0, r0
	...

Disassembly of section .debug_aranges:

00000000 <.debug_aranges>:
   0:	0000001c 	andeq	r0, r0, ip, lsl r0
   4:	00000002 	andeq	r0, r0, r2
   8:	00040000 	andeq	r0, r4, r0
   c:	00000000 	andeq	r0, r0, r0
  10:	0000011c 	andeq	r0, r0, ip, lsl r1
  14:	0000005c 	andeq	r0, r0, ip, asr r0
	...
  20:	00000024 	andeq	r0, r0, r4, lsr #32
  24:	01620002 	cmneq	r2, r2
  28:	00040000 	andeq	r0, r4, r0
  2c:	00000000 	andeq	r0, r0, r0
  30:	00000180 	andeq	r0, r0, r0, lsl #3
  34:	00000010 	andeq	r0, r0, r0, lsl r0
  38:	00000194 	muleq	r0, r4, r1
  3c:	0000009c 	muleq	r0, ip, r0
	...
  48:	0000001c 	andeq	r0, r0, ip, lsl r0
  4c:	03450002 	movteq	r0, #20482	; 0x5002
  50:	00040000 	andeq	r0, r4, r0
  54:	00000000 	andeq	r0, r0, r0
  58:	00000230 	andeq	r0, r0, r0, lsr r2
  5c:	0000063a 	andeq	r0, r0, sl, lsr r6
	...
  68:	0000001c 	andeq	r0, r0, ip, lsl r0
  6c:	12510002 	subsne	r0, r1, #2
  70:	00040000 	andeq	r0, r4, r0
  74:	00000000 	andeq	r0, r0, r0
  78:	0000086c 	andeq	r0, r0, ip, ror #16
  7c:	000002e0 	andeq	r0, r0, r0, ror #5
	...
  88:	0000001c 	andeq	r0, r0, ip, lsl r0
  8c:	16dd0002 	ldrbne	r0, [sp], r2
  90:	00040000 	andeq	r0, r4, r0
  94:	00000000 	andeq	r0, r0, r0
  98:	00000b4c 	andeq	r0, r0, ip, asr #22
  9c:	00000afc 	strdeq	r0, [r0], -ip
	...
  a8:	0000001c 	andeq	r0, r0, ip, lsl r0
  ac:	22400002 	subcs	r0, r0, #2
  b0:	00040000 	andeq	r0, r4, r0
  b4:	00000000 	andeq	r0, r0, r0
  b8:	00001648 	andeq	r1, r0, r8, asr #12
  bc:	00000358 	andeq	r0, r0, r8, asr r3
	...
  c8:	0000001c 	andeq	r0, r0, ip, lsl r0
  cc:	2ec60002 	cdpcs	0, 12, cr0, cr6, cr2, {0}
  d0:	00040000 	andeq	r0, r4, r0
  d4:	00000000 	andeq	r0, r0, r0
  d8:	000019a0 	andeq	r1, r0, r0, lsr #19
  dc:	0000002a 	andeq	r0, r0, sl, lsr #32
	...

Disassembly of section .debug_line:

00000000 <.debug_line>:
       0:	000000cc 	andeq	r0, r0, ip, asr #1
       4:	00240003 	eoreq	r0, r4, r3
       8:	01020000 	mrseq	r0, (UNDEF: 2)
       c:	000d0efb 	strdeq	r0, [sp], -fp
      10:	01010101 	tsteq	r1, r1, lsl #2
      14:	01000000 	mrseq	r0, (UNDEF: 0)
      18:	00010000 	andeq	r0, r1, r0
      1c:	72617473 	rsbvc	r7, r1, #1929379840	; 0x73000000
      20:	5f707574 	svcpl	0x00707574
      24:	2e636367 	cdpcs	3, 6, cr6, cr3, cr7, {3}
      28:	00000063 	andeq	r0, r0, r3, rrx
      2c:	01050000 	mrseq	r0, (UNDEF: 5)
      30:	1c020500 	cfstr32ne	mvfx0, [r2], {-0}
      34:	03000001 	movweq	r0, #1
      38:	050101d6 	streq	r0, [r1, #-470]	; 0xfffffe2a
      3c:	04020005 	streq	r0, [r2], #-5
      40:	02001601 	andeq	r1, r0, #1048576	; 0x100000
      44:	05140104 	ldreq	r0, [r4, #-260]	; 0xfffffefc
      48:	0402000a 	streq	r0, [r2], #-10
      4c:	01051001 	tsteq	r5, r1
      50:	20020500 	andcs	r0, r2, r0, lsl #10
      54:	03000001 	movweq	r0, #1
      58:	0505010e 	streq	r0, [r5, #-270]	; 0xfffffef2
      5c:	01040200 	mrseq	r0, R12_usr
      60:	04020016 	streq	r0, [r2], #-22	; 0xffffffea
      64:	0a051401 	beq	145070 <_etext+0x143314>
      68:	01040200 	mrseq	r0, R12_usr
      6c:	00010510 	andeq	r0, r1, r0, lsl r5
      70:	01240205 			; <UNDEFINED> instruction: 0x01240205
      74:	0e030000 	cdpeq	0, 0, cr0, cr3, cr0, {0}
      78:	00050501 	andeq	r0, r5, r1, lsl #10
      7c:	16010402 	strne	r0, [r1], -r2, lsl #8
      80:	01040200 	mrseq	r0, R12_usr
      84:	000a0514 	andeq	r0, sl, r4, lsl r5
      88:	10010402 	andne	r0, r1, r2, lsl #8
      8c:	05000105 	streq	r0, [r0, #-261]	; 0xfffffefb
      90:	00012802 	andeq	r2, r1, r2, lsl #16
      94:	7faf0300 	svcvc	0x00af0300
      98:	13050501 	movwne	r0, #21761	; 0x5501
      9c:	1b051317 	blne	144d00 <_etext+0x142fa4>
      a0:	06050501 	streq	r0, [r5], -r1, lsl #10
      a4:	03010501 	movweq	r0, #5377	; 0x1501
      a8:	05053c79 	streq	r3, [r5, #-3193]	; 0xfffff387
      ac:	06090527 	streq	r0, [r9], -r7, lsr #10
      b0:	06140584 	ldreq	r0, [r4], -r4, lsl #11
      b4:	1b052e01 	blne	14b8c0 <_etext+0x149b64>
      b8:	05052c06 	streq	r2, [r5, #-3078]	; 0xfffff3fa
      bc:	36060106 	strcc	r0, [r6], -r6, lsl #2
      c0:	2f900d03 	svccs	0x00900d03
      c4:	13060105 	movwne	r0, #24837	; 0x6105
      c8:	022d0505 	eoreq	r0, sp, #20971520	; 0x1400000
      cc:	0101000d 	tsteq	r1, sp
      d0:	00000121 	andeq	r0, r0, r1, lsr #2
      d4:	004e0003 	subeq	r0, lr, r3
      d8:	01020000 	mrseq	r0, (UNDEF: 2)
      dc:	000d0efb 	strdeq	r0, [sp], -fp
      e0:	01010101 	tsteq	r1, r1, lsl #2
      e4:	01000000 	mrseq	r0, (UNDEF: 0)
      e8:	64010000 	strvs	r0, [r1], #-0
      ec:	65766972 	ldrbvs	r6, [r6, #-2418]!	; 0xfffff68e
      f0:	62696c72 	rsbvs	r6, r9, #29184	; 0x7200
      f4:	61750000 	cmnvs	r5, r0
      f8:	705f7472 	subsvc	r7, pc, r2, ror r4	; <UNPREDICTABLE>
      fc:	656c6c6f 	strbvs	r6, [ip, #-3183]!	; 0xfffff391
     100:	00632e64 	rsbeq	r2, r3, r4, ror #28
     104:	73000000 	movwvc	r0, #0
     108:	74637379 	strbtvc	r7, [r3], #-889	; 0xfffffc87
     10c:	00682e6c 	rsbeq	r2, r8, ip, ror #28
     110:	67000001 	strvs	r0, [r0, -r1]
     114:	2e6f6970 			; <UNDEFINED> instruction: 0x2e6f6970
     118:	00010068 	andeq	r0, r1, r8, rrx
     11c:	72617500 	rsbvc	r7, r1, #0, 10
     120:	00682e74 	rsbeq	r2, r8, r4, ror lr
     124:	00000001 	andeq	r0, r0, r1
     128:	05000105 	streq	r0, [r0, #-261]	; 0xfffffefb
     12c:	00018002 	andeq	r8, r1, r2
     130:	01300300 	teqeq	r0, r0, lsl #6
     134:	2f150205 	svccs	0x00150205
     138:	05222f21 	streq	r2, [r2, #-3873]!	; 0xfffff0df
     13c:	02130601 	andseq	r0, r3, #1048576	; 0x100000
     140:	01010004 	tsteq	r1, r4
     144:	05000105 	streq	r0, [r0, #-261]	; 0xfffffefb
     148:	00019402 	andeq	r9, r1, r2, lsl #8
     14c:	00d80300 	sbcseq	r0, r8, r0, lsl #6
     150:	13050501 	movwne	r0, #21761	; 0x5501
     154:	01051813 	tsteq	r5, r3, lsl r8
     158:	01780306 	cmneq	r8, r6, lsl #6
     15c:	05440505 	strbeq	r0, [r4, #-1285]	; 0xfffffafb
     160:	20370317 	eorscs	r0, r7, r7, lsl r3
     164:	05280c05 	streq	r0, [r8, #-3077]!	; 0xfffff3fb
     168:	7fb90301 	svcvc	0x00b90301
     16c:	2805052e 	stmdacs	r5, {r1, r2, r3, r5, r8, sl}
     170:	443d3606 	ldrtmi	r3, [sp], #-1542	; 0xfffff9fa
     174:	9860433d 	stmdals	r0!, {r0, r2, r3, r4, r5, r8, r9, lr}^
     178:	02040200 	andeq	r0, r4, #0, 4
     17c:	00070550 	andeq	r0, r7, r0, asr r5
     180:	14020402 	strne	r0, [r2], #-1026	; 0xfffffbfe
     184:	02000b05 	andeq	r0, r0, #5120	; 0x1400
     188:	05180204 	ldreq	r0, [r8, #-516]	; 0xfffffdfc
     18c:	04020017 	streq	r0, [r2], #-23	; 0xffffffe9
     190:	05010602 	streq	r0, [r1, #-1538]	; 0xfffff9fe
     194:	04020015 	streq	r0, [r2], #-21	; 0xffffffeb
     198:	0b053c02 	bleq	14f1a8 <_etext+0x14d44c>
     19c:	02040200 	andeq	r0, r4, #0, 4
     1a0:	02002806 	andeq	r2, r0, #393216	; 0x60000
     1a4:	05130204 	ldreq	r0, [r3, #-516]	; 0xfffffdfc
     1a8:	04020018 	streq	r0, [r2], #-24	; 0xffffffe8
     1ac:	05110602 	ldreq	r0, [r1, #-1538]	; 0xfffff9fe
     1b0:	0402000b 	streq	r0, [r2], #-11
     1b4:	0c054b02 			; <UNDEFINED> instruction: 0x0c054b02
     1b8:	02040200 	andeq	r0, r4, #0, 4
     1bc:	000b051f 	andeq	r0, fp, pc, lsl r5
     1c0:	2f020402 	svccs	0x00020402
     1c4:	02000e05 	andeq	r0, r0, #5, 28	; 0x50
     1c8:	03060204 	movweq	r0, #25092	; 0x6204
     1cc:	07058209 	streq	r8, [r5, -r9, lsl #4]
     1d0:	02040200 	andeq	r0, r4, #0, 4
     1d4:	04020018 	streq	r0, [r2], #-24	; 0xffffffe8
     1d8:	7a030602 	bvc	c19e8 <_etext+0xbfc8c>
     1dc:	04020001 	streq	r0, [r2], #-1
     1e0:	02002602 	andeq	r2, r0, #2097152	; 0x200000
     1e4:	7a030204 	bvc	c09fc <_etext+0xbeca0>
     1e8:	0023053c 	eoreq	r0, r3, ip, lsr r5
     1ec:	20010402 	andcs	r0, r1, r2, lsl #8
     1f0:	01000e02 	tsteq	r0, r2, lsl #28
     1f4:	0008d401 	andeq	sp, r8, r1, lsl #8
     1f8:	3a000300 	bcc	e00 <SysCtlPeripheralDisable+0x4c>
     1fc:	02000000 	andeq	r0, r0, #0
     200:	0d0efb01 	vstreq	d15, [lr, #-4]
     204:	01010100 	mrseq	r0, (UNDEF: 17)
     208:	00000001 	andeq	r0, r0, r1
     20c:	01000001 	tsteq	r0, r1
     210:	69706700 	ldmdbvs	r0!, {r8, r9, sl, sp, lr}^
     214:	00632e6f 	rsbeq	r2, r3, pc, ror #28
     218:	69000000 	stmdbvs	r0, {}	; <UNPREDICTABLE>
     21c:	7265746e 	rsbvc	r7, r5, #1845493760	; 0x6e000000
     220:	74707572 	ldrbtvc	r7, [r0], #-1394	; 0xfffffa8e
     224:	0000682e 	andeq	r6, r0, lr, lsr #16
     228:	77680000 	strbvc	r0, [r8, -r0]!
     22c:	7079745f 	rsbsvc	r7, r9, pc, asr r4
     230:	682e7365 	stmdavs	lr!, {r0, r2, r5, r6, r8, r9, ip, sp, lr}
     234:	00000000 	andeq	r0, r0, r0
     238:	00010500 	andeq	r0, r1, r0, lsl #10
     23c:	02300205 	eorseq	r0, r0, #1342177280	; 0x50000000
     240:	ff030000 			; <UNDEFINED> instruction: 0xff030000
     244:	05050100 	streq	r0, [r5, #-256]	; 0xffffff00
     248:	12051713 	andne	r1, r5, #4980736	; 0x4c0000
     24c:	08280306 	stmdaeq	r8!, {r1, r2, r8, r9}
     250:	0505203c 	streq	r2, [r5, #-60]	; 0xffffffc4
     254:	05205803 	streq	r5, [r0, #-2051]!	; 0xfffff7fd
     258:	ba2f0312 	blt	bc0ea8 <_etext+0xbbf14c>
     25c:	03050520 	movweq	r0, #21792	; 0x5520
     260:	12052051 	andne	r2, r5, #81	; 0x51
     264:	582e1a03 	stmdapl	lr!, {r0, r1, r9, fp, ip}
     268:	66030505 	strvs	r0, [r3], -r5, lsl #10
     26c:	03120520 	tsteq	r2, #32, 10	; 0x8000000
     270:	0520820c 	streq	r8, [r0, #-524]!	; 0xfffffdf4
     274:	20740305 	rsbscs	r0, r4, r5, lsl #6
     278:	13031205 	movwne	r1, #12805	; 0x3205
     27c:	05052082 	streq	r2, [r5, #-130]	; 0xffffff7e
     280:	05206d03 	streq	r6, [r0, #-3331]!	; 0xfffff2fd
     284:	00e10312 	rsceq	r0, r1, r2, lsl r3
     288:	030105ac 	movweq	r0, #5548	; 0x15ac
     28c:	0505200e 	streq	r2, [r5, #-14]
     290:	207f9103 	rsbscs	r9, pc, r3, lsl #2
     294:	3d031205 	sfmcc	f1, 4, [r3, #-20]	; 0xffffffec
     298:	0505582e 	streq	r5, [r5, #-2094]	; 0xfffff7d2
     29c:	05204303 	streq	r4, [r0, #-771]!	; 0xfffffcfd
     2a0:	00d50312 	sbcseq	r0, r5, r2, lsl r3
     2a4:	0505582e 	streq	r5, [r5, #-2094]	; 0xfffff7d2
     2a8:	207fab03 	rsbscs	sl, pc, r3, lsl #22
     2ac:	c9031205 	stmdbgt	r3, {r0, r2, r9, ip}
     2b0:	05586600 	ldrbeq	r6, [r8, #-1536]	; 0xfffffa00
     2b4:	7fb70305 	svcvc	0x00b70305
     2b8:	03120520 	tsteq	r2, #32, 10	; 0x8000000
     2bc:	05582e21 	ldrbeq	r2, [r8, #-3617]	; 0xfffff1df
     2c0:	205f0305 	subscs	r0, pc, r5, lsl #6
     2c4:	3d031205 	sfmcc	f1, 4, [r3, #-20]	; 0xffffffec
     2c8:	05055866 	streq	r5, [r5, #-2150]	; 0xfffff79a
     2cc:	58204303 	stmdapl	r0!, {r0, r1, r8, r9, lr}
     2d0:	36031205 	strcc	r1, [r3], -r5, lsl #4
     2d4:	6b03202e 	blvs	c8394 <_etext+0xc6638>
     2d8:	22032020 	andcs	r2, r3, #32
     2dc:	18032020 	stmdane	r3, {r5, sp}
     2e0:	05052020 	streq	r2, [r5, #-32]	; 0xffffffe0
     2e4:	207fa503 	rsbscs	sl, pc, r3, lsl #10
     2e8:	03120520 	tsteq	r2, #32, 10	; 0x8000000
     2ec:	0320201a 			; <UNDEFINED> instruction: 0x0320201a
     2f0:	05202035 	streq	r2, [r0, #-53]!	; 0xffffffcb
     2f4:	c7030601 	strgt	r0, [r3, -r1, lsl #12]
     2f8:	2205e400 	andcs	lr, r5, #0, 8
     2fc:	142a0516 	strtne	r0, [sl], #-1302	; 0xfffffaea
     300:	05170505 	ldreq	r0, [r7, #-1285]	; 0xfffffafb
     304:	05130624 	ldreq	r0, [r3, #-1572]	; 0xfffff9dc
     308:	2e740301 	cdpcs	3, 7, cr0, cr4, cr1, {0}
     30c:	0c034905 			; <UNDEFINED> instruction: 0x0c034905
     310:	2e240520 	cfsh64cs	mvdx0, mvdx4, #16
     314:	052e4905 	streq	r4, [lr, #-2309]!	; 0xfffff6fb
     318:	05053b20 	streq	r3, [r5, #-2848]	; 0xfffff4e0
     31c:	26052306 	strcs	r2, [r5], -r6, lsl #6
     320:	01051306 	tsteq	r5, r6, lsl #6
     324:	2b4d0531 	blcs	13417f0 <_etext+0x133fa94>
     328:	05202605 	streq	r2, [r0, #-1541]!	; 0xfffff9fb
     32c:	052e2e4d 	streq	r2, [lr, #-3661]!	; 0xfffff1b3
     330:	01052d22 	tsteq	r5, r2, lsr #26
     334:	14030624 	strne	r0, [r3], #-1572	; 0xfffff9dc
     338:	13050520 	movwne	r0, #21792	; 0x5520
     33c:	05172205 	ldreq	r2, [r7, #-517]	; 0xfffffdfb
     340:	05051316 	streq	r1, [r5, #-790]	; 0xfffffcea
     344:	0f051717 	svceq	0x00051717
     348:	0b050d06 	bleq	143768 <_etext+0x141a0c>
     34c:	06050525 	streq	r0, [r5], -r5, lsr #10
     350:	060f052f 	streq	r0, [pc], -pc, lsr #10
     354:	05017a03 	streq	r7, [r1, #-2563]	; 0xfffff5fd
     358:	0d053514 	cfstr32eq	mvfx3, [r5, #-80]	; 0xffffffb0
     35c:	0605051f 			; <UNDEFINED> instruction: 0x0605051f
     360:	0621052f 	strteq	r0, [r1], -pc, lsr #10
     364:	3f053c01 	svccc	0x00053c01
     368:	4b010520 	blmi	417f0 <_etext+0x3fa94>
     36c:	2e300306 	cdpcs	3, 3, cr0, cr0, cr6, {0}
     370:	05162205 	ldreq	r2, [r6, #-517]	; 0xfffffdfb
     374:	0505154c 	streq	r1, [r5, #-1356]	; 0xfffffab4
     378:	06240517 			; <UNDEFINED> instruction: 0x06240517
     37c:	03010513 	movweq	r0, #5395	; 0x1513
     380:	49052e73 	stmdbmi	r5, {r0, r1, r4, r5, r6, r9, sl, fp, sp}
     384:	05200d03 	streq	r0, [r0, #-3331]!	; 0xfffff2fd
     388:	49052e24 	stmdbmi	r5, {r2, r5, r9, sl, fp, sp}
     38c:	3b20052e 	blcc	80184c <_etext+0x7ffaf0>
     390:	23060505 	movwcs	r0, #25861	; 0x6505
     394:	13062305 	movwne	r2, #25349	; 0x6305
     398:	054a4705 	strbeq	r4, [sl, #-1797]	; 0xfffff8fb
     39c:	0505571f 	streq	r5, [r5, #-1823]	; 0xfffff8e1
     3a0:	24052306 	strcs	r2, [r5], #-774	; 0xfffffcfa
     3a4:	01051306 	tsteq	r5, r6, lsl #6
     3a8:	2c490530 	cfstr64cs	mvdx0, [r9], {48}	; 0x30
     3ac:	05202405 	streq	r2, [r0, #-1029]!	; 0xfffffbfb
     3b0:	052e2e49 	streq	r2, [lr, #-3657]!	; 0xfffff1b7
     3b4:	01052d20 	tsteq	r5, r0, lsr #26
     3b8:	15030623 	strne	r0, [r3, #-1571]	; 0xfffff9dd
     3bc:	13050520 	movwne	r0, #21792	; 0x5520
     3c0:	05172205 	ldreq	r2, [r7, #-517]	; 0xfffffdfb
     3c4:	05051316 	streq	r1, [r5, #-790]	; 0xfffffcea
     3c8:	0f051717 	svceq	0x00051717
     3cc:	01050d06 	tsteq	r5, r6, lsl #26
     3d0:	05207403 	streq	r7, [r0, #-1027]!	; 0xfffffbfd
     3d4:	200c030f 	andcs	r0, ip, pc, lsl #6
     3d8:	05330b05 	ldreq	r0, [r3, #-2821]!	; 0xfffff4fb
     3dc:	052f0605 	streq	r0, [pc, #-1541]!	; fffffddf <_ebss+0xdffffa63>
     3e0:	0501060a 	streq	r0, [r1, #-1546]	; 0xfffff9f6
     3e4:	052f0605 	streq	r0, [pc, #-1541]!	; fffffde7 <_ebss+0xdffffa6b>
     3e8:	0501060b 	streq	r0, [r1, #-1547]	; 0xfffff9f5
     3ec:	052f0605 	streq	r0, [pc, #-1541]!	; fffffdef <_ebss+0xdffffa73>
     3f0:	05010614 	streq	r0, [r1, #-1556]	; 0xfffff9ec
     3f4:	053c2021 	ldreq	r2, [ip, #-33]!	; 0xffffffdf
     3f8:	2105203c 	tstcs	r5, ip, lsr r0
     3fc:	4b01054b 	blmi	41930 <_etext+0x3fbd4>
     400:	3503062e 	strcc	r0, [r3, #-1582]	; 0xfffff9d2
     404:	16220520 	strtne	r0, [r2], -r0, lsr #10
     408:	05163105 	ldreq	r3, [r6, #-261]	; 0xfffffefb
     40c:	05051730 	streq	r1, [r5, #-1840]	; 0xfffff8d0
     410:	06010517 			; <UNDEFINED> instruction: 0x06010517
     414:	05016e03 	streq	r6, [r1, #-3587]	; 0xfffff1fd
     418:	20130325 	andscs	r0, r3, r5, lsr #6
     41c:	052e4b05 	streq	r4, [lr, #-2821]!	; 0xfffff4fb
     420:	4b052025 	blmi	1484bc <_etext+0x146760>
     424:	3b21052e 	blcc	8418e4 <_etext+0x83fb88>
     428:	23060505 	movwcs	r0, #25861	; 0x6505
     42c:	13062505 	movwne	r2, #25861	; 0x6505
     430:	052c4305 	streq	r4, [ip, #-773]!	; 0xfffffcfb
     434:	2505224b 	strcs	r2, [r5, #-587]	; 0xfffffdb5
     438:	2e4b052e 	cdpcs	5, 4, cr0, cr11, cr14, {1}
     43c:	053b2105 	ldreq	r2, [fp, #-261]!	; 0xfffffefb
     440:	05230605 	streq	r0, [r3, #-1541]!	; 0xfffff9fb
     444:	05130625 	ldreq	r0, [r3, #-1573]	; 0xfffff9db
     448:	21054a4b 	tstcs	r5, fp, asr #20
     44c:	06050557 			; <UNDEFINED> instruction: 0x06050557
     450:	06490523 	strbeq	r0, [r9], -r3, lsr #10
     454:	2e240513 	mcrcs	5, 1, r0, cr4, cr3, {0}
     458:	2e49052e 	cdpcs	5, 4, cr0, cr9, cr14, {1}
     45c:	053b2005 	ldreq	r2, [fp, #-5]!
     460:	05270605 	streq	r0, [r7, #-1541]!	; 0xfffff9fb
     464:	05130624 	ldreq	r0, [r3, #-1572]	; 0xfffff9dc
     468:	20054a49 	andcs	r4, r5, r9, asr #20
     46c:	06050549 	streq	r0, [r5], -r9, asr #10
     470:	06240523 	strteq	r0, [r4], -r3, lsr #10
     474:	4a490513 	bmi	12418c8 <_etext+0x123fb6c>
     478:	05492005 	strbeq	r2, [r9, #-5]
     47c:	05230605 	streq	r0, [r3, #-1541]!	; 0xfffff9fb
     480:	05130624 	ldreq	r0, [r3, #-1572]	; 0xfffff9dc
     484:	24052e49 	strcs	r2, [r5], #-3657	; 0xfffff1b7
     488:	2e490520 	cdpcs	5, 4, cr0, cr9, cr0, {1}
     48c:	053b2005 	ldreq	r2, [fp, #-5]!
     490:	05230605 	streq	r0, [r3, #-1541]!	; 0xfffff9fb
     494:	05130649 	ldreq	r0, [r3, #-1609]	; 0xfffff9b7
     498:	04020024 	streq	r0, [r2], #-36	; 0xffffffdc
     49c:	49052e01 	stmdbmi	r5, {r0, r9, sl, fp, sp}
     4a0:	01040200 	mrseq	r0, R12_usr
     4a4:	0020052e 	eoreq	r0, r0, lr, lsr #10
     4a8:	1f010402 	svcne	0x00010402
     4ac:	02000505 	andeq	r0, r0, #20971520	; 0x1400000
     4b0:	03060104 	movweq	r0, #24836	; 0x6104
     4b4:	0b052e09 	bleq	14bce0 <_etext+0x149f84>
     4b8:	02040200 	andeq	r0, r4, #0, 4
     4bc:	32051506 	andcc	r1, r5, #25165824	; 0x1800000
     4c0:	02040200 	andeq	r0, r4, #0, 4
     4c4:	00220549 	eoreq	r0, r2, r9, asr #10
     4c8:	1e020402 	cdpne	4, 0, cr0, cr2, cr2, {0}
     4cc:	02000105 	andeq	r0, r0, #1073741825	; 0x40000001
     4d0:	05240204 	streq	r0, [r4, #-516]!	; 0xfffffdfc
     4d4:	04020024 	streq	r0, [r2], #-36	; 0xffffffdc
     4d8:	2e750302 	cdpcs	3, 7, cr0, cr5, cr2, {0}
     4dc:	02004905 	andeq	r4, r0, #81920	; 0x14000
     4e0:	052d0204 	streq	r0, [sp, #-516]!	; 0xfffffdfc
     4e4:	04020020 	streq	r0, [r2], #-32	; 0xffffffe0
     4e8:	05051f02 	streq	r1, [r5, #-3842]	; 0xfffff0fe
     4ec:	02040200 	andeq	r0, r4, #0, 4
     4f0:	2e090306 	cdpcs	3, 0, cr0, cr9, cr6, {0}
     4f4:	02003205 	andeq	r3, r0, #1342177280	; 0x50000000
     4f8:	14060204 	strne	r0, [r6], #-516	; 0xfffffdfc
     4fc:	02000b05 	andeq	r0, r0, #5120	; 0x1400
     500:	002e0104 	eoreq	r0, lr, r4, lsl #2
     504:	2e010402 	cdpcs	4, 0, cr0, cr1, cr2, {0}
     508:	02003205 	andeq	r3, r0, #1342177280	; 0x50000000
     50c:	052e0104 	streq	r0, [lr, #-260]!	; 0xfffffefc
     510:	04020001 	streq	r0, [r2], #-1
     514:	22052201 	andcs	r2, r5, #268435456	; 0x10000000
     518:	01040200 	mrseq	r0, R12_usr
     51c:	0001051c 	andeq	r0, r1, ip, lsl r5
     520:	24010402 	strcs	r0, [r1], #-1026	; 0xfffffbfe
     524:	20180306 	andscs	r0, r8, r6, lsl #6
     528:	05130505 	ldreq	r0, [r3, #-1285]	; 0xfffffafb
     52c:	16051722 	strne	r1, [r5], -r2, lsr #14
     530:	17050513 	smladne	r5, r3, r5, r0
     534:	06010517 			; <UNDEFINED> instruction: 0x06010517
     538:	05016f03 	streq	r6, [r1, #-3843]	; 0xfffff0fd
     53c:	200c0310 	andcs	r0, ip, r0, lsl r3
     540:	05411405 	strbeq	r1, [r1, #-1029]	; 0xfffffbfb
     544:	30052f15 	andcc	r2, r5, r5, lsl pc
     548:	203d052d 	eorscs	r0, sp, sp, lsr #10
     54c:	4b060505 	blmi	181968 <_etext+0x17fc0c>
     550:	01063e05 	tsteq	r6, r5, lsl #28
     554:	05211505 	streq	r1, [r1, #-1285]!	; 0xfffffafb
     558:	13580605 	cmpne	r8, #5242880	; 0x500000
     55c:	063e0513 			; <UNDEFINED> instruction: 0x063e0513
     560:	21150510 	tstcs	r5, r0, lsl r5
     564:	05583d05 	ldrbeq	r3, [r8, #-3333]	; 0xfffff2fb
     568:	05054b12 	streq	r4, [r5, #-2834]	; 0xfffff4ee
     56c:	13052506 	movwne	r2, #21766	; 0x5506
     570:	14050106 	strne	r0, [r5], #-262	; 0xfffffefa
     574:	2d3b052f 	cfldr32cs	mvfx0, [fp, #-188]!	; 0xffffff44
     578:	4b060505 	blmi	181994 <_etext+0x17fc38>
     57c:	01063c05 	tsteq	r6, r5, lsl #24
     580:	2f211405 	svccs	0x00211405
     584:	0605052e 	streq	r0, [r5], -lr, lsr #10
     588:	3c05133b 	stccc	3, cr1, [r5], {59}	; 0x3b
     58c:	054b1106 	strbeq	r1, [fp, #-262]	; 0xfffffefa
     590:	054b0605 	strbeq	r0, [fp, #-1541]	; 0xfffff9fb
     594:	05130601 	ldreq	r0, [r3, #-1537]	; 0xfffff9ff
     598:	01051f11 	tsteq	r5, r1, lsl pc
     59c:	14030621 	strne	r0, [r3], #-1569	; 0xfffff9df
     5a0:	1622052e 	strtne	r0, [r2], -lr, lsr #10
     5a4:	05170505 	ldreq	r0, [r7, #-1285]	; 0xfffffafb
     5a8:	3c01061f 	stccc	6, cr0, [r1], {31}
     5ac:	062f0105 	strteq	r0, [pc], -r5, lsl #2
     5b0:	05201403 	streq	r1, [r0, #-1027]!	; 0xfffffbfd
     5b4:	05051622 	streq	r1, [r5, #-1570]	; 0xfffff9de
     5b8:	061f0517 			; <UNDEFINED> instruction: 0x061f0517
     5bc:	01054a01 	tsteq	r5, r1, lsl #20
     5c0:	1503062f 	strne	r0, [r3, #-1583]	; 0xfffff9d1
     5c4:	1622052e 	strtne	r0, [r2], -lr, lsr #10
     5c8:	05170505 	ldreq	r0, [r7, #-1285]	; 0xfffffafb
     5cc:	05010607 	streq	r0, [r1, #-1543]	; 0xfffff9f9
     5d0:	05220609 	streq	r0, [r2, #-1545]!	; 0xfffff9f7
     5d4:	2e010610 	mcrcs	6, 0, r0, cr1, cr0, {0}
     5d8:	24060905 	strcs	r0, [r6], #-2309	; 0xfffff6fb
     5dc:	01061005 	tsteq	r6, r5
     5e0:	06300105 	ldrteq	r0, [r0], -r5, lsl #2
     5e4:	052e1d03 	streq	r1, [lr, #-3331]!	; 0xfffff2fd
     5e8:	05051622 	streq	r1, [r5, #-1570]	; 0xfffff9de
     5ec:	06200517 			; <UNDEFINED> instruction: 0x06200517
     5f0:	2f010501 	svccs	0x00010501
     5f4:	2e180306 	cdpcs	3, 1, cr0, cr8, cr6, {0}
     5f8:	05162205 	ldreq	r2, [r6, #-517]	; 0xfffffdfb
     5fc:	01051705 	tsteq	r5, r5, lsl #14
     600:	01770306 	cmneq	r7, r6, lsl #6
     604:	09030e05 	stmdbeq	r3, {r0, r2, r9, sl, fp}
     608:	05052e20 	streq	r2, [r5, #-3616]	; 0xfffff1e0
     60c:	05332506 	ldreq	r2, [r3, #-1286]!	; 0xfffffafa
     610:	05210601 	streq	r0, [r1, #-1537]!	; 0xfffff9ff
     614:	052e2d05 	streq	r2, [lr, #-3333]!	; 0xfffff2fb
     618:	05000601 	streq	r0, [r0, #-1537]	; 0xfffff9ff
     61c:	0005c002 	andeq	ip, r5, r2
     620:	01160300 	tsteq	r6, r0, lsl #6
     624:	05162205 	ldreq	r2, [r6, #-517]	; 0xfffffdfb
     628:	01051705 	tsteq	r5, r5, lsl #14
     62c:	01770306 	cmneq	r7, r6, lsl #6
     630:	09030e05 	stmdbeq	r3, {r0, r2, r9, sl, fp}
     634:	05052e20 	streq	r2, [r5, #-3616]	; 0xfffff1e0
     638:	05332506 	ldreq	r2, [r3, #-1286]!	; 0xfffffafa
     63c:	05210601 	streq	r0, [r1, #-1537]!	; 0xfffff9ff
     640:	052e2d05 	streq	r2, [lr, #-3333]!	; 0xfffff2fb
     644:	05000601 	streq	r0, [r0, #-1537]	; 0xfffff9ff
     648:	0005d802 	andeq	sp, r5, r2, lsl #16
     64c:	011a0300 	tsteq	sl, r0, lsl #6
     650:	05162205 	ldreq	r2, [r6, #-517]	; 0xfffffdfb
     654:	0c051705 	stceq	7, cr1, [r5], {5}
     658:	01050106 	tsteq	r5, r6, lsl #2
     65c:	1603062f 	strne	r0, [r3], -pc, lsr #12
     660:	1622052e 	strtne	r0, [r2], -lr, lsr #10
     664:	05170505 	ldreq	r0, [r7, #-1285]	; 0xfffffafb
     668:	05010633 	streq	r0, [r1, #-1587]	; 0xfffff9cd
     66c:	03062f01 	movweq	r2, #28417	; 0x6f01
     670:	22052e1a 	andcs	r2, r5, #416	; 0x1a0
     674:	17050516 	smladne	r5, r6, r5, r0
     678:	ec030105 	stfs	f0, [r3], {5}
     67c:	2205017a 	andcs	r0, r5, #-2147483618	; 0x8000001e
     680:	142a0518 	strtne	r0, [sl], #-1304	; 0xfffffae8
     684:	05170505 	ldreq	r0, [r7, #-1285]	; 0xfffffafb
     688:	fe030601 	cdp2	6, 0, cr0, cr3, cr1, {0}
     68c:	24050104 	strcs	r0, [r5], #-260	; 0xfffffefc
     690:	207b8403 	rsbscs	r8, fp, r3, lsl #8
     694:	052d4905 	streq	r4, [sp, #-2309]!	; 0xfffff6fb
     698:	05052d20 	streq	r2, [r5, #-3360]	; 0xfffff2e0
     69c:	26053106 	strcs	r3, [r5], -r6, lsl #2
     6a0:	01051406 	tsteq	r5, r6, lsl #8
     6a4:	2e058803 	cdpcs	8, 0, cr8, cr5, cr3, {0}
     6a8:	f7034d05 			; <UNDEFINED> instruction: 0xf7034d05
     6ac:	22052e7a 	andcs	r2, r5, #1952	; 0x7a0
     6b0:	05052e2d 	streq	r2, [r5, #-3629]	; 0xfffff1d3
     6b4:	05890306 	streq	r0, [r9, #774]	; 0x306
     6b8:	054a0601 	strbeq	r0, [sl, #-1537]	; 0xfffff9ff
     6bc:	05000601 	streq	r0, [r0, #-1537]	; 0xfffff9ff
     6c0:	00061002 	andeq	r1, r6, r2
     6c4:	011c0300 	tsteq	ip, r0, lsl #6
     6c8:	05162205 	ldreq	r2, [r6, #-517]	; 0xfffffdfb
     6cc:	01051705 	tsteq	r5, r5, lsl #14
     6d0:	01770306 	cmneq	r7, r6, lsl #6
     6d4:	da032405 	ble	c96f0 <_etext+0xc7994>
     6d8:	4905207a 	stmdbmi	r5, {r1, r3, r4, r5, r6, sp}
     6dc:	2d20052d 	cfstr32cs	mvfx0, [r0, #-180]!	; 0xffffff4c
     6e0:	05322605 	ldreq	r2, [r2, #-1541]!	; 0xfffff9fb
     6e4:	05a40301 	streq	r0, [r4, #769]!	; 0x301
     6e8:	cb03062e 	blgt	c1fa8 <_etext+0xc024c>
     6ec:	2205207a 	andcs	r2, r5, #122	; 0x7a
     6f0:	142a0518 	strtne	r0, [sl], #-1304	; 0xfffffae8
     6f4:	15170505 	ldrne	r0, [r7, #-1285]	; 0xfffffafb
     6f8:	13064d05 	movwne	r4, #27909	; 0x6d05
     6fc:	2e1f2205 	cdpcs	2, 1, cr2, cr15, cr5, {0}
     700:	03060505 	movweq	r0, #25861	; 0x6505
     704:	050105b3 	streq	r0, [r1, #-1459]	; 0xfffffa4d
     708:	05130601 	ldreq	r0, [r3, #-1537]	; 0xfffff9ff
     70c:	054a2d05 	strbeq	r2, [sl, #-3333]	; 0xfffff2fb
     710:	05000601 	streq	r0, [r0, #-1537]	; 0xfffff9ff
     714:	00064802 	andeq	r4, r6, r2, lsl #16
     718:	01c40300 	biceq	r0, r4, r0, lsl #6
     71c:	16220501 	strtne	r0, [r2], -r1, lsl #10
     720:	05170505 	ldreq	r0, [r7, #-1285]	; 0xfffffafb
     724:	77030601 	strvc	r0, [r3, -r1, lsl #12]
     728:	03240501 			; <UNDEFINED> instruction: 0x03240501
     72c:	05207988 	streq	r7, [r0, #-2440]!	; 0xfffff678
     730:	20052d49 	andcs	r2, r5, r9, asr #26
     734:	3226052d 	eorcc	r0, r6, #188743680	; 0xb400000
     738:	f6030105 			; <UNDEFINED> instruction: 0xf6030105
     73c:	03062e06 	movweq	r2, #28166	; 0x6e06
     740:	052078f9 	streq	r7, [r0, #-2297]!	; 0xfffff707
     744:	2a051822 	bcs	1467d4 <_etext+0x144a78>
     748:	17050514 	smladne	r5, r4, r5, r0
     74c:	064d0515 			; <UNDEFINED> instruction: 0x064d0515
     750:	1f220513 	svcne	0x00220513
     754:	0605052e 	streq	r0, [r5], -lr, lsr #10
     758:	01078503 	tsteq	r7, r3, lsl #10
     75c:	13060105 	movwne	r0, #24837	; 0x6105
     760:	4a2d0505 	bmi	b41b7c <_etext+0xb3fe20>
     764:	00060105 	andeq	r0, r6, r5, lsl #2
     768:	06700205 	ldrbteq	r0, [r0], -r5, lsl #4
     76c:	18030000 	stmdane	r3, {}	; <UNPREDICTABLE>
     770:	16220501 	strtne	r0, [r2], -r1, lsl #10
     774:	05170505 	ldreq	r0, [r7, #-1285]	; 0xfffffafb
     778:	78ca0301 	stmiavc	sl, {r0, r8, r9}^
     77c:	18220501 	stmdane	r2!, {r0, r8, sl}
     780:	05142a05 	ldreq	r2, [r4, #-2565]	; 0xfffff5fb
     784:	01051705 	tsteq	r5, r5, lsl #14
     788:	07a00306 	streq	r0, [r0, r6, lsl #6]!
     78c:	03240501 			; <UNDEFINED> instruction: 0x03240501
     790:	052078e2 	streq	r7, [r0, #-2274]!	; 0xfffff71e
     794:	20052d49 	andcs	r2, r5, r9, asr #26
     798:	0605052d 	streq	r0, [r5], -sp, lsr #10
     79c:	06260531 			; <UNDEFINED> instruction: 0x06260531
     7a0:	03010514 	movweq	r0, #5396	; 0x1514
     7a4:	052e07aa 	streq	r0, [lr, #-1962]!	; 0xfffff856
     7a8:	78d5034d 	ldmvc	r5, {r0, r2, r3, r6, r8, r9}^
     7ac:	2d22052e 	cfstr32cs	mvfx0, [r2, #-184]!	; 0xffffff48
     7b0:	0605052e 	streq	r0, [r5], -lr, lsr #10
     7b4:	0107ab03 	tsteq	r7, r3, lsl #22
     7b8:	01054a06 	tsteq	r5, r6, lsl #20
     7bc:	02050006 	andeq	r0, r5, #6
     7c0:	00000698 	muleq	r0, r8, r6
     7c4:	05011803 	streq	r1, [r1, #-2051]	; 0xfffff7fd
     7c8:	05051622 	streq	r1, [r5, #-1570]	; 0xfffff9de
     7cc:	06010517 			; <UNDEFINED> instruction: 0x06010517
     7d0:	20017703 	andcs	r7, r1, r3, lsl #14
     7d4:	09030505 	stmdbeq	r3, {r0, r2, r8, sl}
     7d8:	03010520 	movweq	r0, #5408	; 0x1520
     7dc:	05052e77 	streq	r2, [r5, #-3703]	; 0xfffff189
     7e0:	06200903 	strteq	r0, [r0], -r3, lsl #18
     7e4:	03010533 	movweq	r0, #5427	; 0x1533
     7e8:	0501789f 	streq	r7, [r1, #-2207]	; 0xfffff761
     7ec:	2a051822 	bcs	14687c <_etext+0x144b20>
     7f0:	17050514 	smladne	r5, r4, r5, r0
     7f4:	13062405 	movwne	r2, #25605	; 0x6405
     7f8:	052e4905 	streq	r4, [lr, #-2309]!	; 0xfffff6fb
     7fc:	05051f20 	streq	r1, [r5, #-3872]	; 0xfffff0e0
     800:	26053106 	strcs	r3, [r5], -r6, lsl #2
     804:	4d051406 	cfstrsmi	mvf1, [r5, #-24]	; 0xffffffe8
     808:	2d22052d 	cfstr32cs	mvfx0, [r2, #-180]!	; 0xffffff4c
     80c:	0301052e 	movweq	r0, #5422	; 0x152e
     810:	200107d2 	ldrdcs	r0, [r1], -r2
     814:	02050006 	andeq	r0, r5, #6
     818:	000006c0 	andeq	r0, r0, r0, asr #13
     81c:	05011703 	streq	r1, [r1, #-1795]	; 0xfffff8fd
     820:	05051622 	streq	r1, [r5, #-1570]	; 0xfffff9de
     824:	06010517 			; <UNDEFINED> instruction: 0x06010517
     828:	20017703 	andcs	r7, r1, r3, lsl #14
     82c:	09030505 	stmdbeq	r3, {r0, r2, r8, sl}
     830:	03010520 	movweq	r0, #5408	; 0x1520
     834:	05052e77 	streq	r2, [r5, #-3703]	; 0xfffff189
     838:	06200903 	strteq	r0, [r0], -r3, lsl #18
     83c:	03010533 	movweq	r0, #5427	; 0x1533
     840:	050177f9 	streq	r7, [r1, #-2041]	; 0xfffff807
     844:	2a051822 	bcs	1468d4 <_etext+0x144b78>
     848:	17050514 	smladne	r5, r4, r5, r0
     84c:	13062405 	movwne	r2, #25605	; 0x6405
     850:	052e4905 	streq	r4, [lr, #-2309]!	; 0xfffff6fb
     854:	05051f20 	streq	r1, [r5, #-3872]	; 0xfffff0e0
     858:	26053106 	strcs	r3, [r5], -r6, lsl #2
     85c:	4d051406 	cfstrsmi	mvf1, [r5, #-24]	; 0xffffffe8
     860:	2d22052d 	cfstr32cs	mvfx0, [r2, #-180]!	; 0xffffff4c
     864:	0301052e 	movweq	r0, #5422	; 0x152e
     868:	200107f8 	strdcs	r0, [r1], -r8
     86c:	02050006 	andeq	r0, r5, #6
     870:	000006e8 	andeq	r0, r0, r8, ror #13
     874:	05011a03 	streq	r1, [r1, #-2563]	; 0xfffff5fd
     878:	05051622 	streq	r1, [r5, #-1570]	; 0xfffff9de
     87c:	06010517 			; <UNDEFINED> instruction: 0x06010517
     880:	05017703 	streq	r7, [r1, #-1795]	; 0xfffff8fd
     884:	77ed0324 	strbvc	r0, [sp, r4, lsr #6]!
     888:	2d490520 	cfstr64cs	mvdx0, [r9, #-128]	; 0xffffff80
     88c:	052d2005 	streq	r2, [sp, #-5]!
     890:	01053226 	tsteq	r5, r6, lsr #4
     894:	2e089103 	mvfcse	f1, f3
     898:	77de0306 	ldrbvc	r0, [lr, r6, lsl #6]
     89c:	18220520 	stmdane	r2!, {r5, r8, sl}
     8a0:	05142a05 	ldreq	r2, [r4, #-2565]	; 0xfffff5fb
     8a4:	05151705 	ldreq	r1, [r5, #-1797]	; 0xfffff8fb
     8a8:	0513064d 	ldreq	r0, [r3, #-1613]	; 0xfffff9b3
     8ac:	052e1f22 	streq	r1, [lr, #-3874]!	; 0xfffff0de
     8b0:	a0030605 	andge	r0, r3, r5, lsl #12
     8b4:	01050108 	tsteq	r5, r8, lsl #2
     8b8:	05051306 	streq	r1, [r5, #-774]	; 0xfffffcfa
     8bc:	01054a2d 	tsteq	r5, sp, lsr #20
     8c0:	02050006 	andeq	r0, r5, #6
     8c4:	00000710 	andeq	r0, r0, r0, lsl r7
     8c8:	05011c03 	streq	r1, [r1, #-3075]	; 0xfffff3fd
     8cc:	05051622 	streq	r1, [r5, #-1570]	; 0xfffff9de
     8d0:	06010517 			; <UNDEFINED> instruction: 0x06010517
     8d4:	05017703 	streq	r7, [r1, #-1795]	; 0xfffff8fd
     8d8:	77c30324 	strbvc	r0, [r3, r4, lsr #6]
     8dc:	03080520 	movweq	r0, #34080	; 0x8520
     8e0:	052e08cb 	streq	r0, [lr, #-2251]!	; 0xfffff735
     8e4:	77b40349 	ldrvc	r0, [r4, r9, asr #6]!
     8e8:	2d200520 	cfstr32cs	mvfx0, [r0, #-128]!	; 0xffffff80
     8ec:	05322605 	ldreq	r2, [r2, #-1541]!	; 0xfffff9fb
     8f0:	22052e4d 	andcs	r2, r5, #1232	; 0x4d0
     8f4:	0308051f 	movweq	r0, #34079	; 0x851f
     8f8:	052e08ca 	streq	r0, [lr, #-2250]!	; 0xfffff736
     8fc:	01052007 	tsteq	r5, r7
     900:	202e7203 	eorcs	r7, lr, r3, lsl #4
     904:	77b40306 	ldrvc	r0, [r4, r6, lsl #6]!
     908:	18220520 	stmdane	r2!, {r5, r8, sl}
     90c:	05142a05 	ldreq	r2, [r4, #-2565]	; 0xfffff5fb
     910:	06151705 	ldreq	r1, [r5], -r5, lsl #14
     914:	ca030601 	bgt	c2120 <_etext+0xc03c4>
     918:	07050108 	streq	r0, [r5, -r8, lsl #2]
     91c:	08050106 	stmdaeq	r5, {r1, r2, r8}
     920:	01040200 	mrseq	r0, R12_usr
     924:	001e0520 	andseq	r0, lr, r0, lsr #10
     928:	66020402 	strvs	r0, [r2], -r2, lsl #8
     92c:	02001b05 	andeq	r1, r0, #5120	; 0x1400
     930:	05200204 	streq	r0, [r0, #-516]!	; 0xfffffdfc
     934:	0402001e 	streq	r0, [r2], #-30	; 0xffffffe2
     938:	1b052002 	blne	148948 <_etext+0x146bec>
     93c:	02040200 	andeq	r0, r4, #0, 4
     940:	002f0520 	eoreq	r0, pc, r0, lsr #10
     944:	2e030402 	cdpcs	4, 0, cr0, cr3, cr2, {0}
     948:	02002c05 	andeq	r2, r0, #1280	; 0x500
     94c:	05200304 	streq	r0, [r0, #-772]!	; 0xfffffcfc
     950:	0402002f 	streq	r0, [r2], #-47	; 0xffffffd1
     954:	2c052e03 	stccs	14, cr2, [r5], {3}
     958:	03040200 	movweq	r0, #16896	; 0x4200
     95c:	00080520 	andeq	r0, r8, r0, lsr #10
     960:	2f040402 	svccs	0x00040402
     964:	02004205 	andeq	r4, r0, #1342177280	; 0x50000000
     968:	051f0404 	ldreq	r0, [pc, #-1028]	; 56c <GPIOPadConfigGet+0x6c>
     96c:	04020008 	streq	r0, [r2], #-8
     970:	42052f04 	andmi	r2, r5, #4, 30
     974:	04040200 	streq	r0, [r4], #-512	; 0xfffffe00
     978:	2f1c051f 	svccs	0x001c051f
     97c:	05201905 	streq	r1, [r0, #-2309]!	; 0xfffff6fb
     980:	1905201c 	stmdbne	r5, {r2, r3, r4, sp}
     984:	06090520 	streq	r0, [r9], -r0, lsr #10
     988:	06010534 			; <UNDEFINED> instruction: 0x06010534
     98c:	1e090514 	mcrne	5, 0, r0, cr9, cr4, {0}
     990:	20064606 	andcs	r4, r6, r6, lsl #12
     994:	05260105 	streq	r0, [r6, #-261]!	; 0xfffffefb
     998:	207a0309 	rsbscs	r0, sl, r9, lsl #6
     99c:	01053c20 	tsteq	r5, r0, lsr #24
     9a0:	02050006 	andeq	r0, r5, #6
     9a4:	000007ac 	andeq	r0, r0, ip, lsr #15
     9a8:	0101f103 	tsteq	r1, r3, lsl #2	; <UNPREDICTABLE>
     9ac:	05162205 	ldreq	r2, [r6, #-517]	; 0xfffffdfb
     9b0:	01051705 	tsteq	r5, r5, lsl #14
     9b4:	01770306 	cmneq	r7, r6, lsl #6
     9b8:	c1032405 	tstgt	r3, r5, lsl #8
     9bc:	49052075 	stmdbmi	r5, {r0, r2, r4, r5, r6, sp}
     9c0:	2d20052d 	cfstr32cs	mvfx0, [r0, #-180]!	; 0xffffff4c
     9c4:	05322605 	ldreq	r2, [r2, #-1541]!	; 0xfffff9fb
     9c8:	0abd0301 	beq	fef415d4 <_ebss+0xdef41258>
     9cc:	b203062e 	andlt	r0, r3, #48234496	; 0x2e00000
     9d0:	22052075 	andcs	r2, r5, #117	; 0x75
     9d4:	142a0518 	strtne	r0, [sl], #-1304	; 0xfffffae8
     9d8:	15170505 	ldrne	r0, [r7, #-1285]	; 0xfffffafb
     9dc:	13064d05 	movwne	r4, #27909	; 0x6d05
     9e0:	2e1f2205 	cdpcs	2, 1, cr2, cr15, cr5, {0}
     9e4:	03060505 	movweq	r0, #25861	; 0x6505
     9e8:	05010acc 	streq	r0, [r1, #-2764]	; 0xfffff534
     9ec:	05130601 	ldreq	r0, [r3, #-1537]	; 0xfffff9ff
     9f0:	054a2d05 	strbeq	r2, [sl, #-3333]	; 0xfffff2fb
     9f4:	05000601 	streq	r0, [r0, #-1537]	; 0xfffff9ff
     9f8:	0007e802 	andeq	lr, r7, r2, lsl #16
     9fc:	01f50300 	mvnseq	r0, r0, lsl #6
     a00:	13050501 	movwne	r0, #21761	; 0x5501
     a04:	05172e05 	ldreq	r2, [r7, #-3589]	; 0xfffff1fb
     a08:	0505132d 	streq	r1, [r5, #-813]	; 0xfffffcd3
     a0c:	06080517 			; <UNDEFINED> instruction: 0x06080517
     a10:	030c0518 	movweq	r0, #50456	; 0xc518
     a14:	0505207a 	streq	r2, [r5, #-122]	; 0xffffff86
     a18:	08053406 	stmdaeq	r5, {r1, r2, sl, ip, sp}
     a1c:	25050106 	strcs	r0, [r5, #-262]	; 0xfffffefa
     a20:	2e070520 	cfsh32cs	mvfx0, mvfx7, #16
     a24:	6e030105 	adfvss	f0, f3, f5
     a28:	03070520 	movweq	r0, #29984	; 0x7520
     a2c:	09052012 	stmdbeq	r5, {r1, r4, sp}
     a30:	2d052206 	sfmcs	f2, 4, [r5, #-24]	; 0xffffffe8
     a34:	10050106 	andne	r0, r5, r6, lsl #2
     a38:	20330520 	eorscs	r0, r3, r0, lsr #10
     a3c:	05201005 	streq	r1, [r0, #-5]!
     a40:	0a030605 	beq	c225c <_etext+0xc0500>
     a44:	0625052e 	strteq	r0, [r5], -lr, lsr #10
     a48:	290d0517 	stmdbcs	sp, {r0, r1, r2, r4, r8, sl}
     a4c:	33060505 	movwcc	r0, #25861	; 0x6505
     a50:	13062b05 	movwne	r2, #27397	; 0x6b05
     a54:	05213205 	streq	r3, [r1, #-517]!	; 0xfffffdfb
     a58:	39051f2b 	stmdbcc	r5, {r0, r1, r3, r5, r8, r9, sl, fp, ip}
     a5c:	1e410521 	cdpne	5, 4, cr0, cr1, cr1, {1}
     a60:	052f3805 	streq	r3, [pc, #-2053]!	; 263 <GPIOGetIntNumber+0x33>
     a64:	21052201 	tstcs	r5, r1, lsl #4
     a68:	3101052b 	tstcc	r1, fp, lsr #10
     a6c:	03060905 	movweq	r0, #26885	; 0x6905
     a70:	10052072 	andne	r2, r5, r2, ror r0
     a74:	053c0106 	ldreq	r0, [ip, #-262]!	; 0xfffffefa
     a78:	05000601 	streq	r0, [r0, #-1537]	; 0xfffff9ff
     a7c:	00083402 	andeq	r3, r8, r2, lsl #8
     a80:	01240300 			; <UNDEFINED> instruction: 0x01240300
     a84:	05162205 	ldreq	r2, [r6, #-517]	; 0xfffffdfb
     a88:	23051705 	movwcs	r1, #22277	; 0x5705
     a8c:	053c0106 	ldreq	r0, [ip, #-262]!	; 0xfffffefa
     a90:	03062f01 	movweq	r2, #28417	; 0x6f01
     a94:	22052015 	andcs	r2, r5, #21
     a98:	17050516 	smladne	r5, r6, r5, r0
     a9c:	01062305 	tsteq	r6, r5, lsl #6
     aa0:	2f01054a 	svccs	0x0001054a
     aa4:	2e180306 	cdpcs	3, 1, cr0, cr8, cr6, {0}
     aa8:	05162205 	ldreq	r2, [r6, #-517]	; 0xfffffdfb
     aac:	23051705 	movwcs	r1, #22277	; 0x5705
     ab0:	053c0106 	ldreq	r0, [ip, #-262]!	; 0xfffffefa
     ab4:	03062f01 	movweq	r2, #28417	; 0x6f01
     ab8:	22052015 	andcs	r2, r5, #21
     abc:	17050516 	smladne	r5, r6, r5, r0
     ac0:	01062305 	tsteq	r6, r5, lsl #6
     ac4:	2f01054a 	svccs	0x0001054a
     ac8:	01000102 	tsteq	r0, r2, lsl #2
     acc:	00043401 	andeq	r3, r4, r1, lsl #8
     ad0:	39000300 	stmdbcc	r0, {r8, r9}
     ad4:	02000000 	andeq	r0, r0, #0
     ad8:	0d0efb01 	vstreq	d15, [lr, #-4]
     adc:	01010100 	mrseq	r0, (UNDEF: 17)
     ae0:	00000001 	andeq	r0, r0, r1
     ae4:	01000001 	tsteq	r0, r1
     ae8:	746e6900 	strbtvc	r6, [lr], #-2304	; 0xfffff700
     aec:	75727265 	ldrbvc	r7, [r2, #-613]!	; 0xfffffd9b
     af0:	632e7470 			; <UNDEFINED> instruction: 0x632e7470
     af4:	00000000 	andeq	r0, r0, r0
     af8:	2e757063 	cdpcs	0, 7, cr7, cr5, cr3, {3}
     afc:	00000068 	andeq	r0, r0, r8, rrx
     b00:	5f776800 	svcpl	0x00776800
     b04:	65707974 	ldrbvs	r7, [r0, #-2420]!	; 0xfffff68c
     b08:	00682e73 	rsbeq	r2, r8, r3, ror lr
     b0c:	00000000 	andeq	r0, r0, r0
     b10:	05000105 	streq	r0, [r0, #-261]	; 0xfffffefb
     b14:	00086c02 	andeq	r6, r8, r2, lsl #24
     b18:	01910300 	orrseq	r0, r1, r0, lsl #6
     b1c:	00050501 	andeq	r0, r5, r1, lsl #10
     b20:	16010402 	strne	r0, [r1], -r2, lsl #8
     b24:	01040200 	mrseq	r0, R12_usr
     b28:	000a0514 	andeq	r0, sl, r4, lsl r5
     b2c:	10010402 	andne	r0, r1, r2, lsl #8
     b30:	05000105 	streq	r0, [r0, #-261]	; 0xfffffefb
     b34:	00087002 	andeq	r7, r8, r2
     b38:	01320300 	teqeq	r2, r0, lsl #6
     b3c:	05160505 	ldreq	r0, [r6, #-1285]	; 0xfffffafb
     b40:	050e0601 	streq	r0, [lr, #-1537]	; 0xfffff9ff
     b44:	0105240c 	tsteq	r5, ip, lsl #8
     b48:	1703062f 	strne	r0, [r3, -pc, lsr #12]
     b4c:	1605053c 			; <UNDEFINED> instruction: 0x1605053c
     b50:	0e060105 	adfeqs	f0, f6, f5
     b54:	05240c05 	streq	r0, [r4, #-3077]!	; 0xfffff3fb
     b58:	03062f01 	movweq	r2, #28417	; 0x6f01
     b5c:	05053c1f 	streq	r3, [r5, #-3103]	; 0xfffff3e1
     b60:	17290513 			; <UNDEFINED> instruction: 0x17290513
     b64:	05173f05 	ldreq	r3, [r7, #-3845]	; 0xfffff0fb
     b68:	08051705 	stmdaeq	r5, {r0, r2, r8, r9, sl, ip}
     b6c:	01050106 	tsteq	r5, r6, lsl #2
     b70:	05207003 	streq	r7, [r0, #-3]!
     b74:	20100308 	andscs	r0, r0, r8, lsl #6
     b78:	05201b05 	streq	r1, [r0, #-2821]!	; 0xfffff4fb
     b7c:	09052007 	stmdbeq	r5, {r0, r1, r2, sp}
     b80:	11053406 	tstne	r5, r6, lsl #8
     b84:	09050106 	stmdbeq	r5, {r1, r2, r8}
     b88:	18052106 	stmdane	r5, {r1, r2, r8, sp}
     b8c:	20200601 	eorcs	r0, r0, r1, lsl #12
     b90:	02000d05 	andeq	r0, r0, #320	; 0x140
     b94:	3e060304 	cdpcc	3, 0, cr0, cr6, cr4, {0}
     b98:	02003605 	andeq	r3, r0, #5242880	; 0x500000
     b9c:	01060304 	tsteq	r6, r4, lsl #6
     ba0:	02002405 	andeq	r2, r0, #83886080	; 0x5000000
     ba4:	05200304 	streq	r0, [r0, #-772]!	; 0xfffffcfc
     ba8:	04020030 	streq	r0, [r2], #-48	; 0xffffffd0
     bac:	052c0603 	streq	r0, [ip, #-1539]!	; 0xfffff9fd
     bb0:	04020018 	streq	r0, [r2], #-24	; 0xffffffe8
     bb4:	09050103 	stmdbeq	r5, {r0, r1, r8}
     bb8:	03040200 	movweq	r0, #16896	; 0x4200
     bbc:	03060106 	movweq	r0, #24838	; 0x6106
     bc0:	1c052e09 	stcne	14, cr2, [r5], {9}
     bc4:	05050106 	streq	r0, [r5, #-262]	; 0xfffffefa
     bc8:	22053406 	andcs	r3, r5, #100663296	; 0x6000000
     bcc:	01050106 	tsteq	r5, r6, lsl #2
     bd0:	1403062f 	strne	r0, [r3], #-1583	; 0xfffff9d1
     bd4:	16290574 			; <UNDEFINED> instruction: 0x16290574
     bd8:	05170505 	ldreq	r0, [r7, #-1285]	; 0xfffffafb
     bdc:	05010622 	streq	r0, [r1, #-1570]	; 0xfffff9de
     be0:	03064b01 	movweq	r4, #27393	; 0x6b01
     be4:	22056614 	andcs	r6, r5, #20, 12	; 0x1400000
     be8:	17050516 	smladne	r5, r6, r5, r0
     bec:	01063b05 	tsteq	r6, r5, lsl #22
     bf0:	05201705 	streq	r1, [r0, #-1797]!	; 0xfffff8fb
     bf4:	1705202c 	strne	r2, [r5, -ip, lsr #32]
     bf8:	21010566 	tstcs	r1, r6, ror #10
     bfc:	580e0306 	stmdapl	lr, {r1, r2, r8, r9}
     c00:	17130505 	ldrne	r0, [r3, -r5, lsl #10]
     c04:	01060f05 	tsteq	r6, r5, lsl #30
     c08:	053c0d05 	ldreq	r0, [ip, #-3333]!	; 0xfffff2fb
     c0c:	05410605 	strbeq	r0, [r1, #-1541]	; 0xfffff9fb
     c10:	10050115 	andne	r0, r5, r5, lsl r1
     c14:	052e0106 	streq	r0, [lr, #-262]!	; 0xfffffefa
     c18:	05330609 	ldreq	r0, [r3, #-1545]!	; 0xfffff9f7
     c1c:	0b050d2c 	bleq	1440d4 <_etext+0x142378>
     c20:	32051706 	andcc	r1, r5, #1572864	; 0x180000
     c24:	02040200 	andeq	r0, r4, #0, 4
     c28:	00150529 	andseq	r0, r5, r9, lsr #10
     c2c:	06020402 	streq	r0, [r2], -r2, lsl #8
     c30:	00050520 	andeq	r0, r5, r0, lsr #10
     c34:	06020402 	streq	r0, [r2], -r2, lsl #8
     c38:	03010501 	movweq	r0, #5377	; 0x1501
     c3c:	03062e0f 	movweq	r2, #28175	; 0x6e0f
     c40:	0505581c 	streq	r5, [r5, #-2076]	; 0xfffff7e4
     c44:	17410513 	smlaldne	r0, r1, r3, r5
     c48:	05170505 	ldreq	r0, [r7, #-1285]	; 0xfffffafb
     c4c:	0501060e 	streq	r0, [r1, #-1550]	; 0xfffff9f2
     c50:	4a750301 	bmi	1d4185c <_etext+0x1d3fb00>
     c54:	0b030e05 	bleq	c4470 <_etext+0xc2714>
     c58:	212b0520 			; <UNDEFINED> instruction: 0x212b0520
     c5c:	052d0c05 	streq	r0, [sp, #-3077]!	; 0xfffff3fb
     c60:	05210605 	streq	r0, [r1, #-1541]!	; 0xfffff9fb
     c64:	0501061c 	streq	r0, [r1, #-1564]	; 0xfffff9e4
     c68:	1a052016 	bne	148cc8 <_etext+0x146f6c>
     c6c:	1f0c052f 	svcne	0x000c052f
     c70:	2f060505 	svccs	0x00060505
     c74:	01060c05 	tsteq	r6, r5, lsl #24
     c78:	21060505 	tstcs	r6, r5, lsl #10
     c7c:	01062805 	tsteq	r6, r5, lsl #16
     c80:	06210105 	strteq	r0, [r1], -r5, lsl #2
     c84:	05581103 	ldrbeq	r1, [r8, #-259]	; 0xfffffefd
     c88:	05051641 	streq	r1, [r5, #-1601]	; 0xfffff9bf
     c8c:	060d0517 			; <UNDEFINED> instruction: 0x060d0517
     c90:	4a450501 	bmi	114209c <_etext+0x1140340>
     c94:	052e0d05 	streq	r0, [lr, #-3333]!	; 0xfffff2fb
     c98:	30052e36 	andcc	r2, r5, r6, lsr lr
     c9c:	30010520 	andcc	r0, r1, r0, lsr #10
     ca0:	58110306 	ldmdapl	r1, {r1, r2, r8, r9}
     ca4:	05162905 	ldreq	r2, [r6, #-2309]	; 0xfffff6fb
     ca8:	07051705 	streq	r1, [r5, -r5, lsl #14]
     cac:	0a050106 	beq	1410cc <_etext+0x13f370>
     cb0:	0c053506 	cfstr32eq	mvfx3, [r5], {6}
     cb4:	0a050106 	beq	1410d4 <_etext+0x13f378>
     cb8:	0c053506 	cfstr32eq	mvfx3, [r5], {6}
     cbc:	0a050106 	beq	1410dc <_etext+0x13f380>
     cc0:	0c053506 	cfstr32eq	mvfx3, [r5], {6}
     cc4:	0a050106 	beq	1410e4 <_etext+0x13f388>
     cc8:	0c053506 	cfstr32eq	mvfx3, [r5], {6}
     ccc:	09050106 	stmdbeq	r5, {r1, r2, r8}
     cd0:	20052506 	andcs	r2, r5, r6, lsl #10
     cd4:	09051306 	stmdbeq	r5, {r1, r2, r8, r9, ip}
     cd8:	4b26051f 	blmi	98215c <_etext+0x980400>
     cdc:	052d0905 	streq	r0, [sp, #-2309]!	; 0xfffff6fb
     ce0:	35052f0f 	strcc	r2, [r5, #-3855]	; 0xfffff0f1
     ce4:	2301053b 	movwcs	r0, #5435	; 0x153b
     ce8:	03060905 	movweq	r0, #26885	; 0x6905
     cec:	22052068 	andcs	r2, r5, #104	; 0x68
     cf0:	09050106 	stmdbeq	r5, {r1, r2, r8}
     cf4:	66790306 	ldrbtvs	r0, [r9], -r6, lsl #6
     cf8:	01062205 	tsteq	r6, r5, lsl #4
     cfc:	03060905 	movweq	r0, #26885	; 0x6905
     d00:	1d056615 	stcne	6, cr6, [r5, #-84]	; 0xffffffac
     d04:	09050106 	stmdbeq	r5, {r1, r2, r8}
     d08:	66790306 	ldrbtvs	r0, [r9], -r6, lsl #6
     d0c:	01062205 	tsteq	r6, r5, lsl #4
     d10:	00060105 	andeq	r0, r6, r5, lsl #2
     d14:	09d00205 	ldmibeq	r0, {r0, r2, r9}^
     d18:	22030000 	andcs	r0, r3, #0
     d1c:	16290501 	strtne	r0, [r9], -r1, lsl #10
     d20:	05170505 	ldreq	r0, [r7, #-1285]	; 0xfffffafb
     d24:	05010607 	streq	r0, [r1, #-1543]	; 0xfffff9f9
     d28:	0535060a 	ldreq	r0, [r5, #-1546]!	; 0xfffff9f6
     d2c:	0501060c 	streq	r0, [r1, #-1548]	; 0xfffff9f4
     d30:	0535060a 	ldreq	r0, [r5, #-1546]!	; 0xfffff9f6
     d34:	0501060c 	streq	r0, [r1, #-1548]	; 0xfffff9f4
     d38:	0535060a 	ldreq	r0, [r5, #-1546]!	; 0xfffff9f6
     d3c:	0501060c 	streq	r0, [r1, #-1548]	; 0xfffff9f4
     d40:	0535060a 	ldreq	r0, [r5, #-1546]!	; 0xfffff9f6
     d44:	0501060c 	streq	r0, [r1, #-1548]	; 0xfffff9f4
     d48:	05250609 	streq	r0, [r5, #-1545]!	; 0xfffff9f7
     d4c:	05130620 	ldreq	r0, [r3, #-1568]	; 0xfffff9e0
     d50:	26051f09 	strcs	r1, [r5], -r9, lsl #30
     d54:	2d09054b 	cfstr32cs	mvfx0, [r9, #-300]	; 0xfffffed4
     d58:	052f0f05 	streq	r0, [pc, #-3845]!	; fffffe5b <_ebss+0xdffffadf>
     d5c:	01053b36 	tsteq	r5, r6, lsr fp
     d60:	06090523 	streq	r0, [r9], -r3, lsr #10
     d64:	05206803 	streq	r6, [r0, #-2051]!	; 0xfffff7fd
     d68:	05010622 	streq	r0, [r1, #-1570]	; 0xfffff9de
     d6c:	79030609 	stmdbvc	r3, {r0, r3, r9, sl}
     d70:	06220566 	strteq	r0, [r2], -r6, ror #10
     d74:	06090501 	streq	r0, [r9], -r1, lsl #10
     d78:	05661503 	strbeq	r1, [r6, #-1283]!	; 0xfffffafd
     d7c:	0501061d 	streq	r0, [r1, #-1565]	; 0xfffff9e3
     d80:	79030609 	stmdbvc	r3, {r0, r3, r9, sl}
     d84:	06220566 	strteq	r0, [r2], -r6, ror #10
     d88:	06010501 	streq	r0, [r1], -r1, lsl #10
     d8c:	3c020500 	cfstr32cc	mvfx0, [r2], {-0}
     d90:	0300000a 	movweq	r0, #10
     d94:	05050121 	streq	r0, [r5, #-289]	; 0xfffffedf
     d98:	17290513 			; <UNDEFINED> instruction: 0x17290513
     d9c:	17170505 	ldrne	r0, [r7, -r5, lsl #10]
     da0:	01060705 	tsteq	r6, r5, lsl #14
     da4:	35060a05 	strcc	r0, [r6, #-2565]	; 0xfffff5fb
     da8:	01060c05 	tsteq	r6, r5, lsl #24
     dac:	35060a05 	strcc	r0, [r6, #-2565]	; 0xfffff5fb
     db0:	01060c05 	tsteq	r6, r5, lsl #24
     db4:	35060a05 	strcc	r0, [r6, #-2565]	; 0xfffff5fb
     db8:	01060c05 	tsteq	r6, r5, lsl #24
     dbc:	35060a05 	strcc	r0, [r6, #-2565]	; 0xfffff5fb
     dc0:	01060c05 	tsteq	r6, r5, lsl #24
     dc4:	25060905 	strcs	r0, [r6, #-2309]	; 0xfffff6fb
     dc8:	01061105 	tsteq	r6, r5, lsl #2
     dcc:	4b2b0520 	blmi	ac2254 <_etext+0xac04f8>
     dd0:	052d1105 	streq	r1, [sp, #-261]!	; 0xfffffefb
     dd4:	11052f14 	tstne	r5, r4, lsl pc
     dd8:	2114051f 	tstcs	r4, pc, lsl r5
     ddc:	202d0f05 	eorcs	r0, sp, r5, lsl #30
     de0:	03060905 	movweq	r0, #26885	; 0x6905
     de4:	1105206b 	tstne	r5, fp, rrx
     de8:	0f050106 	svceq	0x00050106
     dec:	09052e2e 	stmdbeq	r5, {r1, r2, r3, r5, r9, sl, fp, sp}
     df0:	20790306 	rsbscs	r0, r9, r6, lsl #6
     df4:	01061105 	tsteq	r6, r5, lsl #2
     df8:	2e2e0f05 	cdpcs	15, 2, cr0, cr14, cr5, {0}
     dfc:	03060905 	movweq	r0, #26885	; 0x6905
     e00:	11052015 	tstne	r5, r5, lsl r0
     e04:	0f050106 	svceq	0x00050106
     e08:	09052e2e 	stmdbeq	r5, {r1, r2, r3, r5, r9, sl, fp, sp}
     e0c:	20790306 	rsbscs	r0, r9, r6, lsl #6
     e10:	01061105 	tsteq	r6, r5, lsl #2
     e14:	2e2e0f05 	cdpcs	15, 2, cr0, cr14, cr5, {0}
     e18:	68030b05 	stmdavs	r3, {r0, r2, r8, r9, fp}
     e1c:	06050520 	streq	r0, [r5], -r0, lsr #10
     e20:	05202903 	streq	r2, [r0, #-2307]!	; 0xfffff6fd
     e24:	06130601 	ldreq	r0, [r3], -r1, lsl #12
     e28:	05741503 	ldrbeq	r1, [r4, #-1283]!	; 0xfffffafd
     e2c:	05051629 	streq	r1, [r5, #-1577]	; 0xfffff9d7
     e30:	06070517 			; <UNDEFINED> instruction: 0x06070517
     e34:	060a0501 	streq	r0, [sl], -r1, lsl #10
     e38:	060c0535 			; <UNDEFINED> instruction: 0x060c0535
     e3c:	060a0501 	streq	r0, [sl], -r1, lsl #10
     e40:	060c0535 			; <UNDEFINED> instruction: 0x060c0535
     e44:	060a0501 	streq	r0, [sl], -r1, lsl #10
     e48:	060c0535 			; <UNDEFINED> instruction: 0x060c0535
     e4c:	06090501 	streq	r0, [r9], -r1, lsl #10
     e50:	06200525 	strteq	r0, [r0], -r5, lsr #10
     e54:	1f090513 	svcne	0x00090513
     e58:	054b2605 	strbeq	r2, [fp, #-1541]	; 0xfffff9fb
     e5c:	0f052d09 	svceq	0x00052d09
     e60:	3b37052f 	blcc	dc2324 <_etext+0xdc05c8>
     e64:	05230105 	streq	r0, [r3, #-261]!	; 0xfffffefb
     e68:	6f030609 	svcvs	0x00030609
     e6c:	061e0520 	ldreq	r0, [lr], -r0, lsr #10
     e70:	06090501 	streq	r0, [r9], -r1, lsl #10
     e74:	05667903 	strbeq	r7, [r6, #-2307]!	; 0xfffff6fd
     e78:	0501061e 	streq	r0, [r1, #-1566]	; 0xfffff9e2
     e7c:	0e030609 	cfmadd32eq	mvax0, mvfx0, mvfx3, mvfx9
     e80:	061e0566 	ldreq	r0, [lr], -r6, ror #10
     e84:	06010501 	streq	r0, [r1], -r1, lsl #10
     e88:	fc020500 	stc2	5, cr0, [r2], {-0}
     e8c:	0300000a 	movweq	r0, #10
     e90:	2905011c 	stmdbcs	r5, {r2, r3, r4, r8}
     e94:	17050516 	smladne	r5, r6, r5, r0
     e98:	01060705 	tsteq	r6, r5, lsl #14
     e9c:	35060a05 	strcc	r0, [r6, #-2565]	; 0xfffff5fb
     ea0:	01060c05 	tsteq	r6, r5, lsl #24
     ea4:	35060a05 	strcc	r0, [r6, #-2565]	; 0xfffff5fb
     ea8:	01060c05 	tsteq	r6, r5, lsl #24
     eac:	25060905 	strcs	r0, [r6, #-2309]	; 0xfffff6fb
     eb0:	13062005 	movwne	r2, #24581	; 0x6005
     eb4:	051f0905 	ldreq	r0, [pc, #-2309]	; 5b7 <GPIOPortIntRegister+0xf>
     eb8:	09054b26 	stmdbeq	r5, {r1, r2, r5, r8, r9, fp, lr}
     ebc:	2f0f052d 	svccs	0x000f052d
     ec0:	053b3905 	ldreq	r3, [fp, #-2309]!	; 0xfffff6fb
     ec4:	09052301 	stmdbeq	r5, {r0, r8, r9, sp}
     ec8:	20760306 	rsbscs	r0, r6, r6, lsl #6
     ecc:	01061e05 	tsteq	r6, r5, lsl #28
     ed0:	03060905 	movweq	r0, #26885	; 0x6905
     ed4:	1e056679 	mcrne	6, 0, r6, cr5, cr9, {3}
     ed8:	01050106 	tsteq	r5, r6, lsl #2
     edc:	02050006 	andeq	r0, r5, #6
     ee0:	00000b44 	andeq	r0, r0, r4, asr #22
     ee4:	05012c03 	streq	r2, [r1, #-3075]	; 0xfffff3fd
     ee8:	2e061305 	cdpcs	3, 0, cr1, cr6, cr5, {0}
     eec:	00060105 	andeq	r0, r6, r5, lsl #2
     ef0:	0b480205 	bleq	120170c <_etext+0x11ff9b0>
     ef4:	19030000 	stmdbne	r3, {}	; <UNPREDICTABLE>
     ef8:	13050501 	movwne	r0, #21761	; 0x5501
     efc:	01060c05 	tsteq	r6, r5, lsl #24
     f00:	01000202 	tsteq	r0, r2, lsl #4
     f04:	000d9201 	andeq	r9, sp, r1, lsl #4
     f08:	45000300 	strmi	r0, [r0, #-768]	; 0xfffffd00
     f0c:	02000000 	andeq	r0, r0, #0
     f10:	0d0efb01 	vstreq	d15, [lr, #-4]
     f14:	01010100 	mrseq	r0, (UNDEF: 17)
     f18:	00000001 	andeq	r0, r0, r1
     f1c:	01000001 	tsteq	r0, r1
     f20:	73797300 	cmnvc	r9, #0, 6
     f24:	2e6c7463 	cdpcs	4, 6, cr7, cr12, cr3, {3}
     f28:	00000063 	andeq	r0, r0, r3, rrx
     f2c:	75706300 	ldrbvc	r6, [r0, #-768]!	; 0xfffffd00
     f30:	0000682e 	andeq	r6, r0, lr, lsr #16
     f34:	6e690000 	cdpvs	0, 6, cr0, cr9, cr0, {0}
     f38:	72726574 	rsbsvc	r6, r2, #116, 10	; 0x1d000000
     f3c:	2e747075 	mrccs	0, 3, r7, cr4, cr5, {3}
     f40:	00000068 	andeq	r0, r0, r8, rrx
     f44:	5f776800 	svcpl	0x00776800
     f48:	65707974 	ldrbvs	r7, [r0, #-2420]!	; 0xfffff68c
     f4c:	00682e73 	rsbeq	r2, r8, r3, ror lr
     f50:	00000000 	andeq	r0, r0, r0
     f54:	05000105 	streq	r0, [r0, #-261]	; 0xfffffefb
     f58:	000b4c02 	andeq	r4, fp, r2, lsl #24
     f5c:	03810300 	orreq	r0, r1, #0, 6
     f60:	16050501 	strne	r0, [r5], -r1, lsl #10
     f64:	01060e05 	tsteq	r6, r5, lsl #28
     f68:	05203705 	streq	r3, [r0, #-1797]!	; 0xfffff8fb
     f6c:	3705200e 	strcc	r2, [r5, -lr]
     f70:	2f010520 	svccs	0x00010520
     f74:	740d0306 	strvc	r0, [sp], #-774	; 0xfffffcfa
     f78:	05160505 	ldreq	r0, [r6, #-1285]	; 0xfffffafb
     f7c:	0501060e 	streq	r0, [r1, #-1550]	; 0xfffff9f2
     f80:	0e052038 	mcreq	0, 0, r2, cr5, cr8, {1}
     f84:	20380520 	eorscs	r0, r8, r0, lsr #10
     f88:	062f0105 	strteq	r0, [pc], -r5, lsl #2
     f8c:	05742003 	ldrbeq	r2, [r4, #-3]!
     f90:	01220328 			; <UNDEFINED> instruction: 0x01220328
     f94:	05170505 	ldreq	r0, [r7, #-1285]	; 0xfffffafb
     f98:	05010608 	streq	r0, [r1, #-1544]	; 0xfffff9f8
     f9c:	01052e07 	tsteq	r5, r7, lsl #28
     fa0:	00062e28 	andeq	r2, r6, r8, lsr #28
     fa4:	0b900205 	bleq	fe4017c0 <_ebss+0xde401444>
     fa8:	2d030000 	stccs	0, cr0, [r3, #-0]
     fac:	16300501 	ldrtne	r0, [r0], -r1, lsl #10
     fb0:	05180505 	ldreq	r0, [r8, #-1285]	; 0xfffffafb
     fb4:	05010616 	streq	r0, [r1, #-1558]	; 0xfffff9ea
     fb8:	0a052e07 	beq	14c7dc <_etext+0x14aa80>
     fbc:	0c054406 	cfstrseq	mvf4, [r5], {6}
     fc0:	0a050106 	beq	1413e0 <_etext+0x13f684>
     fc4:	3c0e0306 	stccc	3, cr0, [lr], {6}
     fc8:	01060d05 	tsteq	r6, r5, lsl #26
     fcc:	2e211f4b 	cdpcs	15, 2, cr1, cr1, cr11, {2}
     fd0:	052d0c05 	streq	r0, [sp, #-3077]!	; 0xfffff3fb
     fd4:	206f0310 	rsbcs	r0, pc, r0, lsl r3	; <UNPREDICTABLE>
     fd8:	1a030105 	bne	c13f4 <_etext+0xbf698>
     fdc:	0609053c 			; <UNDEFINED> instruction: 0x0609053c
     fe0:	05206e03 	streq	r6, [r0, #-3587]!	; 0xfffff1fd
     fe4:	0501060c 	streq	r0, [r1, #-1548]	; 0xfffff9f4
     fe8:	2e780310 	mrccs	3, 3, r0, cr8, cr0, {0}
     fec:	58060905 	stmdapl	r6, {r0, r2, r8, fp}
     ff0:	01061005 	tsteq	r6, r5
     ff4:	060105ba 			; <UNDEFINED> instruction: 0x060105ba
     ff8:	9e00cb03 	vmlals.f64	d12, d0, d3
     ffc:	05163005 	ldreq	r3, [r6, #-5]
    1000:	01051805 	tsteq	r5, r5, lsl #16
    1004:	01760306 	cmneq	r6, r6, lsl #6
    1008:	7dea0306 	stclvc	3, cr0, [sl, #24]!
    100c:	1405052e 	strne	r0, [r5], #-1326	; 0xfffffad2
    1010:	01160517 	tsteq	r6, r7, lsl r5
    1014:	01061105 	tsteq	r6, r5, lsl #2
    1018:	052f4905 	streq	r4, [pc, #-2309]!	; 71b <GPIOPinTypeI2CSCL+0xb>
    101c:	051f0616 	ldreq	r0, [pc, #-1558]	; a0e <IntDisable+0x3e>
    1020:	05010605 	streq	r0, [r1, #-1541]	; 0xfffff9fb
    1024:	05500609 	ldrbeq	r0, [r0, #-1545]	; 0xfffff9f7
    1028:	0b050d42 	bleq	144538 <_etext+0x1427dc>
    102c:	0d051706 	stceq	7, cr1, [r5, #-24]	; 0xffffffe8
    1030:	30053406 	andcc	r3, r5, r6, lsl #8
    1034:	203c0106 	eorscs	r0, ip, r6, lsl #2
    1038:	03060505 	movweq	r0, #25861	; 0x6505
    103c:	05010292 	streq	r0, [r1, #-658]	; 0xfffffd6e
    1040:	0501060c 	streq	r0, [r1, #-1548]	; 0xfffff9f4
    1044:	0306bc01 	movweq	fp, #27649	; 0x6c01
    1048:	3005ac2e 	andcc	sl, r5, lr, lsr #24
    104c:	18050516 	stmdane	r5, {r1, r2, r4, r8, sl}
    1050:	03060105 	movweq	r0, #24837	; 0x6105
    1054:	03060176 	movweq	r0, #24950	; 0x6176
    1058:	052e7dab 	streq	r7, [lr, #-3499]!	; 0xfffff255
    105c:	05171405 	ldreq	r1, [r7, #-1029]	; 0xfffffbfb
    1060:	11050116 	tstne	r5, r6, lsl r1
    1064:	49050106 	stmdbmi	r5, {r1, r2, r8}
    1068:	0616052f 	ldreq	r0, [r6], -pc, lsr #10
    106c:	0605051f 			; <UNDEFINED> instruction: 0x0605051f
    1070:	06090501 	streq	r0, [r9], -r1, lsl #10
    1074:	0d420550 	cfstr64eq	mvdx0, [r2, #-320]	; 0xfffffec0
    1078:	17060b05 	strne	r0, [r6, -r5, lsl #22]
    107c:	34060d05 	strcc	r0, [r6], #-3333	; 0xfffff2fb
    1080:	01063005 	tsteq	r6, r5
    1084:	0505203c 	streq	r2, [r5, #-60]	; 0xffffffc4
    1088:	02d10306 	sbcseq	r0, r1, #402653184	; 0x18000000
    108c:	06240501 	strteq	r0, [r4], -r1, lsl #10
    1090:	2f0105ad 	svccs	0x000105ad
    1094:	9e2f0306 	cdpls	3, 2, cr0, cr15, cr6, {0}
    1098:	05163005 	ldreq	r3, [r6, #-5]
    109c:	01051805 	tsteq	r5, r5, lsl #16
    10a0:	01760306 	cmneq	r6, r6, lsl #6
    10a4:	7ceb0306 	stclvc	3, cr0, [fp], #24
    10a8:	1405052e 	strne	r0, [r5], #-1326	; 0xfffffad2
    10ac:	01160517 	tsteq	r6, r7, lsl r5
    10b0:	01061105 	tsteq	r6, r5, lsl #2
    10b4:	052f4905 	streq	r4, [pc, #-2309]!	; 7b7 <GPIOPinTypeQEI+0xb>
    10b8:	051f0616 	ldreq	r0, [pc, #-1558]	; aaa <IntPendSet+0x6>
    10bc:	05010605 	streq	r0, [r1, #-1541]	; 0xfffff9fb
    10c0:	05500609 	ldrbeq	r0, [r0, #-1545]	; 0xfffff9f7
    10c4:	0b050d42 	bleq	1445d4 <_etext+0x142878>
    10c8:	0d051706 	stceq	7, cr1, [r5, #-24]	; 0xffffffe8
    10cc:	30053406 	andcc	r3, r5, r6, lsl #8
    10d0:	203c0106 	eorscs	r0, ip, r6, lsl #2
    10d4:	03060505 	movweq	r0, #25861	; 0x6505
    10d8:	05010391 	streq	r0, [r1, #-913]	; 0xfffffc6f
    10dc:	05ad0624 	streq	r0, [sp, #1572]!	; 0x624
    10e0:	03062f01 	movweq	r2, #28417	; 0x6f01
    10e4:	05059e2c 	streq	r9, [r5, #-3628]	; 0xfffff1d4
    10e8:	17300513 			; <UNDEFINED> instruction: 0x17300513
    10ec:	05180505 	ldreq	r0, [r8, #-1285]	; 0xfffffafb
    10f0:	05010616 	streq	r0, [r1, #-1558]	; 0xfffff9ea
    10f4:	01052e07 	tsteq	r5, r7, lsl #28
    10f8:	052e7403 	streq	r7, [lr, #-1027]!	; 0xfffffbfd
    10fc:	200c0307 	andcs	r0, ip, r7, lsl #6
    1100:	03060905 	movweq	r0, #26885	; 0x6905
    1104:	0d05201a 	stceq	0, cr2, [r5, #-104]	; 0xffffff98
    1108:	09054b06 	stmdbeq	r5, {r1, r2, r8, r9, fp, lr}
    110c:	2f0d051f 	svccs	0x000d051f
    1110:	052d4105 	streq	r4, [sp, #-261]!	; 0xfffffefb
    1114:	4105210d 	tstmi	r5, sp, lsl #2
    1118:	3415052d 	ldrcc	r0, [r5], #-1325	; 0xfffffad3
    111c:	7a034105 	bvc	d1538 <_etext+0xcf7dc>
    1120:	06090520 	streq	r0, [r9], -r0, lsr #10
    1124:	06150526 	ldreq	r0, [r5], -r6, lsr #10
    1128:	061a0501 	ldreq	r0, [sl], -r1, lsl #10
    112c:	06220520 	strteq	r0, [r2], -r0, lsr #10
    1130:	20090501 	andcs	r0, r9, r1, lsl #10
    1134:	03040200 	movweq	r0, #16896	; 0x4200
    1138:	28053006 	stmdacs	r5, {r1, r2, ip, sp}
    113c:	03040200 	movweq	r0, #16896	; 0x4200
    1140:	002f0510 	eoreq	r0, pc, r0, lsl r5	; <UNPREDICTABLE>
    1144:	06030402 	streq	r0, [r3], -r2, lsl #8
    1148:	001a0501 	andseq	r0, sl, r1, lsl #10
    114c:	06030402 	streq	r0, [r3], -r2, lsl #8
    1150:	0022053c 	eoreq	r0, r2, ip, lsr r5
    1154:	06030402 	streq	r0, [r3], -r2, lsl #8
    1158:	00090501 	andeq	r0, r9, r1, lsl #10
    115c:	20030402 	andcs	r0, r3, r2, lsl #8
    1160:	41053506 	tstmi	r5, r6, lsl #10
    1164:	01050106 	tsteq	r5, r6, lsl #2
    1168:	0609054d 	streq	r0, [r9], -sp, asr #10
    116c:	052e5b03 	streq	r5, [lr, #-2819]!	; 0xfffff4fd
    1170:	05b20615 	ldreq	r0, [r2, #1557]!	; 0x615
    1174:	09051b28 	stmdbeq	r5, {r3, r5, r8, r9, fp, ip}
    1178:	15053306 	strne	r3, [r5, #-774]	; 0xfffffcfa
    117c:	1a050106 	bne	14159c <_etext+0x13f840>
    1180:	22052006 	andcs	r2, r5, #6
    1184:	09050106 	stmdbeq	r5, {r1, r2, r8}
    1188:	04020020 	streq	r0, [r2], #-32	; 0xffffffe0
    118c:	05300603 	ldreq	r0, [r0, #-1539]!	; 0xfffff9fd
    1190:	04020028 	streq	r0, [r2], #-40	; 0xffffffd8
    1194:	2f051003 	svccs	0x00051003
    1198:	03040200 	movweq	r0, #16896	; 0x4200
    119c:	1a050106 	bne	1415bc <_etext+0x13f860>
    11a0:	03040200 	movweq	r0, #16896	; 0x4200
    11a4:	22053c06 	andcs	r3, r5, #1536	; 0x600
    11a8:	03040200 	movweq	r0, #16896	; 0x4200
    11ac:	09050106 	stmdbeq	r5, {r1, r2, r8}
    11b0:	03040200 	movweq	r0, #16896	; 0x4200
    11b4:	05350620 	ldreq	r0, [r5, #-1568]!	; 0xfffff9e0
    11b8:	05130628 	ldreq	r0, [r3, #-1576]	; 0xfffff9d8
    11bc:	2e170301 	cdpcs	3, 1, cr0, cr7, cr1, {0}
    11c0:	02050006 	andeq	r0, r5, #6
    11c4:	00000d68 	andeq	r0, r0, r8, ror #26
    11c8:	05013103 	streq	r3, [r1, #-259]	; 0xfffffefd
    11cc:	05051630 	streq	r1, [r5, #-1584]	; 0xfffff9d0
    11d0:	06160518 			; <UNDEFINED> instruction: 0x06160518
    11d4:	2e070501 	cfsh32cs	mvfx0, mvfx7, #1
    11d8:	03060905 	movweq	r0, #26885	; 0x6905
    11dc:	0d053c0d 	stceq	12, cr3, [r5, #-52]	; 0xffffffcc
    11e0:	09054b06 	stmdbeq	r5, {r1, r2, r8, r9, fp, lr}
    11e4:	2f0d051f 	svccs	0x000d051f
    11e8:	052d4105 	streq	r4, [sp, #-261]!	; 0xfffffefb
    11ec:	4105210d 	tstmi	r5, sp, lsl #2
    11f0:	3101052d 	tstcc	r1, sp, lsr #10
    11f4:	03060905 	movweq	r0, #26885	; 0x6905
    11f8:	4a062075 	bmi	1893d4 <_etext+0x187678>
    11fc:	05752805 	ldrbeq	r2, [r5, #-2053]!	; 0xfffff7fb
    1200:	05000601 	streq	r0, [r0, #-1537]	; 0xfffff9ff
    1204:	000db402 	andeq	fp, sp, r2, lsl #8
    1208:	01340300 	teqeq	r4, r0, lsl #6
    120c:	05163005 	ldreq	r3, [r6, #-5]
    1210:	16051805 	strne	r1, [r5], -r5, lsl #16
    1214:	07050106 	streq	r0, [r5, -r6, lsl #2]
    1218:	0609052e 	streq	r0, [r9], -lr, lsr #10
    121c:	053c0d03 	ldreq	r0, [ip, #-3331]!	; 0xfffff2fd
    1220:	054b060e 	strbeq	r0, [fp, #-1550]	; 0xfffff9f2
    1224:	0e051f09 	cdpeq	15, 0, cr1, cr5, cr9, {0}
    1228:	2d41052f 	cfstr64cs	mvdx0, [r1, #-188]	; 0xffffff44
    122c:	05210e05 	streq	r0, [r1, #-3589]!	; 0xfffff1fb
    1230:	01052d41 	tsteq	r5, r1, asr #26
    1234:	0609053f 			; <UNDEFINED> instruction: 0x0609053f
    1238:	06207503 	strteq	r7, [r0], -r3, lsl #10
    123c:	7528054a 	strvc	r0, [r8, #-1354]!	; 0xfffffab6
    1240:	00060105 	andeq	r0, r6, r5, lsl #2
    1244:	0e040205 	cdpeq	2, 0, cr0, cr4, cr5, {0}
    1248:	3b030000 	blcc	c1250 <_etext+0xbf4f4>
    124c:	16300501 	ldrtne	r0, [r0], -r1, lsl #10
    1250:	05180505 	ldreq	r0, [r8, #-1285]	; 0xfffffafb
    1254:	05010616 	streq	r0, [r1, #-1558]	; 0xfffff9ea
    1258:	09052e07 	stmdbeq	r5, {r0, r1, r2, r9, sl, fp, sp}
    125c:	3c0d0306 	stccc	3, cr0, [sp], {6}
    1260:	4b060d05 	blmi	18467c <_etext+0x182920>
    1264:	051f0905 	ldreq	r0, [pc, #-2309]	; 967 <IntEnable+0x3>
    1268:	41052f0d 	tstmi	r5, sp, lsl #30
    126c:	210d052d 	tstcs	sp, sp, lsr #10
    1270:	052d4105 	streq	r4, [sp, #-261]!	; 0xfffffefb
    1274:	09053101 	stmdbeq	r5, {r0, r8, ip, sp}
    1278:	20750306 	rsbscs	r0, r5, r6, lsl #6
    127c:	28054a06 	stmdacs	r5, {r1, r2, r9, fp, lr}
    1280:	06010575 			; <UNDEFINED> instruction: 0x06010575
    1284:	50020500 	andpl	r0, r2, r0, lsl #10
    1288:	0300000e 	movweq	r0, #14
    128c:	3005013c 	andcc	r0, r5, ip, lsr r1
    1290:	18050516 	stmdane	r5, {r1, r2, r4, r8, sl}
    1294:	01061605 	tsteq	r6, r5, lsl #12
    1298:	052e0705 	streq	r0, [lr, #-1797]!	; 0xfffff8fb
    129c:	0d030609 	stceq	6, cr0, [r3, #-36]	; 0xffffffdc
    12a0:	060e053c 			; <UNDEFINED> instruction: 0x060e053c
    12a4:	1f09054b 	svcne	0x0009054b
    12a8:	052f0e05 	streq	r0, [pc, #-3589]!	; 4ab <GPIOPadConfigSet+0x6f>
    12ac:	0e052d41 	cdpeq	13, 0, cr2, cr5, cr1, {2}
    12b0:	2d410521 	cfstr64cs	mvdx0, [r1, #-132]	; 0xffffff7c
    12b4:	053f0105 	ldreq	r0, [pc, #-261]!	; 11b7 <SysCtlClockSet+0x113>
    12b8:	75030609 	strvc	r0, [r3, #-1545]	; 0xfffff9f7
    12bc:	054a0620 	strbeq	r0, [sl, #-1568]	; 0xfffff9e0
    12c0:	01057528 	tsteq	r5, r8, lsr #10
    12c4:	02050006 	andeq	r0, r5, #6
    12c8:	00000ea0 	andeq	r0, r0, r0, lsr #29
    12cc:	05013d03 	streq	r3, [r1, #-3331]	; 0xfffff2fd
    12d0:	05051630 	streq	r1, [r5, #-1584]	; 0xfffff9d0
    12d4:	06160518 			; <UNDEFINED> instruction: 0x06160518
    12d8:	2e070501 	cfsh32cs	mvfx0, mvfx7, #1
    12dc:	03060905 	movweq	r0, #26885	; 0x6905
    12e0:	0d053c0d 	stceq	12, cr3, [r5, #-52]	; 0xffffffcc
    12e4:	09054b06 	stmdbeq	r5, {r1, r2, r8, r9, fp, lr}
    12e8:	2f0d051f 	svccs	0x000d051f
    12ec:	052d4105 	streq	r4, [sp, #-261]!	; 0xfffffefb
    12f0:	4105210d 	tstmi	r5, sp, lsl #2
    12f4:	3101052d 	tstcc	r1, sp, lsr #10
    12f8:	03060905 	movweq	r0, #26885	; 0x6905
    12fc:	4a062075 	bmi	1894d8 <_etext+0x18777c>
    1300:	05752805 	ldrbeq	r2, [r5, #-2053]!	; 0xfffff7fb
    1304:	05000601 	streq	r0, [r0, #-1537]	; 0xfffff9ff
    1308:	000eec02 	andeq	lr, lr, r2, lsl #24
    130c:	013f0300 	teqeq	pc, r0, lsl #6
    1310:	05163005 	ldreq	r3, [r6, #-5]
    1314:	16051805 	strne	r1, [r5], -r5, lsl #16
    1318:	07050106 	streq	r0, [r5, -r6, lsl #2]
    131c:	0609052e 	streq	r0, [r9], -lr, lsr #10
    1320:	053c0d03 	ldreq	r0, [ip, #-3331]!	; 0xfffff2fd
    1324:	054b060e 	strbeq	r0, [fp, #-1550]	; 0xfffff9f2
    1328:	0e051f09 	cdpeq	15, 0, cr1, cr5, cr9, {0}
    132c:	2d41052f 	cfstr64cs	mvdx0, [r1, #-188]	; 0xffffff44
    1330:	05210e05 	streq	r0, [r1, #-3589]!	; 0xfffff1fb
    1334:	01052d41 	tsteq	r5, r1, asr #26
    1338:	0609053f 			; <UNDEFINED> instruction: 0x0609053f
    133c:	06207503 	strteq	r7, [r0], -r3, lsl #10
    1340:	7528054a 	strvc	r0, [r8, #-1354]!	; 0xfffffab6
    1344:	00060105 	andeq	r0, r6, r5, lsl #2
    1348:	0f3c0205 	svceq	0x003c0205
    134c:	1f030000 	svcne	0x00030000
    1350:	16050501 	strne	r0, [r5], -r1, lsl #10
    1354:	14061b05 	strne	r1, [r6], #-2821	; 0xfffff4fb
    1358:	052c0705 	streq	r0, [ip, #-1797]!	; 0xfffff8fb
    135c:	05220609 	streq	r0, [r2, #-1545]!	; 0xfffff9f7
    1360:	0501061b 	streq	r0, [r1, #-1563]	; 0xfffff9e5
    1364:	054e0609 	strbeq	r0, [lr, #-1545]	; 0xfffff9f7
    1368:	0501061b 	streq	r0, [r1, #-1563]	; 0xfffff9e5
    136c:	03063e01 	movweq	r3, #28161	; 0x6e01
    1370:	05054a20 	streq	r4, [r5, #-2592]	; 0xfffff5e0
    1374:	06010516 			; <UNDEFINED> instruction: 0x06010516
    1378:	0505200e 	streq	r2, [r5, #-14]
    137c:	33062024 	movwcc	r2, #24612	; 0x6024
    1380:	13060105 	movwne	r0, #24837	; 0x6105
    1384:	052d0505 	streq	r0, [sp, #-1285]!	; 0xfffffafb
    1388:	05000601 	streq	r0, [r0, #-1537]	; 0xfffff9ff
    138c:	000f6c02 	andeq	r6, pc, r2, lsl #24
    1390:	01130300 	tsteq	r3, r0, lsl #6
    1394:	05160505 	ldreq	r0, [r6, #-1285]	; 0xfffffafb
    1398:	050e0601 	streq	r0, [lr, #-1537]	; 0xfffff9ff
    139c:	41062405 	tstmi	r6, r5, lsl #8
    13a0:	13060105 	movwne	r0, #24837	; 0x6105
    13a4:	052d0505 	streq	r0, [sp, #-1285]!	; 0xfffffafb
    13a8:	05000601 	streq	r0, [r0, #-1537]	; 0xfffff9ff
    13ac:	000f8002 	andeq	r8, pc, r2
    13b0:	01190300 	tsteq	r9, r0, lsl #6
    13b4:	05160505 	ldreq	r0, [r6, #-1285]	; 0xfffffafb
    13b8:	3c010617 	stccc	6, cr0, [r1], {23}
    13bc:	06210105 	strteq	r0, [r1], -r5, lsl #2
    13c0:	054a1803 	strbeq	r1, [sl, #-2051]	; 0xfffff7fd
    13c4:	17051605 	strne	r1, [r5, -r5, lsl #12]
    13c8:	054a0106 	strbeq	r0, [sl, #-262]	; 0xfffffefa
    13cc:	03062101 	movweq	r2, #24833	; 0x6101
    13d0:	05053c21 	streq	r3, [r5, #-3105]	; 0xfffff3df
    13d4:	06180516 			; <UNDEFINED> instruction: 0x06180516
    13d8:	2f010501 	svccs	0x00010501
    13dc:	4a190306 	bmi	641ffc <_etext+0x6402a0>
    13e0:	05170505 	ldreq	r0, [r7, #-1285]	; 0xfffffafb
    13e4:	05010607 	streq	r0, [r1, #-1543]	; 0xfffff9f9
    13e8:	05220609 	streq	r0, [r2, #-1545]!	; 0xfffff9f7
    13ec:	2e010610 	mcrcs	6, 0, r0, cr1, cr0, {0}
    13f0:	24060905 	strcs	r0, [r6], #-2309	; 0xfffff6fb
    13f4:	01061005 	tsteq	r6, r5
    13f8:	06300105 	ldrteq	r0, [r0], -r5, lsl #2
    13fc:	05661903 	strbeq	r1, [r6, #-2307]!	; 0xfffff6fd
    1400:	010e032c 	tsteq	lr, ip, lsr #6
    1404:	05170505 	ldreq	r0, [r7, #-1285]	; 0xfffffafb
    1408:	0501061b 	streq	r0, [r1, #-1563]	; 0xfffff9e5
    140c:	03062f01 	movweq	r2, #28417	; 0x6f01
    1410:	05054a12 	streq	r4, [r5, #-2578]	; 0xfffff5ee
    1414:	060c0516 			; <UNDEFINED> instruction: 0x060c0516
    1418:	2f010501 	svccs	0x00010501
    141c:	4a130306 	bmi	4c203c <_etext+0x4c02e0>
    1420:	05172e05 	ldreq	r2, [r7, #-3589]	; 0xfffff1fb
    1424:	1b051705 	blne	147040 <_etext+0x1452e4>
    1428:	01050106 	tsteq	r5, r6, lsl #2
    142c:	1103062f 	tstne	r3, pc, lsr #12
    1430:	1705054a 	strne	r0, [r5, -sl, asr #10]
    1434:	01061705 	tsteq	r6, r5, lsl #14
    1438:	02000505 	andeq	r0, r0, #20971520	; 0x1400000
    143c:	42060104 	andmi	r0, r6, #4, 2
    1440:	01040200 	mrseq	r0, R12_usr
    1444:	000a0514 	andeq	r0, sl, r4, lsl r5
    1448:	10010402 	andne	r0, r1, r2, lsl #8
    144c:	02000505 	andeq	r0, r0, #20971520	; 0x1400000
    1450:	00010104 	andeq	r0, r1, r4, lsl #2
    1454:	14010402 	strne	r0, [r1], #-1026	; 0xfffffbfe
    1458:	02000a05 	andeq	r0, r0, #20480	; 0x5000
    145c:	05100104 	ldreq	r0, [r0, #-260]	; 0xfffffefc
    1460:	02050001 	andeq	r0, r5, #1
    1464:	00000ff8 	strdeq	r0, [r0], -r8
    1468:	05011503 	streq	r1, [r1, #-1283]	; 0xfffffafd
    146c:	01051605 	tsteq	r5, r5, lsl #12
    1470:	fc020500 	stc2	5, cr0, [r2], {-0}
    1474:	0300000f 	movweq	r0, #15
    1478:	05050113 	streq	r0, [r5, #-275]	; 0xfffffeed
    147c:	06010516 			; <UNDEFINED> instruction: 0x06010516
    1480:	241a050e 	ldrcs	r0, [sl], #-1294	; 0xfffffaf2
    1484:	5d060505 	cfstr32pl	mvfx0, [r6, #-20]	; 0xffffffec
    1488:	061a0533 			; <UNDEFINED> instruction: 0x061a0533
    148c:	4b010501 	blmi	42898 <_etext+0x40b3c>
    1490:	4a130306 	bmi	4c20b0 <_etext+0x4c0354>
    1494:	05160505 	ldreq	r0, [r6, #-1285]	; 0xfffffafb
    1498:	0501060c 	streq	r0, [r1, #-1548]	; 0xfffff9f4
    149c:	03062f01 	movweq	r2, #28417	; 0x6f01
    14a0:	05054a15 	streq	r4, [r5, #-2581]	; 0xfffff5eb
    14a4:	06180516 			; <UNDEFINED> instruction: 0x06180516
    14a8:	01054a01 	tsteq	r5, r1, lsl #20
    14ac:	1c030621 	stcne	6, cr0, [r3], {33}	; 0x21
    14b0:	1644053c 			; <UNDEFINED> instruction: 0x1644053c
    14b4:	05131b05 	ldreq	r1, [r3, #-2821]	; 0xfffff4fb
    14b8:	1b051705 	blne	1470d4 <_etext+0x145378>
    14bc:	42050106 	andmi	r0, r5, #-2147483647	; 0x80000001
    14c0:	2e1b0520 	cfmul64cs	mvdx0, mvdx11, mvdx0
    14c4:	06210105 	strteq	r0, [r1], -r5, lsl #2
    14c8:	054a1d03 	strbeq	r1, [sl, #-3331]	; 0xfffff2fd
    14cc:	01051305 	tsteq	r5, r5, lsl #6
    14d0:	00064d06 	andeq	r4, r6, r6, lsl #26
    14d4:	10500205 	subsne	r0, r0, r5, lsl #4
    14d8:	35030000 	strcc	r0, [r3, #-0]
    14dc:	16050501 	strne	r0, [r5], -r1, lsl #10
    14e0:	01061b05 	tsteq	r6, r5, lsl #22
    14e4:	062f0105 	strteq	r0, [pc], -r5, lsl #2
    14e8:	054a1f03 	strbeq	r1, [sl, #-3843]	; 0xfffff0fd
    14ec:	0f051905 	svceq	0x00051905
    14f0:	07050106 	streq	r0, [r5, -r6, lsl #2]
    14f4:	06090520 	streq	r0, [r9], -r0, lsr #10
    14f8:	06200530 			; <UNDEFINED> instruction: 0x06200530
    14fc:	22140501 	andscs	r0, r4, #4194304	; 0x400000
    1500:	052c2905 	streq	r2, [ip, #-2309]!	; 0xfffff6fb
    1504:	09052e20 	stmdbeq	r5, {r5, r9, sl, fp, sp}
    1508:	20052106 	andcs	r2, r5, r6, lsl #2
    150c:	05050106 	streq	r0, [r5, #-262]	; 0xfffffefa
    1510:	1c052306 	stcne	3, cr2, [r5], {6}
    1514:	05050106 	streq	r0, [r5, #-262]	; 0xfffffefa
    1518:	07053306 	streq	r3, [r5, -r6, lsl #6]
    151c:	10050106 	andne	r0, r5, r6, lsl #2
    1520:	00090533 	andeq	r0, r9, r3, lsr r5
    1524:	06010402 	streq	r0, [r1], -r2, lsl #8
    1528:	000e0522 	andeq	r0, lr, r2, lsr #10
    152c:	10010402 	andne	r0, r1, r2, lsl #8
    1530:	02001005 	andeq	r1, r0, #5
    1534:	01060104 	tsteq	r6, r4, lsl #2
    1538:	02000e05 	andeq	r0, r0, #5, 28	; 0x50
    153c:	05200104 	streq	r0, [r0, #-260]!	; 0xfffffefc
    1540:	05430609 	strbeq	r0, [r3, #-1545]	; 0xfffff9f7
    1544:	0501060d 	streq	r0, [r1, #-1549]	; 0xfffff9f3
    1548:	0b052025 	bleq	1495e4 <_etext+0x147888>
    154c:	660a032e 	strvs	r0, [sl], -lr, lsr #6
    1550:	06210105 	strteq	r0, [r1], -r5, lsl #2
    1554:	7400cf03 	strvc	ip, [r0], #-3843	; 0xfffff0fd
    1558:	18130505 	ldmdane	r3, {r0, r2, r8, sl}
    155c:	01060805 	tsteq	r6, r5, lsl #16
    1560:	052e0705 	streq	r0, [lr, #-1797]!	; 0xfffff8fb
    1564:	2e790301 	cdpcs	3, 7, cr0, cr9, cr1, {0}
    1568:	2707052e 	strcs	r0, [r7, -lr, lsr #10]
    156c:	02000805 	andeq	r0, r0, #327680	; 0x50000
    1570:	052e0204 	streq	r0, [lr, #-516]!	; 0xfffffdfc
    1574:	0e030605 	cfmadd32eq	mvax0, mvfx0, mvfx3, mvfx5
    1578:	060b0574 			; <UNDEFINED> instruction: 0x060b0574
    157c:	210c0501 	tstcs	ip, r1, lsl #10
    1580:	051f0b05 	ldreq	r0, [pc, #-2821]	; a83 <IntIsEnabled+0x47>
    1584:	05210605 	streq	r0, [r1, #-1541]!	; 0xfffff9fb
    1588:	0501060c 	streq	r0, [r1, #-1548]	; 0xfffff9f4
    158c:	13250605 			; <UNDEFINED> instruction: 0x13250605
    1590:	2e060b05 	vmlacs.f64	d0, d6, d5
    1594:	2f060505 	svccs	0x00060505
    1598:	17061705 	strne	r1, [r6, -r5, lsl #14]
    159c:	05290c05 	streq	r0, [r9, #-3077]!	; 0xfffff3fb
    15a0:	13330605 	teqne	r3, #5242880	; 0x500000
    15a4:	17060705 	strne	r0, [r6, -r5, lsl #14]
    15a8:	051b1805 	ldreq	r1, [fp, #-2053]	; 0xfffff7fb
    15ac:	05250605 	streq	r0, [r5, #-1541]!	; 0xfffff9fb
    15b0:	05010607 	streq	r0, [r1, #-1543]	; 0xfffff9f9
    15b4:	04020026 	streq	r0, [r2], #-38	; 0xffffffda
    15b8:	09052001 	stmdbeq	r5, {r0, sp}
    15bc:	1b053606 	blne	14eddc <_etext+0x14d080>
    15c0:	3e051806 	cdpcc	8, 0, cr1, cr5, cr6, {0}
    15c4:	05207a03 	streq	r7, [r0, #-2563]!	; 0xfffff5fd
    15c8:	09052e0f 	stmdbeq	r5, {r0, r1, r2, r3, r9, sl, fp, sp}
    15cc:	0b053406 	bleq	14e5ec <_etext+0x14c890>
    15d0:	1b051906 	blne	1479f0 <_etext+0x145c94>
    15d4:	05207903 	streq	r7, [r0, #-2307]!	; 0xfffff6fd
    15d8:	05350609 	ldreq	r0, [r5, #-1545]!	; 0xfffff9f7
    15dc:	0501060b 	streq	r0, [r1, #-1547]	; 0xfffff9f5
    15e0:	2d052415 	cfstrscs	mvf2, [r5, #-84]	; 0xffffffac
    15e4:	060d052d 	streq	r0, [sp], -sp, lsr #10
    15e8:	062e0d03 	strteq	r0, [lr], -r3, lsl #26
    15ec:	0605052e 	streq	r0, [r5], -lr, lsr #10
    15f0:	052e0903 	streq	r0, [lr, #-2307]!	; 0xfffff6fd
    15f4:	27150618 			; <UNDEFINED> instruction: 0x27150618
    15f8:	051f1705 	ldreq	r1, [pc, #-1797]	; efb <SysCtlPeripheralDeepSleepDisable+0xf>
    15fc:	3c7a0318 	ldclcc	3, cr0, [sl], #-96	; 0xffffffa0
    1600:	203d2705 	eorscs	r2, sp, r5, lsl #14
    1604:	05391705 	ldreq	r1, [r9, #-1797]!	; 0xfffff8fb
    1608:	05053b0b 	streq	r3, [r5, #-2827]	; 0xfffff4f5
    160c:	0b052f06 	bleq	14d22c <_etext+0x14b4d0>
    1610:	05050106 	streq	r0, [r5, #-262]	; 0xfffffefa
    1614:	13132f06 	tstne	r3, #6, 30
    1618:	01060c05 	tsteq	r6, r5, lsl #24
    161c:	33060505 	movwcc	r0, #25861	; 0x6505
    1620:	01061705 	tsteq	r6, r5, lsl #14
    1624:	2f060505 	svccs	0x00060505
    1628:	18051806 	stmdane	r5, {r1, r2, fp, ip}
    162c:	05207a03 	streq	r7, [r0, #-2563]!	; 0xfffff5fd
    1630:	33260605 			; <UNDEFINED> instruction: 0x33260605
    1634:	36061805 	strcc	r1, [r6], -r5, lsl #16
    1638:	390b051b 	stmdbcc	fp, {r0, r1, r3, r4, r8, sl}
    163c:	2f060505 	svccs	0x00060505
    1640:	01061705 	tsteq	r6, r5, lsl #14
    1644:	05351805 	ldreq	r1, [r5, #-2053]!	; 0xfffff7fb
    1648:	2e79030b 	cdpcs	3, 7, cr0, cr9, cr11, {0}
    164c:	2f060505 	svccs	0x00060505
    1650:	05171713 	ldreq	r1, [r7, #-1811]	; 0xfffff8ed
    1654:	05010607 	streq	r0, [r1, #-1543]	; 0xfffff9f9
    1658:	05300609 	ldreq	r0, [r0, #-1545]!	; 0xfffff9f7
    165c:	0f030617 	svceq	0x00030617
    1660:	031c0501 	tsteq	ip, #4194304	; 0x400000
    1664:	09052071 	stmdbeq	r5, {r0, r4, r5, r6, sp}
    1668:	1b052f06 	blne	14d288 <_etext+0x14b52c>
    166c:	051c1606 	ldreq	r1, [ip, #-1542]	; 0xfffff9fa
    1670:	13240609 			; <UNDEFINED> instruction: 0x13240609
    1674:	05190505 	ldreq	r0, [r9, #-1285]	; 0xfffffafb
    1678:	0516060c 	ldreq	r0, [r6, #-1548]	; 0xfffff9f4
    167c:	1c052a0b 			; <UNDEFINED> instruction: 0x1c052a0b
    1680:	052e7903 	streq	r7, [lr, #-2307]!	; 0xfffff6fd
    1684:	0505350b 	streq	r3, [r5, #-1291]	; 0xfffffaf5
    1688:	0c053006 	stceq	0, cr3, [r5], {6}
    168c:	17051406 	strne	r1, [r5, -r6, lsl #8]
    1690:	2318052c 	tstcs	r8, #44, 10	; 0xb000000
    1694:	052f0705 	streq	r0, [pc, #-1797]!	; f97 <SysCtlIntDisable+0x7>
    1698:	05051c0b 	streq	r1, [r5, #-3083]	; 0xfffff3f5
    169c:	05133006 	ldreq	r3, [r3, #-6]
    16a0:	0501060c 	streq	r0, [r1, #-1548]	; 0xfffff9f4
    16a4:	052f0605 	streq	r0, [pc, #-1541]!	; 10a7 <SysCtlClockSet+0x3>
    16a8:	05010607 	streq	r0, [r1, #-1543]	; 0xfffff9f9
    16ac:	05280609 	streq	r0, [r8, #-1545]!	; 0xfffff9f7
    16b0:	05010610 	streq	r0, [r1, #-1552]	; 0xfffff9f0
    16b4:	05340605 	ldreq	r0, [r4, #-1541]!	; 0xfffff9fb
    16b8:	05010607 	streq	r0, [r1, #-1543]	; 0xfffff9f9
    16bc:	09053510 	stmdbeq	r5, {r4, r8, sl, ip, sp}
    16c0:	02040200 	andeq	r0, r4, #0, 4
    16c4:	04020048 	streq	r0, [r2], #-72	; 0xffffffb8
    16c8:	0d052002 	stceq	0, cr2, [r5, #-8]
    16cc:	2b052206 	blcs	149eec <_etext+0x148190>
    16d0:	011e0510 	tsteq	lr, r0, lsl r5
    16d4:	14061005 	strne	r1, [r6], #-5
    16d8:	05200f05 	streq	r0, [r0, #-3845]!	; 0xfffff0fb
    16dc:	09030609 	stmdbeq	r3, {r0, r3, r9, sl}
    16e0:	060f052e 	streq	r0, [pc], -lr, lsr #10
    16e4:	06090501 	streq	r0, [r9], -r1, lsl #10
    16e8:	0610052f 	ldreq	r0, [r0], -pc, lsr #10
    16ec:	06050501 	streq	r0, [r5], -r1, lsl #10
    16f0:	06170534 			; <UNDEFINED> instruction: 0x06170534
    16f4:	21180501 	tstcs	r8, r1, lsl #10
    16f8:	051f1705 	ldreq	r1, [pc, #-1797]	; ffb <SysCtlSleep+0x3>
    16fc:	06210605 	strteq	r0, [r1], -r5, lsl #12
    1700:	21010517 	tstcs	r1, r7, lsl r5
    1704:	7a031805 	bvc	c7720 <_etext+0xc59c4>
    1708:	0605052e 	streq	r0, [r5], -lr, lsr #10
    170c:	004b0525 	subeq	r0, fp, r5, lsr #10
    1710:	06030402 	streq	r0, [r3], -r2, lsl #8
    1714:	2e7ef003 	cdpcs	0, 7, cr15, cr14, cr3, {0}
    1718:	052f2605 	streq	r2, [pc, #-1541]!	; 111b <SysCtlClockSet+0x77>
    171c:	0402001b 	streq	r0, [r2], #-27	; 0xffffffe5
    1720:	3c5e0303 	mrrccc	3, 0, r0, lr, cr3
    1724:	b2030105 	andlt	r0, r3, #1073741825	; 0x40000001
    1728:	09053c01 	stmdbeq	r5, {r0, sl, fp, ip, sp}
    172c:	2e560306 	cdpcs	3, 5, cr0, cr6, cr6, {0}
    1730:	14061c05 	strne	r1, [r6], #-3077	; 0xfffff3fb
    1734:	051f1005 	ldreq	r1, [pc, #-5]	; 1737 <UARTDisable+0x1b>
    1738:	0f052f1c 	svceq	0x00052f1c
    173c:	0609051e 			; <UNDEFINED> instruction: 0x0609051e
    1740:	1005132f 	andne	r1, r5, pc, lsr #6
    1744:	05200106 	streq	r0, [r0, #-262]!	; 0xfffffefa
    1748:	0402002c 	streq	r0, [r2], #-44	; 0xffffffd4
    174c:	7fac0301 	svcvc	0x00ac0301
    1750:	060d0520 	streq	r0, [sp], -r0, lsr #10
    1754:	064a0903 	strbeq	r0, [sl], -r3, lsl #18
    1758:	0601052e 	streq	r0, [r1], -lr, lsr #10
    175c:	08018903 	stmdaeq	r1, {r0, r1, r8, fp, pc}
    1760:	1305054a 	movwne	r0, #21834	; 0x554a
    1764:	060b0519 			; <UNDEFINED> instruction: 0x060b0519
    1768:	210c0501 	tstcs	ip, r1, lsl #10
    176c:	051f0b05 	ldreq	r0, [pc, #-2821]	; c6f <SysCtlPeripheralPowerOn+0x2b>
    1770:	05210605 	streq	r0, [r1, #-1541]!	; 0xfffff9fb
    1774:	0501060c 	streq	r0, [r1, #-1548]	; 0xfffff9f4
    1778:	05250605 	streq	r0, [r5, #-1541]!	; 0xfffff9fb
    177c:	0513062d 	ldreq	r0, [r3, #-1581]	; 0xfffff9d3
    1780:	20710301 	rsbscs	r0, r1, r1, lsl #6
    1784:	0f032d05 	svceq	0x00032d05
    1788:	04020020 	streq	r0, [r2], #-32	; 0xffffffe0
    178c:	05052002 	streq	r2, [r5, #-2]
    1790:	02040200 	andeq	r0, r4, #0, 4
    1794:	0d053c2d 	stceq	12, cr3, [r5, #-180]	; 0xffffff4c
    1798:	583a0306 	ldmdapl	sl!, {r1, r2, r8, r9}
    179c:	01061005 	tsteq	r6, r5
    17a0:	052e0f05 	streq	r0, [lr, #-3845]!	; 0xfffff0fb
    17a4:	05055017 	streq	r5, [r5, #-23]	; 0xffffffe9
    17a8:	052e4003 	streq	r4, [lr, #-3]!
    17ac:	0a03060d 	beq	c2fe8 <_etext+0xc128c>
    17b0:	0613052e 	ldreq	r0, [r3], -lr, lsr #10
    17b4:	203c0501 	eorscs	r0, ip, r1, lsl #10
    17b8:	052e1305 	streq	r1, [lr, #-773]!	; 0xfffffcfb
    17bc:	054c060d 	strbeq	r0, [ip, #-1549]	; 0xfffff9f3
    17c0:	00f50305 	rscseq	r0, r5, r5, lsl #6
    17c4:	06070501 	streq	r0, [r7], -r1, lsl #10
    17c8:	2f290501 	svccs	0x00290501
    17cc:	03060505 	movweq	r0, #25861	; 0x6505
    17d0:	07052e3c 	smladxeq	r5, ip, lr, r2
    17d4:	01050106 	tsteq	r5, r6, lsl #2
    17d8:	052e2303 	streq	r2, [lr, #-771]!	; 0xfffffcfd
    17dc:	7e9f0305 	cdpvc	3, 9, cr0, cr15, cr5, {0}
    17e0:	0313052e 	tsteq	r3, #192937984	; 0xb800000
    17e4:	053c00f0 	ldreq	r0, [ip, #-240]!	; 0xffffff10
    17e8:	7f900305 	svcvc	0x00900305
    17ec:	0028053c 	eoreq	r0, r8, ip, lsr r5
    17f0:	03010402 	movweq	r0, #5122	; 0x1402
    17f4:	05200181 	streq	r0, [r0, #-385]!	; 0xfffffe7f
    17f8:	05340609 	ldreq	r0, [r4, #-1545]!	; 0xfffff9f7
    17fc:	0501060f 	streq	r0, [r1, #-1551]	; 0xfffff9f1
    1800:	0f05250c 	svceq	0x0005250c
    1804:	0609051b 			; <UNDEFINED> instruction: 0x0609051b
    1808:	060c0525 	streq	r0, [ip], -r5, lsr #10
    180c:	200b0501 	andcs	r0, fp, r1, lsl #10
    1810:	43060d05 	movwmi	r0, #27909	; 0x6d05
    1814:	01063d05 	tsteq	r6, r5, lsl #26
    1818:	212f3405 			; <UNDEFINED> instruction: 0x212f3405
    181c:	052c1d05 	streq	r1, [ip, #-3333]!	; 0xfffff2fb
    1820:	1305304a 	movwne	r3, #20554	; 0x504a
    1824:	0609051e 			; <UNDEFINED> instruction: 0x0609051e
    1828:	052e1403 	streq	r1, [lr, #-1027]!	; 0xfffffbfd
    182c:	0501060b 	streq	r0, [r1, #-1547]	; 0xfffff9f5
    1830:	0522060d 	streq	r0, [r2, #-1549]!	; 0xfffff9f3
    1834:	05010613 	streq	r0, [r1, #-1555]	; 0xfffff9ed
    1838:	05340609 	ldreq	r0, [r4, #-1545]!	; 0xfffff9f7
    183c:	0501060b 	streq	r0, [r1, #-1547]	; 0xfffff9f5
    1840:	0522060d 	streq	r0, [r2, #-1549]!	; 0xfffff9f3
    1844:	05010613 	streq	r0, [r1, #-1555]	; 0xfffff9ed
    1848:	05350609 	ldreq	r0, [r5, #-1545]!	; 0xfffff9f7
    184c:	09051805 	stmdbeq	r5, {r0, r2, fp, ip}
    1850:	060b0517 			; <UNDEFINED> instruction: 0x060b0517
    1854:	030f0501 	movweq	r0, #62721	; 0xf501
    1858:	0d052e75 	stceq	14, cr2, [r5, #-468]	; 0xfffffe2c
    185c:	2e200306 	cdpcs	3, 2, cr0, cr0, cr6, {0}
    1860:	01063605 	tsteq	r6, r5, lsl #12
    1864:	052e4e05 	streq	r4, [lr, #-3589]!	; 0xfffff1fb
    1868:	20090301 	andcs	r0, r9, r1, lsl #6
    186c:	77031305 	strvc	r1, [r3, -r5, lsl #6]
    1870:	03010520 	movweq	r0, #5408	; 0x1520
    1874:	2d052e09 	stccs	14, cr2, [r5, #-36]	; 0xffffffdc
    1878:	01040200 	mrseq	r0, R12_usr
    187c:	207ea003 	rsbscs	sl, lr, r3
    1880:	02000505 	andeq	r0, r0, #20971520	; 0x1400000
    1884:	2e2d0104 	sufcse	f0, f5, f4
    1888:	03060d05 	movweq	r0, #27909	; 0x6d05
    188c:	1005583a 	andne	r5, r5, sl, lsr r8
    1890:	0f050106 	svceq	0x00050106
    1894:	4a10052e 	bmi	402d54 <_etext+0x400ff8>
    1898:	7c061205 	sfmvc	f1, 4, [r6], {5}
    189c:	01061605 	tsteq	r6, r5, lsl #12
    18a0:	053c1405 	ldreq	r1, [ip, #-1029]!	; 0xfffffbfb
    18a4:	14052016 	strne	r2, [r5], #-22	; 0xffffffea
    18a8:	00160520 	andseq	r0, r6, r0, lsr #10
    18ac:	2f030402 	svccs	0x00030402
    18b0:	02003705 	andeq	r3, r0, #1310720	; 0x140000
    18b4:	053b0304 	ldreq	r0, [fp, #-772]!	; 0xfffffcfc
    18b8:	04020016 	streq	r0, [r2], #-22	; 0xffffffea
    18bc:	37052103 	strcc	r2, [r5, -r3, lsl #2]
    18c0:	03040200 	movweq	r0, #16896	; 0x4200
    18c4:	0317051f 	tsteq	r7, #130023424	; 0x7c00000
    18c8:	05052e0e 	streq	r2, [r5, #-3598]	; 0xfffff1f2
    18cc:	00ee0306 	rsceq	r0, lr, r6, lsl #6
    18d0:	0607052e 	streq	r0, [r7], -lr, lsr #10
    18d4:	11052001 	tstne	r5, r1
    18d8:	20140306 	andscs	r0, r4, r6, lsl #6
    18dc:	01063d05 	tsteq	r6, r5, lsl #26
    18e0:	052f3305 	streq	r3, [pc, #-773]!	; 15e3 <SysCtlI2SMClkSet+0x7f>
    18e4:	200e0301 	andcs	r0, lr, r1, lsl #6
    18e8:	71031705 	tstvc	r3, r5, lsl #14
    18ec:	03010520 	movweq	r0, #5408	; 0x1520
    18f0:	05052e0f 	streq	r2, [r5, #-3599]	; 0xfffff1f1
    18f4:	207e9f03 	rsbscs	r9, lr, r3, lsl #30
    18f8:	e1030105 	tst	r3, r5, lsl #2
    18fc:	0c052001 	stceq	0, cr2, [r5], {1}
    1900:	01040200 	mrseq	r0, R12_usr
    1904:	2e7fab03 	vaddcs.f64	d26, d15, d3
    1908:	03060d05 	movweq	r0, #27909	; 0x6d05
    190c:	35056612 	strcc	r6, [r5, #-1554]	; 0xfffff9ee
    1910:	2c051406 	cfstrscs	mvf1, [r5], {6}
    1914:	1d3c052f 	cfldr32ne	mvfx0, [ip, #-188]!	; 0xffffff44
    1918:	05313105 	ldreq	r3, [r1, #-261]!	; 0xfffffefb
    191c:	13051d1d 	movwne	r1, #23837	; 0x5d1d
    1920:	05052e2e 	streq	r2, [r5, #-3630]	; 0xfffff1d2
    1924:	207ee203 	rsbscs	lr, lr, r3, lsl #4
    1928:	03060d05 	movweq	r0, #27909	; 0x6d05
    192c:	053c01c5 	ldreq	r0, [ip, #-453]!	; 0xfffffe3b
    1930:	0501060f 	streq	r0, [r1, #-1551]	; 0xfffff9f1
    1934:	11052f31 	tstne	r5, r1, lsr pc
    1938:	4e053406 	cdpmi	4, 0, cr3, cr5, cr6, {0}
    193c:	47051306 	strmi	r1, [r5, -r6, lsl #6]
    1940:	1e21052f 	cfsh64ne	mvdx0, mvdx1, #31
    1944:	2e201705 	cdpcs	7, 2, cr1, cr0, cr5, {0}
    1948:	03060d05 	movweq	r0, #27909	; 0x6d05
    194c:	05207ecb 	streq	r7, [r0, #-3787]!	; 0xfffff135
    1950:	05010610 	streq	r0, [r1, #-1552]	; 0xfffff9f0
    1954:	10052e0f 	andne	r2, r5, pc, lsl #28
    1958:	0612053c 			; <UNDEFINED> instruction: 0x0612053c
    195c:	0616056e 	ldreq	r0, [r6], -lr, ror #10
    1960:	3c140501 	cfldr32cc	mvfx0, [r4], {1}
    1964:	05201605 	streq	r1, [r0, #-1541]!	; 0xfffff9fb
    1968:	16052014 			; <UNDEFINED> instruction: 0x16052014
    196c:	03040200 	movweq	r0, #16896	; 0x4200
    1970:	0037052f 	eorseq	r0, r7, pc, lsr #10
    1974:	3b030402 	blcc	c2984 <_etext+0xc0c28>
    1978:	02001605 	andeq	r1, r0, #5242880	; 0x500000
    197c:	05210304 	streq	r0, [r1, #-772]!	; 0xfffffcfc
    1980:	04020037 	streq	r0, [r2], #-55	; 0xffffffc9
    1984:	17051f03 	strne	r1, [r5, -r3, lsl #30]
    1988:	052e0e03 	streq	r0, [lr, #-3587]!	; 0xfffff1fd
    198c:	2e530305 	cdpcs	3, 5, cr0, cr3, cr5, {0}
    1990:	060d053c 			; <UNDEFINED> instruction: 0x060d053c
    1994:	053c1703 	ldreq	r1, [ip, #-1795]!	; 0xfffff8fd
    1998:	05010610 	streq	r0, [r1, #-1552]	; 0xfffff9f0
    199c:	17052e0f 	strne	r2, [r5, -pc, lsl #28]
    19a0:	00270542 	eoreq	r0, r7, r2, asr #10
    19a4:	30010402 	andcc	r0, r1, r2, lsl #8
    19a8:	02002405 	andeq	r2, r0, #83886080	; 0x5000000
    19ac:	052e0104 	streq	r0, [lr, #-260]!	; 0xfffffefc
    19b0:	27053517 	smladcs	r5, r7, r5, r3
    19b4:	01040200 	mrseq	r0, R12_usr
    19b8:	052e1c03 	streq	r1, [lr, #-3075]!	; 0xfffff3fd
    19bc:	04020024 	streq	r0, [r2], #-36	; 0xffffffdc
    19c0:	17052e01 	strne	r2, [r5, -r1, lsl #28]
    19c4:	032c0535 			; <UNDEFINED> instruction: 0x032c0535
    19c8:	17052e7a 	smlsdxne	r5, sl, lr, r2
    19cc:	032c0526 			; <UNDEFINED> instruction: 0x032c0526
    19d0:	17052e7a 	smlsdxne	r5, sl, lr, r2
    19d4:	032c0526 			; <UNDEFINED> instruction: 0x032c0526
    19d8:	17054a57 	smlsdne	r5, r7, sl, r4
    19dc:	032c0526 			; <UNDEFINED> instruction: 0x032c0526
    19e0:	17052e7a 	smlsdxne	r5, sl, lr, r2
    19e4:	4a770326 	bmi	1dc2684 <_etext+0x1dc0928>
    19e8:	7a031005 	bvc	c5a04 <_etext+0xc3ca8>
    19ec:	0317052e 	tsteq	r7, #192937984	; 0xb800000
    19f0:	10057429 	andne	r7, r5, r9, lsr #8
    19f4:	052e7a03 	streq	r7, [lr, #-2563]!	; 0xfffff5fd
    19f8:	05000601 	streq	r0, [r0, #-1537]	; 0xfffff9ff
    19fc:	00145002 	andseq	r5, r4, r2
    1a00:	01ce0300 	biceq	r0, lr, r0, lsl #6
    1a04:	16050501 	strne	r0, [r5], -r1, lsl #10
    1a08:	01061e05 	tsteq	r6, r5, lsl #28
    1a0c:	062f0105 	strteq	r0, [pc], -r5, lsl #2
    1a10:	054a1703 	strbeq	r1, [sl, #-1795]	; 0xfffff8fd
    1a14:	010a032b 	tsteq	sl, fp, lsr #6
    1a18:	05173005 	ldreq	r3, [r7, #-5]
    1a1c:	1b051805 	blne	147a38 <_etext+0x145cdc>
    1a20:	2d050106 	stfcss	f0, [r5, #-24]	; 0xffffffe8
    1a24:	2f4a052e 	svccs	0x004a052e
    1a28:	051f1705 	ldreq	r1, [pc, #-1797]	; 132b <SysCtlClockGet+0x10f>
    1a2c:	03062301 	movweq	r2, #25345	; 0x6301
    1a30:	30054a10 	andcc	r4, r5, r0, lsl sl
    1a34:	18050516 	stmdane	r5, {r1, r2, r4, r8, sl}
    1a38:	01060a05 	tsteq	r6, r5, lsl #20
    1a3c:	052e0705 	streq	r0, [lr, #-1797]!	; 0xfffff8fb
    1a40:	0c030609 	stceq	6, cr0, [r3], {9}
    1a44:	0610052e 	ldreq	r0, [r0], -lr, lsr #10
    1a48:	2e220501 	cfsh64cs	mvdx0, mvdx2, #1
    1a4c:	06310105 	ldrteq	r0, [r1], -r5, lsl #2
    1a50:	054a1403 	strbeq	r1, [sl, #-1027]	; 0xfffffbfd
    1a54:	05051931 	streq	r1, [r5, #-2353]	; 0xfffff6cf
    1a58:	061d0517 			; <UNDEFINED> instruction: 0x061d0517
    1a5c:	051e2201 	ldreq	r2, [lr, #-513]	; 0xfffffdff
    1a60:	4d052031 	stcmi	0, cr2, [r5, #-196]	; 0xffffff3c
    1a64:	2019052e 	andscs	r0, r9, lr, lsr #10
    1a68:	22060505 	andcs	r0, r6, #20971520	; 0x1400000
    1a6c:	01061d05 	tsteq	r6, r5, lsl #26
    1a70:	05203105 	streq	r3, [r0, #-261]!	; 0xfffffefb
    1a74:	19052e4d 	stmdbne	r5, {r0, r2, r3, r6, r9, sl, fp, sp}
    1a78:	22010520 	andcs	r0, r1, #32, 10	; 0x8000000
    1a7c:	660f0306 	strvs	r0, [pc], -r6, lsl #6
    1a80:	05160505 	ldreq	r0, [r6, #-1285]	; 0xfffffafb
    1a84:	0501060c 	streq	r0, [r1, #-1548]	; 0xfffff9f4
    1a88:	03062f01 	movweq	r2, #28417	; 0x6f01
    1a8c:	05056619 	streq	r6, [r5, #-1561]	; 0xfffff9e7
    1a90:	061b0517 			; <UNDEFINED> instruction: 0x061b0517
    1a94:	2c070514 	cfstr32cs	mvfx0, [r7], {20}
    1a98:	22060905 	andcs	r0, r6, #81920	; 0x14000
    1a9c:	01061b05 	tsteq	r6, r5, lsl #22
    1aa0:	4e060905 	vmlami.f16	s0, s12, s10	; <UNPREDICTABLE>
    1aa4:	01061b05 	tsteq	r6, r5, lsl #22
    1aa8:	063e0105 	ldrteq	r0, [lr], -r5, lsl #2
    1aac:	054a1903 	strbeq	r1, [sl, #-2307]	; 0xfffff6fd
    1ab0:	1b051605 	blne	1472cc <_etext+0x145570>
    1ab4:	07051406 	streq	r1, [r5, -r6, lsl #8]
    1ab8:	0609052c 	streq	r0, [r9], -ip, lsr #10
    1abc:	061b0522 	ldreq	r0, [fp], -r2, lsr #10
    1ac0:	06090501 	streq	r0, [r9], -r1, lsl #10
    1ac4:	061b054e 	ldreq	r0, [fp], -lr, asr #10
    1ac8:	3e010501 	cfsh32cc	mvfx0, mvfx1, #1
    1acc:	4a180306 	bmi	6026ec <_etext+0x600990>
    1ad0:	05160505 	ldreq	r0, [r6, #-1285]	; 0xfffffafb
    1ad4:	0514061b 	ldreq	r0, [r4, #-1563]	; 0xfffff9e5
    1ad8:	09052c07 	stmdbeq	r5, {r0, r1, r2, sl, fp, sp}
    1adc:	1b052206 	blne	14a2fc <_etext+0x1485a0>
    1ae0:	09050106 	stmdbeq	r5, {r1, r2, r8}
    1ae4:	1b054e06 	blne	155304 <_etext+0x1535a8>
    1ae8:	01050106 	tsteq	r5, r6, lsl #2
    1aec:	1103063e 	tstne	r3, lr, lsr r6
    1af0:	1605054a 	strne	r0, [r5], -sl, asr #10
    1af4:	01061b05 	tsteq	r6, r5, lsl #22
    1af8:	05051b33 	streq	r1, [r5, #-2867]	; 0xfffff4cd
    1afc:	1b052506 	blne	14af1c <_etext+0x1491c0>
    1b00:	01050106 	tsteq	r5, r6, lsl #2
    1b04:	19030621 	stmdbne	r3, {r0, r5, r9, sl}
    1b08:	0336053c 	teqeq	r6, #60, 10	; 0xf000000
    1b0c:	0505010c 	streq	r0, [r5, #-268]	; 0xfffffef4
    1b10:	061d0517 			; <UNDEFINED> instruction: 0x061d0517
    1b14:	2e310501 	cdpcs	5, 3, cr0, cr1, cr1, {0}
    1b18:	05201d05 	streq	r1, [r0, #-3333]!	; 0xfffff2fb
    1b1c:	03062f01 	movweq	r2, #28417	; 0x6f01
    1b20:	36053c16 			; <UNDEFINED> instruction: 0x36053c16
    1b24:	05010c03 	streq	r0, [r1, #-3075]	; 0xfffff3fd
    1b28:	1d051705 	stcne	7, cr1, [r5, #-20]	; 0xffffffec
    1b2c:	33050106 	movwcc	r0, #20742	; 0x5106
    1b30:	201d052e 	andscs	r0, sp, lr, lsr #10
    1b34:	063d0105 	ldrteq	r0, [sp], -r5, lsl #2
    1b38:	054a0f03 	strbeq	r0, [sl, #-3843]	; 0xfffff0fd
    1b3c:	18051605 	stmdane	r5, {r0, r2, r9, sl, ip}
    1b40:	01050106 	tsteq	r5, r6, lsl #2
    1b44:	0f030659 	svceq	0x00030659
    1b48:	1605053c 			; <UNDEFINED> instruction: 0x1605053c
    1b4c:	01061805 	tsteq	r6, r5, lsl #16
    1b50:	06590105 	ldrbeq	r0, [r9], -r5, lsl #2
    1b54:	053c1b03 	ldreq	r1, [ip, #-2819]!	; 0xfffff4fd
    1b58:	05171305 	ldreq	r1, [r7, #-773]	; 0xfffffcfb
    1b5c:	05010607 	streq	r0, [r1, #-1543]	; 0xfffff9f9
    1b60:	0c030605 	stceq	6, cr0, [r3], {5}
    1b64:	0601052e 	streq	r0, [r1], -lr, lsr #10
    1b68:	05016e03 	streq	r6, [r1, #-3587]	; 0xfffff1fd
    1b6c:	20120307 	andscs	r0, r2, r7, lsl #6
    1b70:	26060905 	strcs	r0, [r6], -r5, lsl #18
    1b74:	01060f05 	tsteq	r6, r5, lsl #30
    1b78:	05252405 	streq	r2, [r5, #-1029]!	; 0xfffffbfb
    1b7c:	09051b0f 	stmdbeq	r5, {r0, r1, r2, r3, r8, r9, fp, ip}
    1b80:	24052506 	strcs	r2, [r5], #-1286	; 0xfffffafa
    1b84:	09050106 	stmdbeq	r5, {r1, r2, r8}
    1b88:	16052606 	strne	r2, [r5], -r6, lsl #12
    1b8c:	017a0306 	cmneq	sl, r6, lsl #6
    1b90:	05204b05 	streq	r4, [r0, #-2821]!	; 0xfffff4fb
    1b94:	46052e16 			; <UNDEFINED> instruction: 0x46052e16
    1b98:	2e270534 	mcrcs	5, 1, r0, cr7, cr4, {1}
    1b9c:	05303805 	ldreq	r3, [r0, #-2053]!	; 0xfffff7fb
    1ba0:	2705340b 	strcs	r3, [r5, -fp, lsl #8]
    1ba4:	05207803 	streq	r7, [r0, #-2051]!	; 0xfffff7fd
    1ba8:	1605312f 	strne	r3, [r5], -pc, lsr #2
    1bac:	0609052b 	streq	r0, [r9], -fp, lsr #10
    1bb0:	140d0536 	strne	r0, [sp], #-1334	; 0xfffffaca
    1bb4:	01061a05 	tsteq	r6, r5, lsl #20
    1bb8:	34060905 	strcc	r0, [r6], #-2309	; 0xfffff6fb
    1bbc:	01060b05 	tsteq	r6, r5, lsl #22
    1bc0:	22060d05 	andcs	r0, r6, #320	; 0x140
    1bc4:	01061a05 	tsteq	r6, r5, lsl #20
    1bc8:	35062205 	strcc	r2, [r6, #-517]	; 0xfffffdfb
    1bcc:	05180505 	ldreq	r0, [r8, #-1285]	; 0xfffffafb
    1bd0:	0a030608 	beq	c33f8 <_etext+0xc169c>
    1bd4:	3c070501 	cfstr32cc	mvfx0, [r7], {1}
    1bd8:	05200805 	streq	r0, [r0, #-2053]!	; 0xfffff7fb
    1bdc:	2076031d 	rsbscs	r0, r6, sp, lsl r3
    1be0:	05201205 	streq	r1, [r0, #-517]!	; 0xfffffdfb
    1be4:	200a0307 	andcs	r0, sl, r7, lsl #6
    1be8:	76031205 	strvc	r1, [r3], -r5, lsl #4
    1bec:	06050520 	streq	r0, [r5], -r0, lsr #10
    1bf0:	060e0525 	streq	r0, [lr], -r5, lsr #10
    1bf4:	06050501 	streq	r0, [r5], -r1, lsl #10
    1bf8:	06070533 			; <UNDEFINED> instruction: 0x06070533
    1bfc:	060a0501 	streq	r0, [sl], -r1, lsl #10
    1c00:	060c0525 	streq	r0, [ip], -r5, lsr #10
    1c04:	05055801 	streq	r5, [r5, #-2049]	; 0xfffff7ff
    1c08:	2e100306 	cdpcs	3, 1, cr0, cr0, cr6, {0}
    1c0c:	03061205 	movweq	r1, #25093	; 0x6205
    1c10:	1e05010a 	adfnes	f0, f5, #2.0
    1c14:	053c7603 	ldreq	r7, [ip, #-1539]!	; 0xfffff9fd
    1c18:	200c031c 	andcs	r0, ip, ip, lsl r3
    1c1c:	052f2905 	streq	r2, [pc, #-2309]!	; 131f <SysCtlClockGet+0x103>
    1c20:	3c052e1e 	stccc	14, cr2, [r5], {30}
    1c24:	031e052e 	tsteq	lr, #192937984	; 0xb800000
    1c28:	05052073 	streq	r2, [r5, #-115]	; 0xffffff8d
    1c2c:	200a0306 	andcs	r0, sl, r6, lsl #6
    1c30:	05131313 	ldreq	r1, [r3, #-787]	; 0xfffffced
    1c34:	05010642 	streq	r0, [r1, #-1602]	; 0xfffff9be
    1c38:	05052e0c 	streq	r2, [r5, #-3596]	; 0xfffff1f4
    1c3c:	01052f06 	tsteq	r5, r6, lsl #30
    1c40:	1c051306 	stcne	3, cr1, [r5], {6}
    1c44:	01040200 	mrseq	r0, R12_usr
    1c48:	052e5c03 	streq	r5, [lr, #-3075]!	; 0xfffff3fd
    1c4c:	04020019 	streq	r0, [r2], #-25	; 0xffffffe7
    1c50:	1c052001 	stcne	0, cr2, [r5], {1}
    1c54:	01040200 	mrseq	r0, R12_usr
    1c58:	0019052e 	andseq	r0, r9, lr, lsr #10
    1c5c:	20010402 	andcs	r0, r1, r2, lsl #8
    1c60:	02002b05 	andeq	r2, r0, #5120	; 0x1400
    1c64:	052e0204 	streq	r0, [lr, #-516]!	; 0xfffffdfc
    1c68:	0f030609 	svceq	0x00030609
    1c6c:	063b052e 	ldrteq	r0, [fp], -lr, lsr #10
    1c70:	13054a20 	movwne	r4, #23072	; 0x5a20
    1c74:	05662e20 	strbeq	r2, [r6, #-3616]!	; 0xfffff1e0
    1c78:	b0030609 	andlt	r0, r3, r9, lsl #12
    1c7c:	2205207f 	andcs	r2, r5, #127	; 0x7f
    1c80:	0f050106 	svceq	0x00050106
    1c84:	1f220521 	svcne	0x00220521
    1c88:	21060905 	tstcs	r6, r5, lsl #18
    1c8c:	03060105 	movweq	r0, #24837	; 0x6105
    1c90:	200100e4 	andcs	r0, r1, r4, ror #1
    1c94:	0f022e2e 	svceq	0x00022e2e
    1c98:	22010100 	andcs	r0, r1, #0, 2
    1c9c:	03000007 	movweq	r0, #7
    1ca0:	00003a00 	andeq	r3, r0, r0, lsl #20
    1ca4:	fb010200 	blx	424ae <_etext+0x40752>
    1ca8:	01000d0e 	tsteq	r0, lr, lsl #26
    1cac:	00010101 	andeq	r0, r1, r1, lsl #2
    1cb0:	00010000 	andeq	r0, r1, r0
    1cb4:	75000100 	strvc	r0, [r0, #-256]	; 0xffffff00
    1cb8:	2e747261 	cdpcs	2, 7, cr7, cr4, cr1, {3}
    1cbc:	00000063 	andeq	r0, r0, r3, rrx
    1cc0:	746e6900 	strbtvc	r6, [lr], #-2304	; 0xfffff700
    1cc4:	75727265 	ldrbvc	r7, [r2, #-613]!	; 0xfffffd9b
    1cc8:	682e7470 	stmdavs	lr!, {r4, r5, r6, sl, ip, sp, lr}
    1ccc:	00000000 	andeq	r0, r0, r0
    1cd0:	745f7768 	ldrbvc	r7, [pc], #-1896	; 1cd8 <g_pulXtals+0x28>
    1cd4:	73657079 	cmnvc	r5, #121	; 0x79
    1cd8:	0000682e 	andeq	r6, r0, lr, lsr #16
    1cdc:	05000000 	streq	r0, [r0, #-0]
    1ce0:	02050001 	andeq	r0, r5, #1
    1ce4:	00001648 	andeq	r1, r0, r8, asr #12
    1ce8:	0101a903 	tsteq	r1, r3, lsl #18
    1cec:	05162205 	ldreq	r2, [r6, #-517]	; 0xfffffdfb
    1cf0:	0505172f 	streq	r1, [r5, #-1839]	; 0xfffff8d1
    1cf4:	06250517 			; <UNDEFINED> instruction: 0x06250517
    1cf8:	20410501 	subcs	r0, r1, r1, lsl #10
    1cfc:	05303705 	ldreq	r3, [r0, #-1797]!	; 0xfffff8fb
    1d00:	01051e21 	tsteq	r5, r1, lsr #28
    1d04:	12030623 	andne	r0, r3, #36700160	; 0x2300000
    1d08:	16220520 	strtne	r0, [r2], -r0, lsr #10
    1d0c:	05170505 	ldreq	r0, [r7, #-1285]	; 0xfffffafb
    1d10:	0501060c 	streq	r0, [r1, #-1548]	; 0xfffff9f4
    1d14:	03062201 	movweq	r2, #25089	; 0x6201
    1d18:	22053c17 	andcs	r3, r5, #5888	; 0x1700
    1d1c:	172b0516 			; <UNDEFINED> instruction: 0x172b0516
    1d20:	17050517 	smladne	r5, r7, r5, r0
    1d24:	01062d05 	tsteq	r6, r5, lsl #26
    1d28:	05202105 	streq	r2, [r0, #-261]!	; 0xfffffefb
    1d2c:	03062101 	movweq	r2, #24833	; 0x6101
    1d30:	05052e17 	streq	r2, [r5, #-3607]	; 0xfffff1e9
    1d34:	17220513 			; <UNDEFINED> instruction: 0x17220513
    1d38:	05170505 	ldreq	r0, [r7, #-1285]	; 0xfffffafb
    1d3c:	0501060c 	streq	r0, [r1, #-1548]	; 0xfffff9f4
    1d40:	05250605 	streq	r0, [r5, #-1541]!	; 0xfffff9fb
    1d44:	2f01061a 	svccs	0x0001061a
    1d48:	052d1105 	streq	r1, [sp, #-261]!	; 0xfffffefb
    1d4c:	05210605 	streq	r0, [r1, #-1541]!	; 0xfffff9fb
    1d50:	05010611 	streq	r0, [r1, #-1553]	; 0xfffff9ef
    1d54:	03062101 	movweq	r2, #24833	; 0x6101
    1d58:	0505202e 	streq	r2, [r5, #-46]	; 0xffffffd2
    1d5c:	17220513 			; <UNDEFINED> instruction: 0x17220513
    1d60:	05131805 	ldreq	r1, [r3, #-2053]	; 0xfffff7fb
    1d64:	05051335 	streq	r1, [r5, #-821]	; 0xfffffccb
    1d68:	03010517 	movweq	r0, #5399	; 0x1517
    1d6c:	050101aa 	streq	r0, [r1, #-426]	; 0xfffffe56
    1d70:	05051722 	streq	r1, [r5, #-1826]	; 0xfffff8de
    1d74:	06010517 			; <UNDEFINED> instruction: 0x06010517
    1d78:	017ebf03 	cmneq	lr, r3, lsl #30
    1d7c:	03060505 	movweq	r0, #25861	; 0x6505
    1d80:	053c01c3 	ldreq	r0, [ip, #-451]!	; 0xfffffe3d
    1d84:	0b05100a 	bleq	145db4 <_etext+0x144058>
    1d88:	0a050106 	beq	1421a8 <_etext+0x14044c>
    1d8c:	06050520 	streq	r0, [r5], -r0, lsr #10
    1d90:	06210535 			; <UNDEFINED> instruction: 0x06210535
    1d94:	06050501 	streq	r0, [r5], -r1, lsl #10
    1d98:	0620054f 	strteq	r0, [r0], -pc, asr #10
    1d9c:	05056601 	streq	r6, [r5, #-1537]	; 0xfffff9ff
    1da0:	7ec60306 	cdpvc	3, 12, cr0, cr6, cr6, {0}
    1da4:	06240501 	strteq	r0, [r4], -r1, lsl #10
    1da8:	1b070517 	blne	1c320c <_etext+0x1c14b0>
    1dac:	33060905 	movwcc	r0, #26885	; 0x6905
    1db0:	01062405 	tsteq	r6, r5, lsl #8
    1db4:	053c0d03 	ldreq	r0, [ip, #-3331]!	; 0xfffff2fd
    1db8:	1005341a 	andne	r3, r5, sl, lsl r4
    1dbc:	052e7303 	streq	r7, [lr, #-771]!	; 0xfffffcfd
    1dc0:	05350609 	ldreq	r0, [r5, #-1545]!	; 0xfffff9f7
    1dc4:	1f051805 	svcne	0x00051805
    1dc8:	29050106 	stmdbcs	r5, {r1, r2, r8}
    1dcc:	0605052e 	streq	r0, [r5], -lr, lsr #10
    1dd0:	06240525 	strteq	r0, [r4], -r5, lsr #10
    1dd4:	05017503 	streq	r7, [r1, #-1283]	; 0xfffffafd
    1dd8:	2016031f 	andscs	r0, r6, pc, lsl r3
    1ddc:	75032905 	strvc	r2, [r3, #-2309]	; 0xfffff6fb
    1de0:	21052120 	tstcs	r5, r0, lsr #2
    1de4:	0605052d 	streq	r0, [r5], -sp, lsr #10
    1de8:	06210521 	strteq	r0, [r1], -r1, lsr #10
    1dec:	06050501 	streq	r0, [r5], -r1, lsl #10
    1df0:	06210525 	strteq	r0, [r1], -r5, lsr #10
    1df4:	06050501 	streq	r0, [r5], -r1, lsl #10
    1df8:	061f0525 	ldreq	r0, [pc], -r5, lsr #10
    1dfc:	06050501 	streq	r0, [r5], -r1, lsl #10
    1e00:	03010525 	movweq	r0, #5413	; 0x1525
    1e04:	050100d7 	streq	r0, [r1, #-215]	; 0xffffff29
    1e08:	05051722 	streq	r1, [r5, #-1826]	; 0xfffff8de
    1e0c:	06210517 			; <UNDEFINED> instruction: 0x06210517
    1e10:	05052001 	streq	r2, [r5, #-1]
    1e14:	20054106 	andcs	r4, r5, r6, lsl #2
    1e18:	01050106 	tsteq	r5, r6, lsl #2
    1e1c:	587f9b03 	ldmdapl	pc!, {r0, r1, r8, r9, fp, ip, pc}^	; <UNPREDICTABLE>
    1e20:	e5032005 	str	r2, [r3, #-5]
    1e24:	05202000 	streq	r2, [r0, #-0]!
    1e28:	7f9b0301 	svcvc	0x009b0301
    1e2c:	26030601 	strcs	r0, [r3], -r1, lsl #12
    1e30:	13050520 	movwne	r0, #21792	; 0x5520
    1e34:	05172205 	ldreq	r2, [r7, #-517]	; 0xfffffdfb
    1e38:	01051705 	tsteq	r5, r5, lsl #14
    1e3c:	01750306 	cmneq	r5, r6, lsl #6
    1e40:	0b030b05 	bleq	c4a5c <_etext+0xc2d00>
    1e44:	06050520 	streq	r0, [r5], -r0, lsr #10
    1e48:	060c0521 	streq	r0, [ip], -r1, lsr #10
    1e4c:	06050501 	streq	r0, [r5], -r1, lsl #10
    1e50:	061b0521 	ldreq	r0, [fp], -r1, lsr #10
    1e54:	20300501 	eorscs	r0, r0, r1, lsl #10
    1e58:	052e2005 	streq	r2, [lr, #-5]!
    1e5c:	05052e0e 	streq	r2, [r5, #-3598]	; 0xfffff1f2
    1e60:	08052506 	stmdaeq	r5, {r1, r2, r8, sl, sp}
    1e64:	07050106 	streq	r0, [r5, -r6, lsl #2]
    1e68:	06090520 	streq	r0, [r9], -r0, lsr #10
    1e6c:	06120526 	ldreq	r0, [r2], -r6, lsr #10
    1e70:	06050501 	streq	r0, [r5], -r1, lsl #10
    1e74:	06130542 	ldreq	r0, [r3], -r2, asr #10
    1e78:	202f0501 	eorcs	r0, pc, r1, lsl #10
    1e7c:	05310105 	ldreq	r0, [r1, #-261]!	; 0xfffffefb
    1e80:	01051d10 	tsteq	r5, r0, lsl sp
    1e84:	10030623 	andne	r0, r3, r3, lsr #12
    1e88:	16220520 	strtne	r0, [r2], -r0, lsr #10
    1e8c:	05170505 	ldreq	r0, [r7, #-1285]	; 0xfffffafb
    1e90:	05010621 	streq	r0, [r1, #-1569]	; 0xfffff9df
    1e94:	054f0605 	strbeq	r0, [pc, #-1541]	; 1897 <UARTIntRegister+0x2f>
    1e98:	05010620 	streq	r0, [r1, #-1568]	; 0xfffff9e0
    1e9c:	03066801 	movweq	r6, #26625	; 0x6801
    1ea0:	22052e10 	andcs	r2, r5, #16, 28	; 0x100
    1ea4:	17050516 	smladne	r5, r6, r5, r0
    1ea8:	01040200 	mrseq	r0, R12_usr
    1eac:	000a0530 	andeq	r0, sl, r0, lsr r5
    1eb0:	10010402 	andne	r0, r1, r2, lsl #8
    1eb4:	02000b05 	andeq	r0, r0, #5120	; 0x1400
    1eb8:	01060104 	tsteq	r6, r4, lsl #2
    1ebc:	02000a05 	andeq	r0, r0, #20480	; 0x5000
    1ec0:	05200104 	streq	r0, [r0, #-260]!	; 0xfffffefc
    1ec4:	05350605 	ldreq	r0, [r5, #-1541]!	; 0xfffff9fb
    1ec8:	05010621 	streq	r0, [r1, #-1569]	; 0xfffff9df
    1ecc:	054f0605 	strbeq	r0, [pc, #-1541]	; 18cf <UARTIntUnregister+0x23>
    1ed0:	05010620 	streq	r0, [r1, #-1568]	; 0xfffff9e0
    1ed4:	03066801 	movweq	r6, #26625	; 0x6801
    1ed8:	2205200f 	andcs	r2, r5, #15
    1edc:	17050516 	smladne	r5, r6, r5, r0
    1ee0:	01062105 	tsteq	r6, r5, lsl #2
    1ee4:	064b0105 	strbeq	r0, [fp], -r5, lsl #2
    1ee8:	052e0f03 	streq	r0, [lr, #-3843]!	; 0xfffff0fd
    1eec:	05051622 	streq	r1, [r5, #-1570]	; 0xfffff9de
    1ef0:	06210517 			; <UNDEFINED> instruction: 0x06210517
    1ef4:	4b010501 	blmi	43300 <_etext+0x415a4>
    1ef8:	2e1b0306 	cdpcs	3, 1, cr0, cr11, cr6, {0}
    1efc:	05162205 	ldreq	r2, [r6, #-517]	; 0xfffffdfb
    1f00:	24051705 	strcs	r1, [r5], #-1797	; 0xfffff8fb
    1f04:	07051406 	streq	r1, [r5, -r6, lsl #8]
    1f08:	0609051e 			; <UNDEFINED> instruction: 0x0609051e
    1f0c:	06240522 	strteq	r0, [r4], -r2, lsr #10
    1f10:	06090501 	streq	r0, [r9], -r1, lsl #10
    1f14:	0624054e 	strteq	r0, [r4], -lr, asr #10
    1f18:	3e010501 	cfsh32cc	mvfx0, mvfx1, #1
    1f1c:	20190306 	andscs	r0, r9, r6, lsl #6
    1f20:	05162205 	ldreq	r2, [r6, #-517]	; 0xfffffdfb
    1f24:	20051705 	andcs	r1, r5, r5, lsl #14
    1f28:	01050106 	tsteq	r5, r6, lsl #2
    1f2c:	1503064b 	strne	r0, [r3, #-1611]	; 0xfffff9b5
    1f30:	1305052e 	movwne	r0, #21806	; 0x552e
    1f34:	05174905 	ldreq	r4, [r7, #-2309]	; 0xfffff6fb
    1f38:	05051322 	streq	r1, [r5, #-802]	; 0xfffffcde
    1f3c:	060b0519 			; <UNDEFINED> instruction: 0x060b0519
    1f40:	06050501 	streq	r0, [r5], -r1, lsl #10
    1f44:	060b0521 	streq	r0, [fp], -r1, lsr #10
    1f48:	06050501 	streq	r0, [r5], -r1, lsl #10
    1f4c:	060b0530 			; <UNDEFINED> instruction: 0x060b0530
    1f50:	06050501 	streq	r0, [r5], -r1, lsl #10
    1f54:	0621052f 	strteq	r0, [r1], -pc, lsr #10
    1f58:	06050501 	streq	r0, [r5], -r1, lsl #10
    1f5c:	06200525 	strteq	r0, [r0], -r5, lsr #10
    1f60:	01052001 	tsteq	r5, r1
    1f64:	1403063d 	strne	r0, [r3], #-1597	; 0xfffff9c3
    1f68:	1649052e 	strbne	r0, [r9], -lr, lsr #10
    1f6c:	05132205 	ldreq	r2, [r3, #-517]	; 0xfffffdfb
    1f70:	20051705 	andcs	r1, r5, r5, lsl #14
    1f74:	01050106 	tsteq	r5, r6, lsl #2
    1f78:	1b03064b 	blne	c38ac <_etext+0xc1b50>
    1f7c:	1305052e 	movwne	r0, #21806	; 0x552e
    1f80:	05174905 	ldreq	r4, [r7, #-2309]	; 0xfffff6fb
    1f84:	44051321 	strmi	r1, [r5], #-801	; 0xfffffcdf
    1f88:	17050513 	smladne	r5, r3, r5, r0
    1f8c:	01060c05 	tsteq	r6, r5, lsl #24
    1f90:	21060505 	tstcs	r6, r5, lsl #10
    1f94:	01061a05 	tsteq	r6, r5, lsl #20
    1f98:	052e0c05 	streq	r0, [lr, #-3077]!	; 0xfffff3fb
    1f9c:	05210605 	streq	r0, [r1, #-1541]!	; 0xfffff9fb
    1fa0:	05010620 	streq	r0, [r1, #-1568]	; 0xfffff9e0
    1fa4:	03062101 	movweq	r2, #24833	; 0x6101
    1fa8:	0505201b 	streq	r2, [r5, #-27]	; 0xffffffe5
    1fac:	17490513 	smlaldne	r0, r9, r3, r5
    1fb0:	05132105 	ldreq	r2, [r3, #-261]	; 0xfffffefb
    1fb4:	05051344 	streq	r1, [r5, #-836]	; 0xfffffcbc
    1fb8:	060c0517 			; <UNDEFINED> instruction: 0x060c0517
    1fbc:	06050501 	streq	r0, [r5], -r1, lsl #10
    1fc0:	061b0521 	ldreq	r0, [fp], -r1, lsr #10
    1fc4:	2e0c0501 	cfsh32cs	mvfx0, mvfx12, #1
    1fc8:	2f060505 	svccs	0x00060505
    1fcc:	01062005 	tsteq	r6, r5
    1fd0:	06210105 	strteq	r0, [r1], -r5, lsl #2
    1fd4:	052e1703 	streq	r1, [lr, #-1795]!	; 0xfffff8fd
    1fd8:	21051649 	tstcs	r5, r9, asr #12
    1fdc:	14050513 	strne	r0, [r5], #-1299	; 0xfffffaed
    1fe0:	01060c05 	tsteq	r6, r5, lsl #24
    1fe4:	06210105 	strteq	r0, [r1], -r5, lsl #2
    1fe8:	053c1703 	ldreq	r1, [ip, #-1795]!	; 0xfffff8fd
    1fec:	21051649 	tstcs	r5, r9, asr #12
    1ff0:	14050513 	strne	r0, [r5], #-1299	; 0xfffffaed
    1ff4:	01060c05 	tsteq	r6, r5, lsl #24
    1ff8:	05202605 	streq	r2, [r0, #-1541]!	; 0xfffff9fb
    1ffc:	03063001 	movweq	r3, #24577	; 0x6001
    2000:	49053c1d 	stmdbmi	r5, {r0, r2, r3, r4, sl, fp, ip, sp}
    2004:	13220516 			; <UNDEFINED> instruction: 0x13220516
    2008:	05134905 	ldreq	r4, [r3, #-2309]	; 0xfffff6fb
    200c:	24051705 	strcs	r1, [r5], #-1797	; 0xfffff8fb
    2010:	3f050106 	svccc	0x00050106
    2014:	303a0520 	eorscc	r0, sl, r0, lsr #10
    2018:	051e2005 	ldreq	r2, [lr, #-5]
    201c:	03062301 	movweq	r2, #25345	; 0x6301
    2020:	49052017 	stmdbmi	r5, {r0, r1, r2, r4, sp}
    2024:	13220516 			; <UNDEFINED> instruction: 0x13220516
    2028:	05140505 	ldreq	r0, [r4, #-1285]	; 0xfffffafb
    202c:	0501060c 	streq	r0, [r1, #-1548]	; 0xfffff9f4
    2030:	03062201 	movweq	r2, #25089	; 0x6201
    2034:	22053c1d 	andcs	r3, r5, #7424	; 0x1d00
    2038:	142d0516 	strtne	r0, [sp], #-1302	; 0xfffffaea
    203c:	05170505 	ldreq	r0, [r7, #-1285]	; 0xfffffafb
    2040:	05010624 	streq	r0, [r1, #-1572]	; 0xfffff9dc
    2044:	3b05203f 	blcc	14a148 <_etext+0x1483ec>
    2048:	1e200530 	mcrne	5, 1, r0, cr0, cr0, {1}
    204c:	06230105 	strteq	r0, [r3], -r5, lsl #2
    2050:	05201903 	streq	r1, [r0, #-2307]!	; 0xfffff6fd
    2054:	05051622 	streq	r1, [r5, #-1570]	; 0xfffff9de
    2058:	060c0517 			; <UNDEFINED> instruction: 0x060c0517
    205c:	22010501 	andcs	r0, r1, #4194304	; 0x400000
    2060:	3c110306 	ldccc	3, cr0, [r1], {6}
    2064:	05162205 	ldreq	r2, [r6, #-517]	; 0xfffffdfb
    2068:	0d051705 	stceq	7, cr1, [r5, #-20]	; 0xffffffec
    206c:	3f050106 	svccc	0x00050106
    2070:	2f010520 	svccs	0x00010520
    2074:	3c110306 	ldccc	3, cr0, [r1], {6}
    2078:	05162205 	ldreq	r2, [r6, #-517]	; 0xfffffdfb
    207c:	0d051705 	stceq	7, cr1, [r5, #-20]	; 0xffffffec
    2080:	3f050106 	svccc	0x00050106
    2084:	2f010520 	svccs	0x00010520
    2088:	3c170306 	ldccc	3, cr0, [r7], {6}
    208c:	05162205 	ldreq	r2, [r6, #-517]	; 0xfffffdfb
    2090:	0a051705 	beq	147cac <_etext+0x145f50>
    2094:	07050106 	streq	r0, [r5, -r6, lsl #2]
    2098:	06090520 	streq	r0, [r9], -r0, lsr #10
    209c:	06100525 	ldreq	r0, [r0], -r5, lsr #10
    20a0:	350f0501 	strcc	r0, [pc, #-1281]	; 1ba7 <g_ppulPeripheralMap+0x47>
    20a4:	06300105 	ldrteq	r0, [r0], -r5, lsl #2
    20a8:	052e1203 	streq	r1, [lr, #-515]!	; 0xfffffdfd
    20ac:	05051622 	streq	r1, [r5, #-1570]	; 0xfffff9de
    20b0:	04020017 	streq	r0, [r2], #-23	; 0xffffffe9
    20b4:	0a053001 	beq	14e0c0 <_etext+0x14c364>
    20b8:	01040200 	mrseq	r0, R12_usr
    20bc:	000b0510 	andeq	r0, fp, r0, lsl r5
    20c0:	06010402 	streq	r0, [r1], -r2, lsl #8
    20c4:	000a0501 	andeq	r0, sl, r1, lsl #10
    20c8:	20010402 	andcs	r0, r1, r2, lsl #8
    20cc:	35060505 	strcc	r0, [r6, #-1285]	; 0xfffffafb
    20d0:	01060c05 	tsteq	r6, r5, lsl #24
    20d4:	06210105 	strteq	r0, [r1], -r5, lsl #2
    20d8:	052e1903 	streq	r1, [lr, #-2307]!	; 0xfffff6fd
    20dc:	05051622 	streq	r1, [r5, #-1570]	; 0xfffff9de
    20e0:	060a0517 			; <UNDEFINED> instruction: 0x060a0517
    20e4:	20070501 	andcs	r0, r7, r1, lsl #10
    20e8:	25060905 	strcs	r0, [r6, #-2309]	; 0xfffff6fb
    20ec:	01062305 	tsteq	r6, r5, lsl #6
    20f0:	33060905 	movwcc	r0, #26885	; 0x6905
    20f4:	01060f05 	tsteq	r6, r5, lsl #30
    20f8:	22010527 	andcs	r0, r1, #163577856	; 0x9c00000
    20fc:	2e120306 	cdpcs	3, 1, cr0, cr2, cr6, {0}
    2100:	05162205 	ldreq	r2, [r6, #-517]	; 0xfffffdfb
    2104:	02001705 	andeq	r1, r0, #1310720	; 0x140000
    2108:	05300104 	ldreq	r0, [r0, #-260]!	; 0xfffffefc
    210c:	0402000a 	streq	r0, [r2], #-10
    2110:	0b051001 	bleq	14611c <_etext+0x1443c0>
    2114:	01040200 	mrseq	r0, R12_usr
    2118:	0a050106 	beq	142538 <_etext+0x1407dc>
    211c:	01040200 	mrseq	r0, R12_usr
    2120:	06050520 	streq	r0, [r5], -r0, lsr #10
    2124:	061f0535 			; <UNDEFINED> instruction: 0x061f0535
    2128:	21010501 	tstcs	r1, r1, lsl #10
    212c:	2e130306 	cdpcs	3, 1, cr0, cr3, cr6, {0}
    2130:	05162205 	ldreq	r2, [r6, #-517]	; 0xfffffdfb
    2134:	0b051705 	bleq	147d50 <_etext+0x145ff4>
    2138:	38051406 	stmdacc	r5, {r1, r2, sl, ip}
    213c:	0402002e 	streq	r0, [r2], #-46	; 0xffffffd2
    2140:	21052001 	tstcs	r5, r1
    2144:	01040200 	mrseq	r0, R12_usr
    2148:	0001052c 	andeq	r0, r1, ip, lsr #10
    214c:	24010402 	strcs	r0, [r1], #-1026	; 0xfffffbfe
    2150:	02003805 	andeq	r3, r0, #327680	; 0x50000
    2154:	051e0204 	ldreq	r0, [lr, #-516]	; 0xfffffdfc
    2158:	04020021 	streq	r0, [r2], #-33	; 0xffffffdf
    215c:	01052c02 	tsteq	r5, r2, lsl #24
    2160:	02040200 	andeq	r0, r4, #0, 4
    2164:	13030624 	movwne	r0, #13860	; 0x3624
    2168:	1622052e 	strtne	r0, [r2], -lr, lsr #10
    216c:	05170505 	ldreq	r0, [r7, #-1285]	; 0xfffffafb
    2170:	0501060d 	streq	r0, [r1, #-1549]	; 0xfffff9f3
    2174:	03062101 	movweq	r2, #24833	; 0x6101
    2178:	05053c17 	streq	r3, [r5, #-3095]	; 0xfffff3e9
    217c:	17220513 			; <UNDEFINED> instruction: 0x17220513
    2180:	05170505 	ldreq	r0, [r7, #-1285]	; 0xfffffafb
    2184:	75030601 	strvc	r0, [r3, #-1537]	; 0xfffff9ff
    2188:	a2030601 	andge	r0, r3, #1048576	; 0x100000
    218c:	05053c76 	streq	r3, [r5, #-3190]	; 0xfffff38a
    2190:	14051814 	strne	r1, [r5], #-2068	; 0xfffff7ec
    2194:	06010501 	streq	r0, [r1], -r1, lsl #10
    2198:	0109d603 	tsteq	r9, r3, lsl #12
    219c:	aa030f05 	bge	c5db8 <_etext+0xc405c>
    21a0:	052e2076 	streq	r2, [lr, #-118]!	; 0xffffff8a
    21a4:	05340609 	ldreq	r0, [r4, #-1545]!	; 0xfffff9f7
    21a8:	0b050d3b 	bleq	14569c <_etext+0x143940>
    21ac:	40051706 	andmi	r1, r5, r6, lsl #14
    21b0:	06140529 	ldreq	r0, [r4], -r9, lsr #10
    21b4:	0605051f 			; <UNDEFINED> instruction: 0x0605051f
    21b8:	03064a01 	movweq	r4, #27137	; 0x6a01
    21bc:	410109e6 	smlattmi	r1, r6, r9, r0
    21c0:	21060105 	tstcs	r6, r5, lsl #2
    21c4:	053b0505 	ldreq	r0, [fp, #-1285]!	; 0xfffffafb
    21c8:	a003060d 	andge	r0, r3, sp, lsl #12
    21cc:	2b052e76 	blcs	14dbac <_etext+0x14be50>
    21d0:	203c0106 	eorscs	r0, ip, r6, lsl #2
    21d4:	00060105 	andeq	r0, r6, r5, lsl #2
    21d8:	18ac0205 	stmiane	ip!, {r0, r2, r9}
    21dc:	f6030000 			; <UNDEFINED> instruction: 0xf6030000
    21e0:	05050109 	streq	r0, [r5, #-265]	; 0xfffffef7
    21e4:	17220513 			; <UNDEFINED> instruction: 0x17220513
    21e8:	05170505 	ldreq	r0, [r7, #-1285]	; 0xfffffafb
    21ec:	75030601 	strvc	r0, [r3, #-1537]	; 0xfffff9ff
    21f0:	f7030601 			; <UNDEFINED> instruction: 0xf7030601
    21f4:	05053c75 	streq	r3, [r5, #-3189]	; 0xfffff38b
    21f8:	14051814 	strne	r1, [r5], #-2068	; 0xfffff7ec
    21fc:	06010501 	streq	r0, [r1], -r1, lsl #10
    2200:	010a8103 	tsteq	sl, r3, lsl #2
    2204:	ff030f05 			; <UNDEFINED> instruction: 0xff030f05
    2208:	052e2075 	streq	r2, [lr, #-117]!	; 0xffffff8b
    220c:	05340609 	ldreq	r0, [r4, #-1545]!	; 0xfffff9f7
    2210:	0b050d3b 	bleq	145704 <_etext+0x1439a8>
    2214:	40051706 	andmi	r1, r5, r6, lsl #14
    2218:	06140529 	ldreq	r0, [r4], -r9, lsr #10
    221c:	0605051f 			; <UNDEFINED> instruction: 0x0605051f
    2220:	03064a01 	movweq	r4, #27137	; 0x6a01
    2224:	41010a91 			; <UNDEFINED> instruction: 0x41010a91
    2228:	21060105 	tstcs	r6, r5, lsl #2
    222c:	053b0505 	ldreq	r0, [fp, #-1285]!	; 0xfffffafb
    2230:	f503060d 			; <UNDEFINED> instruction: 0xf503060d
    2234:	2b052e75 	blcs	14dc10 <_etext+0x14beb4>
    2238:	203c0106 	eorscs	r0, ip, r6, lsl #2
    223c:	00060105 	andeq	r0, r6, r5, lsl #2
    2240:	18f00205 	ldmne	r0!, {r0, r2, r9}^
    2244:	ad030000 	stcge	0, cr0, [r3, #-0]
    2248:	2205010a 	andcs	r0, r5, #-2147483646	; 0x80000002
    224c:	17050516 	smladne	r5, r6, r5, r0
    2250:	01061f05 	tsteq	r6, r5, lsl #30
    2254:	2101052e 	tstcs	r1, lr, lsr #10
    2258:	20150306 	andscs	r0, r5, r6, lsl #6
    225c:	05162205 	ldreq	r2, [r6, #-517]	; 0xfffffdfb
    2260:	1f051705 	svcne	0x00051705
    2264:	053c0106 	ldreq	r0, [ip, #-262]!	; 0xfffffefa
    2268:	03062101 	movweq	r2, #24833	; 0x6101
    226c:	22052e14 	andcs	r2, r5, #20, 28	; 0x140
    2270:	18050516 	stmdane	r5, {r1, r2, r4, r8, sl}
    2274:	01060705 	tsteq	r6, r5, lsl #14
    2278:	22060905 	andcs	r0, r6, #81920	; 0x14000
    227c:	01061005 	tsteq	r6, r5
    2280:	06090520 	streq	r0, [r9], -r0, lsr #10
    2284:	06100524 	ldreq	r0, [r0], -r4, lsr #10
    2288:	22010501 	andcs	r0, r1, #4194304	; 0x400000
    228c:	2e1e0306 	cdpcs	3, 1, cr0, cr14, cr6, {0}
    2290:	05162205 	ldreq	r2, [r6, #-517]	; 0xfffffdfb
    2294:	20051705 	andcs	r1, r5, r5, lsl #14
    2298:	01050106 	tsteq	r5, r6, lsl #2
    229c:	1a030621 	bne	c3b28 <_etext+0xc1dcc>
    22a0:	16220520 	strtne	r0, [r2], -r0, lsr #10
    22a4:	05170505 	ldreq	r0, [r7, #-1285]	; 0xfffffafb
    22a8:	2e010623 	cfmadd32cs	mvax1, mvfx0, mvfx1, mvfx3
    22ac:	06210105 	strteq	r0, [r1], -r5, lsl #2
    22b0:	05201603 	streq	r1, [r0, #-1539]!	; 0xfffff9fd
    22b4:	05051622 	streq	r1, [r5, #-1570]	; 0xfffff9de
    22b8:	06230517 			; <UNDEFINED> instruction: 0x06230517
    22bc:	01053c01 	tsteq	r5, r1, lsl #24
    22c0:	15030621 	strne	r0, [r3, #-1569]	; 0xfffff9df
    22c4:	1622052e 	strtne	r0, [r2], -lr, lsr #10
    22c8:	05170505 	ldreq	r0, [r7, #-1285]	; 0xfffffafb
    22cc:	0501060c 	streq	r0, [r1, #-1548]	; 0xfffff9f4
    22d0:	03062101 	movweq	r2, #24833	; 0x6101
    22d4:	22053c12 	andcs	r3, r5, #4608	; 0x1200
    22d8:	18050516 	stmdane	r5, {r1, r2, r4, r8, sl}
    22dc:	01062005 	tsteq	r6, r5
    22e0:	062f0105 	strteq	r0, [pc], -r5, lsl #2
    22e4:	052e1a03 	streq	r1, [lr, #-2563]!	; 0xfffff5fd
    22e8:	4e051622 	cfmadd32mi	mvax1, mvfx1, mvfx5, mvfx2
    22ec:	17050513 	smladne	r5, r3, r5, r0
    22f0:	01061f05 	tsteq	r6, r5, lsl #30
    22f4:	062f0105 	strteq	r0, [pc], -r5, lsl #2
    22f8:	052e1503 	streq	r1, [lr, #-1283]!	; 0xfffffafd
    22fc:	05051622 	streq	r1, [r5, #-1570]	; 0xfffff9de
    2300:	060c0517 			; <UNDEFINED> instruction: 0x060c0517
    2304:	2f010501 	svccs	0x00010501
    2308:	2e130306 	cdpcs	3, 1, cr0, cr3, cr6, {0}
    230c:	05162205 	ldreq	r2, [r6, #-517]	; 0xfffffdfb
    2310:	25051705 	strcs	r1, [r5, #-1797]	; 0xfffff8fb
    2314:	01050106 	tsteq	r5, r6, lsl #2
    2318:	13030667 	movwne	r0, #13927	; 0x3667
    231c:	1622052e 	strtne	r0, [r2], -lr, lsr #10
    2320:	05170505 	ldreq	r0, [r7, #-1285]	; 0xfffffafb
    2324:	05010625 	streq	r0, [r1, #-1573]	; 0xfffff9db
    2328:	03066701 	movweq	r6, #26369	; 0x6701
    232c:	22052e1a 	andcs	r2, r5, #416	; 0x1a0
    2330:	17050516 	smladne	r5, r6, r5, r0
    2334:	01062505 	tsteq	r6, r5, lsl #10
    2338:	2f060505 	svccs	0x00060505
    233c:	01062605 	tsteq	r6, r5, lsl #12
    2340:	062f0105 	strteq	r0, [pc], -r5, lsl #2
    2344:	052e1b03 	streq	r1, [lr, #-2819]!	; 0xfffff4fd
    2348:	22051305 	andcs	r1, r5, #335544320	; 0x14000000
    234c:	17050517 	smladne	r5, r7, r5, r0
    2350:	03060105 	movweq	r0, #24837	; 0x6105
    2354:	05050175 	streq	r0, [r5, #-373]	; 0xfffffe8b
    2358:	01040200 	mrseq	r0, R12_usr
    235c:	3c0d0306 	stccc	3, cr0, [sp], {6}
    2360:	02000a05 	andeq	r0, r0, #20480	; 0x5000
    2364:	05100104 	ldreq	r0, [r0, #-260]	; 0xfffffefc
    2368:	0402000b 	streq	r0, [r2], #-11
    236c:	05010601 	streq	r0, [r1, #-1537]	; 0xfffff9ff
    2370:	0402000a 	streq	r0, [r2], #-10
    2374:	05052001 	streq	r2, [r5, #-1]
    2378:	0c054306 	stceq	3, cr4, [r5], {6}
    237c:	05050106 	streq	r0, [r5, #-262]	; 0xfffffefa
    2380:	4e052106 	adfmis	f2, f5, f6
    2384:	21050106 	tstcs	r5, r6, lsl #2
    2388:	0605054a 	streq	r0, [r5], -sl, asr #10
    238c:	061f0526 	ldreq	r0, [pc], -r6, lsr #10
    2390:	06050501 	streq	r0, [r5], -r1, lsl #10
    2394:	04020025 	streq	r0, [r2], #-37	; 0xffffffdb
    2398:	0a051401 	beq	1473a4 <_etext+0x145648>
    239c:	01040200 	mrseq	r0, R12_usr
    23a0:	000b0510 	andeq	r0, fp, r0, lsl r5
    23a4:	06010402 	streq	r0, [r1], -r2, lsl #8
    23a8:	000a0501 	andeq	r0, sl, r1, lsl #10
    23ac:	20010402 	andcs	r0, r1, r2, lsl #8
    23b0:	43060505 	movwmi	r0, #25861	; 0x6505
    23b4:	01062105 	tsteq	r6, r5, lsl #2
    23b8:	2e210105 	sufcss	f0, f1, f5
    23bc:	01000102 	tsteq	r0, r2, lsl #2
    23c0:	0000a301 	andeq	sl, r0, r1, lsl #6
    23c4:	1c000300 	stcne	3, cr0, [r0], {-0}
    23c8:	02000000 	andeq	r0, r0, #0
    23cc:	0d0efb01 	vstreq	d15, [lr, #-4]
    23d0:	01010100 	mrseq	r0, (UNDEF: 17)
    23d4:	00000001 	andeq	r0, r0, r1
    23d8:	01000001 	tsteq	r0, r1
    23dc:	75706300 	ldrbvc	r6, [r0, #-768]!	; 0xfffffd00
    23e0:	0000632e 	andeq	r6, r0, lr, lsr #6
    23e4:	05000000 	streq	r0, [r0, #-0]
    23e8:	02050001 	andeq	r0, r5, #1
    23ec:	000019a0 	andeq	r1, r0, r0, lsr #19
    23f0:	05013303 	streq	r3, [r1, #-771]	; 0xfffffcfd
    23f4:	03171305 	tsteq	r7, #335544320	; 0x14000000
    23f8:	01054a0b 	tsteq	r5, fp, lsl #20
    23fc:	00061306 	andeq	r1, r6, r6, lsl #6
    2400:	19a80205 	stmibne	r8!, {r0, r2, r9}
    2404:	c0030000 	andgt	r0, r3, r0
    2408:	05050100 	streq	r0, [r5, #-256]	; 0xffffff00
    240c:	0a031713 	beq	c8060 <_etext+0xc6304>
    2410:	0601053c 			; <UNDEFINED> instruction: 0x0601053c
    2414:	05000613 	streq	r0, [r0, #-1555]	; 0xfffff9ed
    2418:	0019b002 	andseq	fp, r9, r2
    241c:	013d0300 	teqeq	sp, r0, lsl #6
    2420:	17130505 	ldrne	r0, [r3, -r5, lsl #10]
    2424:	054a0b03 	strbeq	r0, [sl, #-2819]	; 0xfffff4fd
    2428:	06130601 	ldreq	r0, [r3], -r1, lsl #12
    242c:	b8020500 	stmdalt	r2, {r8, sl}
    2430:	03000019 	movweq	r0, #25
    2434:	0505013f 	streq	r0, [r5, #-319]	; 0xfffffec1
    2438:	06010516 			; <UNDEFINED> instruction: 0x06010516
    243c:	05000630 	streq	r0, [r0, #-1584]	; 0xfffff9d0
    2440:	0019bc02 	andseq	fp, r9, r2, lsl #24
    2444:	012a0300 			; <UNDEFINED> instruction: 0x012a0300
    2448:	05170505 	ldreq	r0, [r7, #-1285]	; 0xfffffafb
    244c:	063e0601 	ldrteq	r0, [lr], -r1, lsl #12
    2450:	c4020500 	strgt	r0, [r2], #-1280	; 0xfffffb00
    2454:	03000019 	movweq	r0, #25
    2458:	0505012a 	streq	r0, [r5, #-298]	; 0xfffffed6
    245c:	0a031713 	beq	c80b0 <_etext+0xc6354>
    2460:	0601053c 			; <UNDEFINED> instruction: 0x0601053c
    2464:	01010013 	tsteq	r1, r3, lsl r0

Disassembly of section .debug_str:

00000000 <.debug_str>:
       0:	536c7570 	cmnpl	ip, #112, 10	; 0x1c000000
       4:	4e006372 	mcrmi	3, 0, r6, cr0, cr2, {3}
       8:	5253696d 	subspl	r6, r3, #1785856	; 0x1b4000
       c:	6e6f6c00 	cdpvs	12, 6, cr6, cr15, cr0, {0}
      10:	6e752067 	cdpvs	0, 7, cr2, cr5, cr7, {3}
      14:	6e676973 			; <UNDEFINED> instruction: 0x6e676973
      18:	69206465 	stmdbvs	r0!, {r0, r2, r5, r6, sl, sp, lr}
      1c:	5f00746e 	svcpl	0x0000746e
      20:	73736265 	cmnvc	r3, #1342177286	; 0x50000006
      24:	73655200 	cmnvc	r5, #0, 4
      28:	53497465 	movtpl	r7, #37989	; 0x9465
      2c:	655f0052 	ldrbvs	r0, [pc, #-82]	; ffffffe2 <_ebss+0xdffffc66>
      30:	61746164 	cmnvs	r4, r4, ror #2
      34:	5c3a6400 	cfldrspl	mvf6, [sl], #-0
      38:	69746967 	ldmdbvs	r4!, {r0, r1, r2, r5, r6, r8, fp, sp, lr}^
      3c:	6d5c7365 	ldclvs	3, cr7, [ip, #-404]	; 0xfffffe6c
      40:	74735f63 	ldrbtvc	r5, [r3], #-3939	; 0xfffff09d
      44:	0077735f 	rsbseq	r7, r7, pc, asr r3
      48:	446c7570 	strbtmi	r7, [ip], #-1392	; 0xfffffa90
      4c:	00747365 	rsbseq	r7, r4, r5, ror #6
      50:	72617473 	rsbvc	r7, r1, #1929379840	; 0x73000000
      54:	5f707574 	svcpl	0x00707574
      58:	2e636367 	cdpcs	3, 6, cr6, cr3, cr7, {3}
      5c:	75700063 	ldrbvc	r0, [r0, #-99]!	; 0xffffff9d
      60:	6174536c 	cmnvs	r4, ip, ror #6
      64:	49006b63 	stmdbmi	r0, {r0, r1, r5, r6, r8, r9, fp, sp, lr}
      68:	6544746e 	strbvs	r7, [r4, #-1134]	; 0xfffffb92
      6c:	6c756166 	ldfvse	f6, [r5], #-408	; 0xfffffe68
      70:	6e614874 	mcrvs	8, 3, r4, cr1, cr4, {3}
      74:	72656c64 	rsbvc	r6, r5, #100, 24	; 0x6400
      78:	554e4700 	strbpl	r4, [lr, #-1792]	; 0xfffff900
      7c:	37314320 	ldrcc	r4, [r1, -r0, lsr #6]!
      80:	332e3920 			; <UNDEFINED> instruction: 0x332e3920
      84:	3220312e 	eorcc	r3, r0, #-2147483637	; 0x8000000b
      88:	30303230 	eorscc	r3, r0, r0, lsr r2
      8c:	20383034 	eorscs	r3, r8, r4, lsr r0
      90:	6c657228 	sfmvs	f7, 2, [r5], #-160	; 0xffffff60
      94:	65736165 	ldrbvs	r6, [r3, #-357]!	; 0xfffffe9b
      98:	6d2d2029 	stcvs	0, cr2, [sp, #-164]!	; 0xffffff5c
      9c:	3d757063 	ldclcc	0, cr7, [r5, #-396]!	; 0xfffffe74
      a0:	74726f63 	ldrbtvc	r6, [r2], #-3939	; 0xfffff09d
      a4:	6d2d7865 	stcvs	8, cr7, [sp, #-404]!	; 0xfffffe6c
      a8:	6d2d2034 	stcvs	0, cr2, [sp, #-208]!	; 0xffffff30
      ac:	616f6c66 	cmnvs	pc, r6, ror #24
      b0:	62612d74 	rsbvs	r2, r1, #116, 26	; 0x1d00
      b4:	61683d69 	cmnvs	r8, r9, ror #26
      b8:	2d206472 	cfstrscs	mvf6, [r0, #-456]!	; 0xfffffe38
      bc:	7570666d 	ldrbvc	r6, [r0, #-1645]!	; 0xfffff993
      c0:	7066763d 	rsbvc	r7, r6, sp, lsr r6
      c4:	642d3476 	strtvs	r3, [sp], #-1142	; 0xfffffb8a
      c8:	2d203631 	stccs	6, cr3, [r0, #-196]!	; 0xffffff3c
      cc:	7568746d 	strbvc	r7, [r8, #-1133]!	; 0xfffffb93
      d0:	2d20626d 	sfmcs	f6, 4, [r0, #-436]!	; 0xfffffe4c
      d4:	6372616d 	cmnvs	r2, #1073741851	; 0x4000001b
      d8:	72613d68 	rsbvc	r3, r1, #104, 26	; 0x1a00
      dc:	6537766d 	ldrvs	r7, [r7, #-1645]!	; 0xfffff993
      e0:	662b6d2d 	strtvs	r6, [fp], -sp, lsr #26
      e4:	672d2070 			; <UNDEFINED> instruction: 0x672d2070
      e8:	324f2d20 	subcc	r2, pc, #32, 26	; 0x800
      ec:	66662d20 	strbtvs	r2, [r6], -r0, lsr #26
      f0:	73656572 	cmnvc	r5, #478150656	; 0x1c800000
      f4:	646e6174 	strbtvs	r6, [lr], #-372	; 0xfffffe8c
      f8:	00676e69 	rsbeq	r6, r7, r9, ror #28
      fc:	66705f67 	ldrbtvs	r5, [r0], -r7, ror #30
     100:	6365566e 	cmnvs	r5, #115343360	; 0x6e00000
     104:	73726f74 	cmnvc	r2, #116, 30	; 0x1d0
     108:	55504600 	ldrbpl	r4, [r0, #-1536]	; 0xfffffa00
     10c:	696e495f 	stmdbvs	lr!, {r0, r1, r2, r3, r4, r6, r8, fp, lr}^
     110:	616d0074 	smcvs	53252	; 0xd004
     114:	46006e69 	strmi	r6, [r0], -r9, ror #28
     118:	746c7561 	strbtvc	r7, [ip], #-1377	; 0xfffffa9f
     11c:	00525349 	subseq	r5, r2, r9, asr #6
     120:	7373625f 	cmnvc	r3, #-268435451	; 0xf0000005
     124:	61645f00 	cmnvs	r4, r0, lsl #30
     128:	5f006174 	svcpl	0x00006174
     12c:	78657465 	stmdavc	r5!, {r0, r2, r5, r6, sl, ip, sp, lr}^
     130:	41550074 	cmpmi	r5, r4, ror r0
     134:	6f435452 	svcvs	0x00435452
     138:	6769666e 	strbvs	r6, [r9, -lr, ror #12]!
     13c:	45746553 	ldrbmi	r6, [r4, #-1363]!	; 0xfffffaad
     140:	6c437078 	mcrrvs	0, 7, r7, r3, cr8
     144:	6c66006b 	stclvs	0, cr0, [r6], #-428	; 0xfffffe54
     148:	0074616f 	rsbseq	r6, r4, pc, ror #2
     14c:	54524155 	ldrbpl	r4, [r2], #-341	; 0xfffffeab
     150:	72616843 	rsbvc	r6, r1, #4390912	; 0x430000
     154:	00747550 	rsbseq	r7, r4, r0, asr r5
     158:	54524155 	ldrbpl	r4, [r2], #-341	; 0xfffffeab
     15c:	72616843 	rsbvc	r6, r1, #4390912	; 0x430000
     160:	00746547 	rsbseq	r6, r4, r7, asr #10
     164:	4f495047 	svcmi	0x00495047
     168:	436e6950 	cmnmi	lr, #80, 18	; 0x140000
     16c:	69666e6f 	stmdbvs	r6!, {r0, r1, r2, r3, r5, r6, r9, sl, fp, sp, lr}^
     170:	65727567 	ldrbvs	r7, [r2, #-1383]!	; 0xfffffa99
     174:	73795300 	cmnvc	r9, #0, 6
     178:	506c7443 	rsbpl	r7, ip, r3, asr #8
     17c:	70697265 	rsbvc	r7, r9, r5, ror #4
     180:	61726568 	cmnvs	r2, r8, ror #10
     184:	616e456c 	cmnvs	lr, ip, ror #10
     188:	00656c62 	rsbeq	r6, r5, r2, ror #24
     18c:	74726175 	ldrbtvc	r6, [r2], #-373	; 0xfffffe8b
     190:	6c6f705f 	stclvs	0, cr7, [pc], #-380	; 1c <g_pfnVectors+0x1c>
     194:	2e64656c 	cdpcs	5, 6, cr6, cr4, cr12, {3}
     198:	54630063 	strbtpl	r0, [r3], #-99	; 0xffffff9d
     19c:	43736968 	cmnmi	r3, #104, 18	; 0x1a0000
     1a0:	00726168 	rsbseq	r6, r2, r8, ror #2
     1a4:	43737953 	cmnmi	r3, #1359872	; 0x14c000
     1a8:	6c436c74 	mcrrvs	12, 7, r6, r3, cr4
     1ac:	536b636f 	cmnpl	fp, #-1140850687	; 0xbc000001
     1b0:	75007465 	strvc	r7, [r0, #-1125]	; 0xfffffb9b
     1b4:	6769736e 	strbvs	r7, [r9, -lr, ror #6]!
     1b8:	2064656e 	rsbcs	r6, r4, lr, ror #10
     1bc:	72616863 	rsbvc	r6, r1, #6488064	; 0x630000
     1c0:	49504700 	ldmdbmi	r0, {r8, r9, sl, lr}^
     1c4:	6e69504f 	cdpvs	0, 6, cr5, cr9, cr15, {2}
     1c8:	65707954 	ldrbvs	r7, [r0, #-2388]!	; 0xfffff6ac
     1cc:	54524155 	ldrbpl	r4, [r2], #-341	; 0xfffffeab
     1d0:	73795300 	cmnvc	r9, #0, 6
     1d4:	436c7443 	cmnmi	ip, #1124073472	; 0x43000000
     1d8:	6b636f6c 	blvs	18dbf90 <_etext+0x18da234>
     1dc:	00746547 	rsbseq	r6, r4, r7, asr #10
     1e0:	4f495047 	svcmi	0x00495047
     1e4:	54746e49 	ldrbtpl	r6, [r4], #-3657	; 0xfffff1b7
     1e8:	47657079 			; <UNDEFINED> instruction: 0x47657079
     1ec:	64007465 	strvs	r7, [r0], #-1125	; 0xfffffb9b
     1f0:	616d5c3a 	cmnvs	sp, sl, lsr ip
     1f4:	696c6572 	stmdbvs	ip!, {r1, r4, r5, r6, r8, sl, sp, lr}^
     1f8:	616c425c 	cmnvs	ip, ip, asr r2
     1fc:	6f426b63 	svcvs	0x00426b63
     200:	636d5c78 	cmnvs	sp, #120, 24	; 0x7800
     204:	5f74735f 	svcpl	0x0074735f
     208:	645c7773 	ldrbvs	r7, [ip], #-1907	; 0xfffff88d
     20c:	65766972 	ldrbvs	r6, [r6, #-2418]!	; 0xfffff68e
     210:	62696c72 	rsbvs	r6, r9, #29184	; 0x7200
     214:	49504700 	ldmdbmi	r0, {r8, r9, sl, lr}^
     218:	6e69504f 	cdpvs	0, 6, cr5, cr9, cr15, {2}
     21c:	64616552 	strbtvs	r6, [r1], #-1362	; 0xfffffaae
     220:	536c7500 	cmnpl	ip, #0, 10
     224:	74666968 	strbtvc	r6, [r6], #-2408	; 0xfffff698
     228:	6e667000 	cdpvs	0, 6, cr7, cr6, cr0, {0}
     22c:	48746e49 	ldmdami	r4!, {r0, r3, r6, r9, sl, fp, sp, lr}^
     230:	6c646e61 	stclvs	14, cr6, [r4], #-388	; 0xfffffe7c
     234:	47007265 	strmi	r7, [r0, -r5, ror #4]
     238:	504f4950 	subpl	r4, pc, r0, asr r9	; <UNPREDICTABLE>
     23c:	79546e69 	ldmdbvc	r4, {r0, r3, r5, r6, r9, sl, fp, sp, lr}^
     240:	50456570 	subpl	r6, r5, r0, ror r5
     244:	6c750049 	ldclvs	0, cr0, [r5], #-292	; 0xfffffedc
     248:	45534641 	ldrbmi	r4, [r3, #-1601]	; 0xfffff9bf
     24c:	6c75004c 	ldclvs	0, cr0, [r5], #-304	; 0xfffffed0
     250:	00726944 	rsbseq	r6, r2, r4, asr #18
     254:	4f495047 	svcmi	0x00495047
     258:	74726f50 	ldrbtvc	r6, [r2], #-3920	; 0xfffff0b0
     25c:	55746e49 	ldrbpl	r6, [r4, #-3657]!	; 0xfffff1b7
     260:	6765726e 	strbvs	r7, [r5, -lr, ror #4]!
     264:	65747369 	ldrbvs	r7, [r4, #-873]!	; 0xfffffc97
     268:	50470072 	subpl	r0, r7, r2, ror r0
     26c:	69504f49 	ldmdbvs	r0, {r0, r3, r6, r8, r9, sl, fp, lr}^
     270:	7079546e 	rsbsvc	r5, r9, lr, ror #8
     274:	49504765 	ldmdbmi	r0, {r0, r2, r5, r6, r8, r9, sl, lr}^
     278:	74754f4f 	ldrbtvc	r4, [r5], #-3919	; 0xfffff0b1
     27c:	4f747570 	svcmi	0x00747570
     280:	50470044 	subpl	r0, r7, r4, asr #32
     284:	69504f49 	ldmdbvs	r0, {r0, r3, r6, r8, r9, sl, fp, lr}^
     288:	7079546e 	rsbsvc	r5, r9, lr, ror #8
     28c:	6d6f4365 	stclvs	3, cr4, [pc, #-404]!	; 100 <g_pfnVectors+0x100>
     290:	61726170 	cmnvs	r2, r0, ror r1
     294:	00726f74 	rsbseq	r6, r2, r4, ror pc
     298:	4f495047 	svcmi	0x00495047
     29c:	54414d44 	strbpl	r4, [r1], #-3396	; 0xfffff2bc
     2a0:	67676972 			; <UNDEFINED> instruction: 0x67676972
     2a4:	69447265 	stmdbvs	r4, {r0, r2, r5, r6, r9, ip, sp, lr}^
     2a8:	6c626173 	stfvse	f6, [r2], #-460	; 0xfffffe34
     2ac:	50470065 	subpl	r0, r7, r5, rrx
     2b0:	69504f49 	ldmdbvs	r0, {r0, r3, r6, r8, r9, sl, fp, lr}^
     2b4:	7079546e 	rsbsvc	r5, r9, lr, ror #8
     2b8:	49504765 	ldmdbmi	r0, {r0, r2, r5, r6, r8, r9, sl, lr}^
     2bc:	706e494f 	rsbvc	r4, lr, pc, asr #18
     2c0:	47007475 	smlsdxmi	r0, r5, r4, r7
     2c4:	414f4950 	cmpmi	pc, r0, asr r9	; <UNPREDICTABLE>
     2c8:	72544344 	subsvc	r4, r4, #68, 6	; 0x10000001
     2cc:	65676769 	strbvs	r6, [r7, #-1897]!	; 0xfffff897
     2d0:	73694472 	cmnvc	r9, #1912602624	; 0x72000000
     2d4:	656c6261 	strbvs	r6, [ip, #-609]!	; 0xfffffd9f
     2d8:	49504700 	ldmdbmi	r0, {r8, r9, sl, lr}^
     2dc:	6e69504f 	cdpvs	0, 6, cr5, cr9, cr15, {2}
     2e0:	53746e49 	cmnpl	r4, #1168	; 0x490
     2e4:	75746174 	ldrbvc	r6, [r4, #-372]!	; 0xfffffe8c
     2e8:	50470073 	subpl	r0, r7, r3, ror r0
     2ec:	65474f49 	strbvs	r4, [r7, #-3913]	; 0xfffff0b7
     2f0:	746e4974 	strbtvc	r4, [lr], #-2420	; 0xfffff68c
     2f4:	626d754e 	rsbvs	r7, sp, #327155712	; 0x13800000
     2f8:	75007265 	strvc	r7, [r0, #-613]	; 0xfffffd9b
     2fc:	7361426c 	cmnvc	r1, #108, 4	; 0xc0000006
     300:	50470065 	subpl	r0, r7, r5, rrx
     304:	4d444f49 	stclmi	15, cr4, [r4, #-292]	; 0xfffffedc
     308:	69725441 	ldmdbvs	r2!, {r0, r6, sl, ip, lr}^
     30c:	72656767 	rsbvc	r6, r5, #27000832	; 0x19c0000
     310:	62616e45 	rsbvs	r6, r1, #1104	; 0x450
     314:	4700656c 	strmi	r6, [r0, -ip, ror #10]
     318:	504f4950 	subpl	r4, pc, r0, asr r9	; <UNPREDICTABLE>
     31c:	79546e69 	ldmdbvc	r4, {r0, r3, r5, r6, r9, sl, fp, sp, lr}^
     320:	53556570 	cmppl	r5, #112, 10	; 0x1c000000
     324:	67694442 	strbvs	r4, [r9, -r2, asr #8]!
     328:	6c617469 	cfstrdvs	mvd7, [r1], #-420	; 0xfffffe5c
     32c:	496c7500 	stmdbmi	ip!, {r8, sl, ip, sp, lr}^
     330:	47004542 	strmi	r4, [r0, -r2, asr #10]
     334:	504f4950 	subpl	r4, pc, r0, asr r9	; <UNPREDICTABLE>
     338:	79546e69 	ldmdbvc	r4, {r0, r3, r5, r6, r9, sl, fp, sp, lr}^
     33c:	41436570 	hvcmi	13904	; 0x3650
     340:	6c75004e 	ldclvs	0, cr0, [r5], #-312	; 0xfffffec8
     344:	436e6950 	cmnmi	lr, #80, 18	; 0x140000
     348:	69666e6f 	stmdbvs	r6!, {r0, r1, r2, r3, r5, r6, r9, sl, fp, sp, lr}^
     34c:	50470067 	subpl	r0, r7, r7, rrx
     350:	69504f49 	ldmdbvs	r0, {r0, r3, r6, r8, r9, sl, fp, lr}^
     354:	7079546e 	rsbsvc	r5, r9, lr, ror #8
     358:	43455065 	movtmi	r5, #20581	; 0x5065
     35c:	00785249 	rsbseq	r5, r8, r9, asr #4
     360:	4f495047 	svcmi	0x00495047
     364:	496e6950 	stmdbmi	lr!, {r4, r6, r8, fp, sp, lr}^
     368:	6e45746e 	cdpvs	4, 4, cr7, cr5, cr14, {3}
     36c:	656c6261 	strbvs	r6, [ip, #-609]!	; 0xfffffd9f
     370:	705f6700 	subsvc	r6, pc, r0, lsl #14
     374:	50476c75 	subpl	r6, r7, r5, ror ip
     378:	61424f49 	cmpvs	r2, r9, asr #30
     37c:	64416573 	strbvs	r6, [r1], #-1395	; 0xfffffa8d
     380:	00737264 	rsbseq	r7, r3, r4, ror #4
     384:	4f495047 	svcmi	0x00495047
     388:	546e6950 	strbtpl	r6, [lr], #-2384	; 0xfffff6b0
     38c:	41657079 	smcmi	22281	; 0x5709
     390:	75004344 	strvc	r4, [r0, #-836]	; 0xfffffcbc
     394:	6e695063 	cdpvs	0, 6, cr5, cr9, cr3, {3}
     398:	49504700 	ldmdbmi	r0, {r8, r9, sl, lr}^
     39c:	6e69504f 	cdpvs	0, 6, cr5, cr9, cr15, {2}
     3a0:	65707954 	ldrbvs	r7, [r0, #-2388]!	; 0xfffff6ac
     3a4:	49434550 	stmdbmi	r3, {r4, r6, r8, sl, lr}^
     3a8:	47007854 	smlsdmi	r0, r4, r8, r7
     3ac:	504f4950 	subpl	r4, pc, r0, asr r9	; <UNPREDICTABLE>
     3b0:	6e496e69 	cdpvs	14, 4, cr6, cr9, cr9, {3}
     3b4:	656c4374 	strbvs	r4, [ip, #-884]!	; 0xfffffc8c
     3b8:	47007261 	strmi	r7, [r0, -r1, ror #4]
     3bc:	504f4950 	subpl	r4, pc, r0, asr r9	; <UNPREDICTABLE>
     3c0:	79546e69 	ldmdbvc	r4, {r0, r3, r5, r6, r9, sl, fp, sp, lr}^
     3c4:	504c6570 	subpl	r6, ip, r0, ror r5
     3c8:	50470043 	subpl	r0, r7, r3, asr #32
     3cc:	69444f49 	stmdbvs	r4, {r0, r3, r6, r8, r9, sl, fp, lr}^
     3d0:	646f4d72 	strbtvs	r4, [pc], #-3442	; 3d8 <GPIOIntTypeSet+0x14>
     3d4:	74655365 	strbtvc	r5, [r5], #-869	; 0xfffffc9b
     3d8:	49504700 	ldmdbmi	r0, {r8, r9, sl, lr}^
     3dc:	6e69504f 	cdpvs	0, 6, cr5, cr9, cr15, {2}
     3e0:	65707954 	ldrbvs	r7, [r0, #-2388]!	; 0xfffff6ac
     3e4:	4f495047 	svcmi	0x00495047
     3e8:	7074754f 	rsbsvc	r7, r4, pc, asr #10
     3ec:	47007475 	smlsdxmi	r0, r5, r4, r7
     3f0:	504f4950 	subpl	r4, pc, r0, asr r9	; <UNPREDICTABLE>
     3f4:	6f436461 	svcvs	0x00436461
     3f8:	6769666e 	strbvs	r6, [r9, -lr, ror #12]!
     3fc:	00746547 	rsbseq	r6, r4, r7, asr #10
     400:	4f495047 	svcmi	0x00495047
     404:	4d726944 			; <UNDEFINED> instruction: 0x4d726944
     408:	4765646f 	strbmi	r6, [r5, -pc, ror #8]!
     40c:	47007465 	strmi	r7, [r0, -r5, ror #8]
     410:	504f4950 	subpl	r4, pc, r0, asr r9	; <UNPREDICTABLE>
     414:	79546e69 	ldmdbvc	r4, {r0, r3, r5, r6, r9, sl, fp, sp, lr}^
     418:	45516570 	ldrbmi	r6, [r1, #-1392]	; 0xfffffa90
     41c:	50470049 	subpl	r0, r7, r9, asr #32
     420:	6e494f49 	cdpvs	15, 4, cr4, cr9, cr9, {2}
     424:	70795474 	rsbsvc	r5, r9, r4, ror r4
     428:	74655365 	strbtvc	r5, [r5], #-869	; 0xfffffc9b
     42c:	49504700 	ldmdbmi	r0, {r8, r9, sl, lr}^
     430:	6e69504f 	cdpvs	0, 6, cr5, cr9, cr15, {2}
     434:	65707954 	ldrbvs	r7, [r0, #-2388]!	; 0xfffff6ac
     438:	00495353 	subeq	r5, r9, r3, asr r3
     43c:	73614d62 	cmnvc	r1, #6272	; 0x1880
     440:	0064656b 	rsbeq	r6, r4, fp, ror #10
     444:	4f495047 	svcmi	0x00495047
     448:	54434441 	strbpl	r4, [r3], #-1089	; 0xfffffbbf
     44c:	67676972 			; <UNDEFINED> instruction: 0x67676972
     450:	6e457265 	cdpvs	2, 4, cr7, cr5, cr5, {3}
     454:	656c6261 	strbvs	r6, [ip, #-609]!	; 0xfffffd9f
     458:	49504700 	ldmdbmi	r0, {r8, r9, sl, lr}^
     45c:	6461504f 	strbtvs	r5, [r1], #-79	; 0xffffffb1
     460:	666e6f43 	strbtvs	r6, [lr], -r3, asr #30
     464:	65536769 	ldrbvs	r6, [r3, #-1897]	; 0xfffff897
     468:	63750074 	cmnvs	r5, #116	; 0x74
     46c:	736e6950 	cmnvc	lr, #80, 18	; 0x140000
     470:	56637500 	strbtpl	r7, [r3], -r0, lsl #10
     474:	47006c61 	strmi	r6, [r0, -r1, ror #24]
     478:	504f4950 	subpl	r4, pc, r0, asr r9	; <UNPREDICTABLE>
     47c:	79546e69 	ldmdbvc	r4, {r0, r3, r5, r6, r9, sl, fp, sp, lr}^
     480:	53556570 	cmppl	r5, #112, 10	; 0x1c000000
     484:	616e4142 	cmnvs	lr, r2, asr #2
     488:	00676f6c 	rsbeq	r6, r7, ip, ror #30
     48c:	536c7570 	cmnpl	ip, #112, 10	; 0x1c000000
     490:	6e657274 	mcrvs	2, 3, r7, cr5, cr4, {3}
     494:	00687467 	rsbeq	r7, r8, r7, ror #8
     498:	20554e47 	subscs	r4, r5, r7, asr #28
     49c:	20313143 	eorscs	r3, r1, r3, asr #2
     4a0:	2e332e39 	mrccs	14, 1, r2, cr3, cr9, {1}
     4a4:	30322031 	eorscc	r2, r2, r1, lsr r0
     4a8:	34303032 	ldrtcc	r3, [r0], #-50	; 0xffffffce
     4ac:	28203830 	stmdacs	r0!, {r4, r5, fp, ip, sp}
     4b0:	656c6572 	strbvs	r6, [ip, #-1394]!	; 0xfffffa8e
     4b4:	29657361 	stmdbcs	r5!, {r0, r5, r6, r8, r9, ip, sp, lr}^
     4b8:	746d2d20 	strbtvc	r2, [sp], #-3360	; 0xfffff2e0
     4bc:	626d7568 	rsbvs	r7, sp, #104, 10	; 0x1a000000
     4c0:	636d2d20 	cmnvs	sp, #32, 26	; 0x800
     4c4:	633d7570 	teqvs	sp, #112, 10	; 0x1c000000
     4c8:	6574726f 	ldrbvs	r7, [r4, #-623]!	; 0xfffffd91
     4cc:	346d2d78 	strbtcc	r2, [sp], #-3448	; 0xfffff288
     4d0:	666d2d20 	strbtvs	r2, [sp], -r0, lsr #26
     4d4:	74616f6c 	strbtvc	r6, [r1], #-3948	; 0xfffff094
     4d8:	6962612d 	stmdbvs	r2!, {r0, r2, r3, r5, r8, sp, lr}^
     4dc:	7261683d 	rsbvc	r6, r1, #3997696	; 0x3d0000
     4e0:	6d2d2064 	stcvs	0, cr2, [sp, #-400]!	; 0xfffffe70
     4e4:	3d757066 	ldclcc	0, cr7, [r5, #-408]!	; 0xfffffe68
     4e8:	76706676 			; <UNDEFINED> instruction: 0x76706676
     4ec:	31642d34 	cmncc	r4, r4, lsr sp
     4f0:	6d2d2036 	stcvs	0, cr2, [sp, #-216]!	; 0xffffff28
     4f4:	68637261 	stmdavs	r3!, {r0, r5, r6, r9, ip, sp, lr}^
     4f8:	6d72613d 	ldfvse	f6, [r2, #-244]!	; 0xffffff0c
     4fc:	2d653776 	stclcs	7, cr3, [r5, #-472]!	; 0xfffffe28
     500:	70662b6d 	rsbvc	r2, r6, sp, ror #22
     504:	20672d20 	rsbcs	r2, r7, r0, lsr #26
     508:	20324f2d 	eorscs	r4, r2, sp, lsr #30
     50c:	6474732d 	ldrbtvs	r7, [r4], #-813	; 0xfffffcd3
     510:	756e673d 	strbvc	r6, [lr, #-1853]!	; 0xfffff8c3
     514:	2d203131 	stfcss	f3, [r0, #-196]!	; 0xffffff3c
     518:	65726666 	ldrbvs	r6, [r2, #-1638]!	; 0xfffff99a
     51c:	61747365 	cmnvs	r4, r5, ror #6
     520:	6e69646e 	cdpvs	4, 6, cr6, cr9, cr14, {3}
     524:	6c750067 	ldclvs	0, cr0, [r5], #-412	; 0xfffffe64
     528:	496e6950 	stmdbmi	lr!, {r4, r6, r8, fp, sp, lr}^
     52c:	5047004f 	subpl	r0, r7, pc, asr #32
     530:	69504f49 	ldmdbvs	r0, {r0, r3, r6, r8, r9, sl, fp, lr}^
     534:	7079546e 	rsbsvc	r5, r9, lr, ror #8
     538:	43324965 	teqmi	r2, #1654784	; 0x194000
     53c:	6c757000 	ldclvs	0, cr7, [r5], #-0
     540:	546e6950 	strbtpl	r6, [lr], #-2384	; 0xfffff6b0
     544:	00657079 	rsbeq	r7, r5, r9, ror r0
     548:	4f495047 	svcmi	0x00495047
     54c:	546e6950 	strbtpl	r6, [lr], #-2384	; 0xfffff6b0
     550:	50657079 	rsbpl	r7, r5, r9, ror r0
     554:	47004d57 	smlsdmi	r0, r7, sp, r4
     558:	504f4950 	subpl	r4, pc, r0, asr r9	; <UNPREDICTABLE>
     55c:	79546e69 	ldmdbvc	r4, {r0, r3, r5, r6, r9, sl, fp, sp, lr}^
     560:	32496570 	subcc	r6, r9, #112, 10	; 0x1c000000
     564:	4c435343 	mcrrmi	3, 4, r5, r3, cr3
     568:	6f427400 	svcvs	0x00427400
     56c:	61656c6f 	cmnvs	r5, pc, ror #24
     570:	5047006e 	subpl	r0, r7, lr, rrx
     574:	69504f49 	ldmdbvs	r0, {r0, r3, r6, r8, r9, sl, fp, lr}^
     578:	7079546e 	rsbsvc	r5, r9, lr, ror #8
     57c:	6e614665 	cdpvs	6, 6, cr4, cr1, cr5, {3}
     580:	496c7500 	stmdbmi	ip!, {r8, sl, ip, sp, lr}^
     584:	47005645 	strmi	r5, [r0, -r5, asr #12]
     588:	504f4950 	subpl	r4, pc, r0, asr r9	; <UNPREDICTABLE>
     58c:	79546e69 	ldmdbvc	r4, {r0, r3, r5, r6, r9, sl, fp, sp, lr}^
     590:	32496570 	subcc	r6, r9, #112, 10	; 0x1c000000
     594:	50470053 	subpl	r0, r7, r3, asr r0
     598:	69504f49 	ldmdbvs	r0, {r0, r3, r6, r8, r9, sl, fp, lr}^
     59c:	7079546e 	rsbsvc	r5, r9, lr, ror #8
     5a0:	68744565 	ldmdavs	r4!, {r0, r2, r5, r6, r8, sl, lr}^
     5a4:	656e7265 	strbvs	r7, [lr, #-613]!	; 0xfffffd9b
     5a8:	44454c74 	strbmi	r4, [r5], #-3188	; 0xfffff38c
     5ac:	49504700 	ldmdbmi	r0, {r8, r9, sl, lr}^
     5b0:	6e69504f 	cdpvs	0, 6, cr5, cr9, cr15, {2}
     5b4:	44746e49 	ldrbtmi	r6, [r4], #-3657	; 0xfffff1b7
     5b8:	62617369 	rsbvs	r7, r1, #-1543503871	; 0xa4000001
     5bc:	7500656c 	strvc	r6, [r0, #-1388]	; 0xfffffa94
     5c0:	0053496c 	subseq	r4, r3, ip, ror #18
     5c4:	4f495047 	svcmi	0x00495047
     5c8:	546e6950 	strbtpl	r6, [lr], #-2384	; 0xfffff6b0
     5cc:	54657079 	strbtpl	r7, [r5], #-121	; 0xffffff87
     5d0:	72656d69 	rsbvc	r6, r5, #6720	; 0x1a40
     5d4:	49504700 	ldmdbmi	r0, {r8, r9, sl, lr}^
     5d8:	6e69504f 	cdpvs	0, 6, cr5, cr9, cr15, {2}
     5dc:	65707954 	ldrbvs	r7, [r0, #-2388]!	; 0xfffff6ac
     5e0:	65687445 	strbvs	r7, [r8, #-1093]!	; 0xfffffbbb
     5e4:	74656e72 	strbtvc	r6, [r5], #-3698	; 0xfffff18e
     5e8:	0049494d 	subeq	r4, r9, sp, asr #18
     5ec:	6f697067 	svcvs	0x00697067
     5f0:	6c00632e 	stcvs	3, cr6, [r0], {46}	; 0x2e
     5f4:	20676e6f 	rsbcs	r6, r7, pc, ror #28
     5f8:	00746e69 	rsbseq	r6, r4, r9, ror #28
     5fc:	6e496c75 	mcrvs	12, 2, r6, cr9, cr5, {3}
     600:	70795474 	rsbsvc	r5, r9, r4, ror r4
     604:	50470065 	subpl	r0, r7, r5, rrx
     608:	69504f49 	ldmdbvs	r0, {r0, r3, r6, r8, r9, sl, fp, lr}^
     60c:	6972576e 	ldmdbvs	r2!, {r1, r2, r3, r5, r6, r8, r9, sl, ip, lr}^
     610:	75006574 	strvc	r6, [r0, #-1396]	; 0xfffffa8c
     614:	726f506c 	rsbvc	r5, pc, #108	; 0x6c
     618:	50470074 	subpl	r0, r7, r4, ror r0
     61c:	6f504f49 	svcvs	0x00504f49
     620:	6e497472 	mcrvs	4, 2, r7, cr9, cr2, {3}
     624:	67655274 			; <UNDEFINED> instruction: 0x67655274
     628:	65747369 	ldrbvs	r7, [r4, #-873]!	; 0xfffffc97
     62c:	6e690072 	mcrvs	0, 3, r0, cr9, cr2, {3}
     630:	72726574 	rsbsvc	r6, r2, #116, 10	; 0x1d000000
     634:	2e747075 	mrccs	0, 3, r7, cr4, cr5, {3}
     638:	6c750063 	ldclvs	0, cr0, [r5], #-396	; 0xfffffe74
     63c:	65746e49 	ldrbvs	r6, [r4, #-3657]!	; 0xfffff1b7
     640:	70757272 	rsbsvc	r7, r5, r2, ror r2
     644:	5f670074 	svcpl	0x00670074
     648:	506c7570 	rsbpl	r7, ip, r0, ror r5
     64c:	52646e65 	rsbpl	r6, r4, #1616	; 0x650
     650:	00736765 	rsbseq	r6, r3, r5, ror #14
     654:	50746e49 	rsbspl	r6, r4, r9, asr #28
     658:	726f6972 	rsbvc	r6, pc, #1867776	; 0x1c8000
     65c:	53797469 	cmnpl	r9, #1761607680	; 0x69000000
     660:	67007465 	strvs	r7, [r0, -r5, ror #8]
     664:	6e66705f 	mcrvs	0, 3, r7, cr6, cr15, {2}
     668:	564d4152 			; <UNDEFINED> instruction: 0x564d4152
     66c:	6f746365 	svcvs	0x00746365
     670:	67007372 	smlsdxvs	r0, r2, r3, r7
     674:	6c75705f 	ldclvs	0, cr7, [r5], #-380	; 0xfffffe84
     678:	52736944 	rsbspl	r6, r3, #68, 18	; 0x110000
     67c:	00736765 	rsbseq	r6, r3, r5, ror #14
     680:	50746e49 	rsbspl	r6, r4, r9, asr #28
     684:	53646e65 	cmnpl	r4, #1616	; 0x650
     688:	75007465 	strvc	r7, [r0, #-1125]	; 0xfffffb9b
     68c:	69725063 	ldmdbvs	r2!, {r0, r1, r5, r6, ip, lr}^
     690:	7469726f 	strbtvc	r7, [r9], #-623	; 0xfffffd91
     694:	6e490079 	mcrvs	0, 2, r0, cr9, cr9, {3}
     698:	45734974 	ldrbmi	r4, [r3, #-2420]!	; 0xfffff68c
     69c:	6c62616e 	stfvse	f6, [r2], #-440	; 0xfffffe48
     6a0:	49006465 	stmdbmi	r0, {r0, r2, r5, r6, sl, sp, lr}
     6a4:	7250746e 	subsvc	r7, r0, #1845493760	; 0x6e000000
     6a8:	69726f69 	ldmdbvs	r2!, {r0, r3, r5, r6, r8, r9, sl, fp, sp, lr}^
     6ac:	72477974 	subvc	r7, r7, #116, 18	; 0x1d0000
     6b0:	6970756f 	ldmdbvs	r0!, {r0, r1, r2, r3, r5, r6, r8, sl, ip, sp, lr}^
     6b4:	6547676e 	strbvs	r6, [r7, #-1902]	; 0xfffff892
     6b8:	6e490074 	mcrvs	0, 2, r0, cr9, cr4, {3}
     6bc:	69725074 	ldmdbvs	r2!, {r2, r4, r5, r6, ip, lr}^
     6c0:	7469726f 	strbtvc	r7, [r9], #-623	; 0xfffffd91
     6c4:	73614d79 	cmnvc	r1, #7744	; 0x1e40
     6c8:	7465536b 	strbtvc	r5, [r5], #-875	; 0xfffffc95
     6cc:	4c6c7500 	cfstr64mi	mvdx7, [ip], #-0
     6d0:	00706f6f 	rsbseq	r6, r0, pc, ror #30
     6d4:	4d746e49 	ldclmi	14, cr6, [r4, #-292]!	; 0xfffffedc
     6d8:	65747361 	ldrbvs	r7, [r4, #-865]!	; 0xfffffc9f
     6dc:	73694472 	cmnvc	r9, #1912602624	; 0x72000000
     6e0:	656c6261 	strbvs	r6, [ip, #-609]!	; 0xfffffd9f
     6e4:	566c7500 	strbtpl	r7, [ip], -r0, lsl #10
     6e8:	65756c61 	ldrbvs	r6, [r5, #-3169]!	; 0xfffff39f
     6ec:	746e4900 	strbtvc	r4, [lr], #-2304	; 0xfffff700
     6f0:	7473614d 	ldrbtvc	r6, [r3], #-333	; 0xfffffeb3
     6f4:	6e457265 	cdpvs	2, 4, cr7, cr5, cr5, {3}
     6f8:	656c6261 	strbvs	r6, [ip, #-609]!	; 0xfffffd9f
     6fc:	705f6700 	subsvc	r6, pc, r0, lsl #14
     700:	6e556c75 	mrcvs	12, 2, r6, cr5, cr5, {3}
     704:	646e6570 	strbtvs	r6, [lr], #-1392	; 0xfffffa90
     708:	73676552 	cmnvc	r7, #343932928	; 0x14800000
     70c:	506c7500 	rsbpl	r7, ip, r0, lsl #10
     710:	726f6972 	rsbvc	r6, pc, #1867776	; 0x1c8000
     714:	4d797469 	cfldrdmi	mvd7, [r9, #-420]!	; 0xfffffe5c
     718:	006b7361 	rsbeq	r7, fp, r1, ror #6
     71c:	64496c75 	strbvs	r6, [r9], #-3189	; 0xfffff38b
     720:	66700078 			; <UNDEFINED> instruction: 0x66700078
     724:	6e61486e 	cdpvs	8, 6, cr4, cr1, cr14, {3}
     728:	72656c64 	rsbvc	r6, r5, #100, 24	; 0x6400
     72c:	746e4900 	strbtvc	r4, [lr], #-2304	; 0xfffff700
     730:	6f697250 	svcvs	0x00697250
     734:	79746972 	ldmdbvc	r4!, {r1, r4, r5, r6, r8, fp, sp, lr}^
     738:	6b73614d 	blvs	1cd8c74 <_etext+0x1cd6f18>
     73c:	00746547 	rsbseq	r6, r4, r7, asr #10
     740:	65546c75 	ldrbvs	r6, [r4, #-3189]	; 0xfffff38b
     744:	6700706d 	strvs	r7, [r0, -sp, rrx]
     748:	6c75705f 	ldclvs	0, cr7, [r5], #-380	; 0xfffffe84
     74c:	73676552 	cmnvc	r7, #343932928	; 0x14800000
     750:	746e4900 	strbtvc	r4, [lr], #-2304	; 0xfffff700
     754:	6f697250 	svcvs	0x00697250
     758:	79746972 	ldmdbvc	r4!, {r1, r4, r5, r6, r8, fp, sp, lr}^
     75c:	756f7247 	strbvc	r7, [pc, #-583]!	; 51d <GPIOPadConfigGet+0x1d>
     760:	676e6970 			; <UNDEFINED> instruction: 0x676e6970
     764:	00746553 	rsbseq	r6, r4, r3, asr r5
     768:	75705f67 	ldrbvc	r5, [r0, #-3943]!	; 0xfffff099
     76c:	6972506c 	ldmdbvs	r2!, {r2, r3, r5, r6, ip, lr}^
     770:	7469726f 	strbtvc	r7, [r9], #-623	; 0xfffffd91
     774:	5f670079 	svcpl	0x00670079
     778:	456c7570 	strbmi	r7, [ip, #-1392]!	; 0xfffffa90
     77c:	6765526e 	strbvs	r5, [r5, -lr, ror #4]!
     780:	50430073 	subpl	r0, r3, r3, ror r0
     784:	73616255 	cmnvc	r1, #1342177285	; 0x50000005
     788:	69727065 	ldmdbvs	r2!, {r0, r2, r5, r6, ip, sp, lr}^
     78c:	00746547 	rsbseq	r6, r4, r7, asr #10
     790:	62555043 	subsvs	r5, r5, #67	; 0x43
     794:	70657361 	rsbvc	r7, r5, r1, ror #6
     798:	65536972 	ldrbvs	r6, [r3, #-2418]	; 0xfffff68e
     79c:	50430074 	subpl	r0, r3, r4, ror r0
     7a0:	73706355 	cmnvc	r0, #1409286145	; 0x54000001
     7a4:	43006469 	movwmi	r6, #1129	; 0x469
     7a8:	70635550 	rsbvc	r5, r3, r0, asr r5
     7ac:	00656973 	rsbeq	r6, r5, r3, ror r9
     7b0:	65526c75 	ldrbvs	r6, [r2, #-3189]	; 0xfffff38b
     7b4:	6e490074 	mcrvs	0, 2, r0, cr9, cr4, {3}
     7b8:	69725074 	ldmdbvs	r2!, {r2, r4, r5, r6, ip, lr}^
     7bc:	7469726f 	strbtvc	r7, [r9], #-623	; 0xfffffd91
     7c0:	74654779 	strbtvc	r4, [r5], #-1913	; 0xfffff887
     7c4:	426c7500 	rsbmi	r7, ip, #0, 10
     7c8:	00737469 	rsbseq	r7, r3, r9, ror #8
     7cc:	50746e49 	rsbspl	r6, r4, r9, asr #28
     7d0:	43646e65 	cmnmi	r4, #1616	; 0x650
     7d4:	7261656c 	rsbvc	r6, r1, #108, 10	; 0x1b000000
     7d8:	73797300 	cmnvc	r9, #0, 6
     7dc:	2e6c7463 	cdpcs	4, 6, cr7, cr12, cr3, {3}
     7e0:	79530063 	ldmdbvc	r3, {r0, r1, r5, r6}^
     7e4:	6c744373 	ldclvs	3, cr4, [r4], #-460	; 0xfffffe34
     7e8:	69726550 	ldmdbvs	r2!, {r4, r6, r8, sl, sp, lr}^
     7ec:	72656870 	rsbvc	r6, r5, #112, 16	; 0x700000
     7f0:	6f506c61 	svcvs	0x00506c61
     7f4:	4f726577 	svcmi	0x00726577
     7f8:	7953006e 	ldmdbvc	r3, {r1, r2, r3, r5, r6}^
     7fc:	6c744373 	ldclvs	3, cr4, [r4], #-460	; 0xfffffe34
     800:	70656544 	rsbvc	r6, r5, r4, asr #10
     804:	65656c53 	strbvs	r6, [r5, #-3155]!	; 0xfffff3ad
     808:	6f6c4370 	svcvs	0x006c4370
     80c:	65536b63 	ldrbvs	r6, [r3, #-2915]	; 0xfffff49d
     810:	6c750074 	ldclvs	0, cr0, [r5], #-464	; 0xfffffe30
     814:	65657053 	strbvs	r7, [r5, #-83]!	; 0xffffffad
     818:	6c750064 	ldclvs	0, cr0, [r5], #-400	; 0xfffffe70
     81c:	006b6c43 	rsbeq	r6, fp, r3, asr #24
     820:	43737953 	cmnmi	r3, #1359872	; 0x14c000
     824:	65506c74 	ldrbvs	r6, [r0, #-3188]	; 0xfffff38c
     828:	68706972 	ldmdavs	r0!, {r1, r4, r5, r6, r8, fp, sp, lr}^
     82c:	6c617265 	sfmvs	f7, 2, [r1], #-404	; 0xfffffe6c
     830:	5470614d 	ldrbtpl	r6, [r0], #-333	; 0xfffffeb3
     834:	77654e6f 	strbvc	r4, [r5, -pc, ror #28]!
     838:	73795300 	cmnvc	r9, #0, 6
     83c:	536c7443 	cmnpl	ip, #1124073472	; 0x43000000
     840:	534d4152 	movtpl	r4, #53586	; 0xd152
     844:	47657a69 	strbmi	r7, [r5, -r9, ror #20]!
     848:	53007465 	movwpl	r7, #1125	; 0x465
     84c:	74437379 	strbvc	r7, [r3], #-889	; 0xfffffc87
     850:	4253556c 	subsmi	r5, r3, #108, 10	; 0x1b000000
     854:	444c4c50 	strbmi	r4, [ip], #-3152	; 0xfffff3b0
     858:	62617369 	rsbvs	r7, r1, #-1543503871	; 0xa4000001
     85c:	5300656c 	movwpl	r6, #1388	; 0x56c
     860:	74437379 	strbvc	r7, [r3], #-889	; 0xfffffc87
     864:	7265506c 	rsbvc	r5, r5, #108	; 0x6c
     868:	65687069 	strbvs	r7, [r8, #-105]!	; 0xffffff97
     86c:	526c6172 	rsbpl	r6, ip, #-2147483620	; 0x8000001c
     870:	74657365 	strbtvc	r7, [r5], #-869	; 0xfffffc9b
     874:	73795300 	cmnvc	r9, #0, 6
     878:	506c7443 	rsbpl	r7, ip, r3, asr #8
     87c:	70697265 	rsbvc	r7, r9, r5, ror #4
     880:	61726568 	cmnvs	r2, r8, ror #10
     884:	6f6c436c 	svcvs	0x006c436c
     888:	61476b63 	cmpvs	r7, r3, ror #22
     88c:	676e6974 			; <UNDEFINED> instruction: 0x676e6974
     890:	73795300 	cmnvc	r9, #0, 6
     894:	526c7443 	rsbpl	r7, ip, #1124073472	; 0x43000000
     898:	74657365 	strbtvc	r7, [r5], #-869	; 0xfffffc9b
     89c:	73795300 	cmnvc	r9, #0, 6
     8a0:	416c7443 	cmnmi	ip, r3, asr #8
     8a4:	70534344 	subsvc	r4, r3, r4, asr #6
     8a8:	53646565 	cmnpl	r4, #423624704	; 0x19400000
     8ac:	53007465 	movwpl	r7, #1125	; 0x465
     8b0:	74437379 	strbvc	r7, [r3], #-889	; 0xfffffc87
     8b4:	4f444c6c 	svcmi	0x00444c6c
     8b8:	00746553 	rsbseq	r6, r4, r3, asr r5
     8bc:	65446c75 	strbvs	r6, [r4, #-3189]	; 0xfffff38b
     8c0:	0079616c 	rsbseq	r6, r9, ip, ror #2
     8c4:	75705f67 	ldrbvc	r5, [r0, #-3943]!	; 0xfffff099
     8c8:	4743446c 	strbmi	r4, [r3, -ip, ror #8]
     8cc:	67655243 	strbvs	r5, [r5, -r3, asr #4]!
     8d0:	79530073 	ldmdbvc	r3, {r0, r1, r4, r5, r6}^
     8d4:	6c744373 	ldclvs	3, cr4, [r4], #-460	; 0xfffffe34
     8d8:	534f4950 	movtpl	r4, #63824	; 0xf950
     8dc:	6c614343 	stclvs	3, cr4, [r1], #-268	; 0xfffffef4
     8e0:	61726269 	cmnvs	r2, r9, ror #4
     8e4:	75006574 	strvc	r6, [r0, #-1396]	; 0xfffffa8c
     8e8:	646e496c 	strbtvs	r4, [lr], #-2412	; 0xfffff694
     8ec:	75007865 	strvc	r7, [r0, #-2149]	; 0xfffff79b
     8f0:	4343526c 	movtmi	r5, #12908	; 0x326c
     8f4:	73795300 	cmnvc	r9, #0, 6
     8f8:	476c7443 	strbmi	r7, [ip, -r3, asr #8]!
     8fc:	414f4950 	cmpmi	pc, r0, asr r9	; <UNPREDICTABLE>
     900:	6e454248 	cdpvs	2, 4, cr4, cr5, cr8, {2}
     904:	656c6261 	strbvs	r6, [ip, #-609]!	; 0xfffffd9f
     908:	446c7500 	strbtmi	r7, [ip], #-1280	; 0xfffffb00
     90c:	72467669 	subvc	r7, r6, #110100480	; 0x6900000
     910:	53006361 	movwpl	r6, #865	; 0x361
     914:	74437379 	strbvc	r7, [r3], #-889	; 0xfffffc87
     918:	5332496c 	teqpl	r2, #108, 18	; 0x1b0000
     91c:	6b6c434d 	blvs	1b11658 <_etext+0x1b0f8fc>
     920:	00746553 	rsbseq	r6, r4, r3, asr r5
     924:	79536c75 	ldmdbvc	r3, {r0, r2, r4, r5, r6, sl, fp, sp, lr}^
     928:	76694473 			; <UNDEFINED> instruction: 0x76694473
     92c:	506c7500 	rsbpl	r7, ip, r0, lsl #10
     930:	70697265 	rsbvc	r7, r9, r5, ror #4
     934:	61726568 	cmnvs	r2, r8, ror #10
     938:	6c75006c 	ldclvs	0, cr0, [r5], #-432	; 0xfffffe50
     93c:	49766944 	ldmdbmi	r6!, {r2, r6, r8, fp, sp, lr}^
     940:	7500746e 	strvc	r7, [r0, #-1134]	; 0xfffffb92
     944:	706e496c 	rsbvc	r4, lr, ip, ror #18
     948:	6c437475 	cfstrdvs	mvd7, [r3], {117}	; 0x75
     94c:	006b636f 	rsbeq	r6, fp, pc, ror #6
     950:	43737953 	cmnmi	r3, #1359872	; 0x14c000
     954:	6e496c74 	mcrvs	12, 2, r6, cr9, cr4, {3}
     958:	73694474 	cmnvc	r9, #116, 8	; 0x74000000
     95c:	656c6261 	strbvs	r6, [ip, #-609]!	; 0xfffffd9f
     960:	73795300 	cmnvc	r9, #0, 6
     964:	496c7443 	stmdbmi	ip!, {r0, r1, r6, sl, ip, sp, lr}^
     968:	5643534f 	strbpl	r5, [r3], -pc, asr #6
     96c:	66697265 	strbtvs	r7, [r9], -r5, ror #4
     970:	74616369 	strbtvc	r6, [r1], #-873	; 0xfffffc97
     974:	536e6f69 	cmnpl	lr, #420	; 0x1a4
     978:	53007465 	movwpl	r7, #1125	; 0x465
     97c:	74437379 	strbvc	r7, [r3], #-889	; 0xfffffc87
     980:	746e496c 	strbtvc	r4, [lr], #-2412	; 0xfffff694
     984:	61656c43 	cmnvs	r5, r3, asr #24
     988:	50430072 	subpl	r0, r3, r2, ror r0
     98c:	69667755 	stmdbvs	r6!, {r0, r2, r4, r6, r8, r9, sl, ip, sp, lr}^
     990:	705f6700 	subsvc	r6, pc, r0, lsl #14
     994:	43536c75 	cmpmi	r3, #29952	; 0x7500
     998:	65524347 	ldrbvs	r4, [r2, #-839]	; 0xfffffcb9
     99c:	67007367 	strvs	r7, [r0, -r7, ror #6]
     9a0:	7570705f 	ldrbvc	r7, [r0, #-95]!	; 0xffffffa1
     9a4:	7265506c 	rsbvc	r5, r5, #108	; 0x6c
     9a8:	65687069 	strbvs	r7, [r8, #-105]!	; 0xffffff97
     9ac:	4d6c6172 	stfmie	f6, [ip, #-456]!	; 0xfffffe38
     9b0:	75007061 	strvc	r7, [r0, #-97]	; 0xffffff9f
     9b4:	6c434d6c 	mcrrvs	13, 6, r4, r3, cr12
     9b8:	7953006b 	ldmdbvc	r3, {r0, r1, r3, r5, r6}^
     9bc:	6c744373 	ldclvs	3, cr4, [r4], #-460	; 0xfffffe34
     9c0:	53746e49 	cmnpl	r4, #1168	; 0x490
     9c4:	75746174 	ldrbvc	r6, [r4, #-372]!	; 0xfffffe8c
     9c8:	79530073 	ldmdbvc	r3, {r0, r1, r4, r5, r6}^
     9cc:	6c744373 	ldclvs	3, cr4, [r4], #-460	; 0xfffffe34
     9d0:	434d5750 	movtmi	r5, #55120	; 0xd750
     9d4:	6b636f6c 	blvs	18dc78c <_etext+0x18daa30>
     9d8:	00746547 	rsbseq	r6, r4, r7, asr #10
     9dc:	43737953 	cmnmi	r3, #1359872	; 0x14c000
     9e0:	4f4d6c74 	svcmi	0x004d6c74
     9e4:	6f434353 	svcvs	0x00434353
     9e8:	6769666e 	strbvs	r6, [r9, -lr, ror #12]!
     9ec:	00746553 	rsbseq	r6, r4, r3, asr r5
     9f0:	43737953 	cmnmi	r3, #1359872	; 0x14c000
     9f4:	65506c74 	ldrbvs	r6, [r0, #-3188]	; 0xfffff38c
     9f8:	68706972 	ldmdavs	r0!, {r1, r4, r5, r6, r8, fp, sp, lr}^
     9fc:	6c617265 	sfmvs	f7, 2, [r1], #-404	; 0xfffffe6c
     a00:	61736944 	cmnvs	r3, r4, asr #18
     a04:	00656c62 	rsbeq	r6, r5, r2, ror #24
     a08:	43737953 	cmnmi	r3, #1359872	; 0x14c000
     a0c:	65506c74 	ldrbvs	r6, [r0, #-3188]	; 0xfffff38c
     a10:	68706972 	ldmdavs	r0!, {r1, r4, r5, r6, r8, fp, sp, lr}^
     a14:	6c617265 	sfmvs	f7, 2, [r1], #-404	; 0xfffffe6c
     a18:	65656c53 	strbvs	r6, [r5, #-3155]!	; 0xfffff3ad
     a1c:	616e4570 	smcvs	58448	; 0xe450
     a20:	00656c62 	rsbeq	r6, r5, r2, ror #24
     a24:	43737953 	cmnmi	r3, #1359872	; 0x14c000
     a28:	4f4d6c74 	svcmi	0x004d6c74
     a2c:	65564353 	ldrbvs	r4, [r6, #-851]	; 0xfffffcad
     a30:	69666972 	stmdbvs	r6!, {r1, r4, r5, r6, r8, fp, sp, lr}^
     a34:	69746163 	ldmdbvs	r4!, {r0, r1, r5, r6, r8, sp, lr}^
     a38:	65536e6f 	ldrbvs	r6, [r3, #-3695]	; 0xfffff191
     a3c:	79530074 	ldmdbvc	r3, {r2, r4, r5, r6}^
     a40:	6c744373 	ldclvs	3, cr4, [r4], #-460	; 0xfffffe34
     a44:	52746e49 	rsbspl	r6, r4, #1168	; 0x490
     a48:	73696765 	cmnvc	r9, #26476544	; 0x1940000
     a4c:	00726574 	rsbseq	r6, r2, r4, ror r5
     a50:	6f566c75 	svcvs	0x00566c75
     a54:	6761746c 	strbvs	r7, [r1, -ip, ror #8]!
     a58:	79530065 	ldmdbvc	r3, {r0, r2, r5, r6}^
     a5c:	6c744373 	ldclvs	3, cr4, [r4], #-460	; 0xfffffe34
     a60:	53434441 	movtpl	r4, #13377	; 0x3441
     a64:	64656570 	strbtvs	r6, [r5], #-1392	; 0xfffffa90
     a68:	00746547 	rsbseq	r6, r4, r7, asr #10
     a6c:	61436c75 	hvcvs	14021	; 0x36c5
     a70:	73657375 	cmnvc	r5, #-738197503	; 0xd4000001
     a74:	526c7500 	rsbpl	r7, ip, #0, 10
     a78:	00324343 	eorseq	r4, r2, r3, asr #6
     a7c:	43737953 	cmnmi	r3, #1359872	; 0x14c000
     a80:	65446c74 	strbvs	r6, [r4, #-3188]	; 0xfffff38c
     a84:	6c537065 	mrrcvs	0, 6, r7, r3, cr5
     a88:	00706565 	rsbseq	r6, r0, r5, ror #10
     a8c:	43737953 	cmnmi	r3, #1359872	; 0x14c000
     a90:	6c436c74 	mcrrvs	12, 7, r6, r3, cr4
     a94:	7265566b 	rsbvc	r5, r5, #112197632	; 0x6b00000
     a98:	63696669 	cmnvs	r9, #110100480	; 0x6900000
     a9c:	6f697461 	svcvs	0x00697461
     aa0:	656c436e 	strbvs	r4, [ip, #-878]!	; 0xfffffc92
     aa4:	53007261 	movwpl	r7, #609	; 0x261
     aa8:	74437379 	strbvc	r7, [r3], #-889	; 0xfffffc87
     aac:	7265506c 	rsbvc	r5, r5, #108	; 0x6c
     ab0:	65687069 	strbvs	r7, [r8, #-105]!	; 0xffffff97
     ab4:	446c6172 	strbtmi	r6, [ip], #-370	; 0xfffffe8e
     ab8:	53706565 	cmnpl	r0, #423624704	; 0x19400000
     abc:	7065656c 	rsbvc	r6, r5, ip, ror #10
     ac0:	61736944 	cmnvs	r3, r4, asr #18
     ac4:	00656c62 	rsbeq	r6, r5, r2, ror #24
     ac8:	43737953 	cmnmi	r3, #1359872	; 0x14c000
     acc:	444c6c74 	strbmi	r6, [ip], #-3188	; 0xfffff38c
     ad0:	7465474f 	strbtvc	r4, [r5], #-1871	; 0xfffff8b1
     ad4:	4f6c7500 	svcmi	0x006c7500
     ad8:	75006373 	strvc	r6, [r0, #-883]	; 0xfffffc8d
     adc:	746e496c 	strbtvc	r4, [lr], #-2412	; 0xfffff694
     ae0:	79530073 	ldmdbvc	r3, {r0, r1, r4, r5, r6}^
     ae4:	6c744373 	ldclvs	3, cr4, [r4], #-460	; 0xfffffe34
     ae8:	69726550 	ldmdbvs	r2!, {r4, r6, r8, sl, sp, lr}^
     aec:	72656870 	rsbvc	r6, r5, #112, 16	; 0x700000
     af0:	6c536c61 	mrrcvs	12, 6, r6, r3, cr1
     af4:	44706565 	ldrbtmi	r6, [r0], #-1381	; 0xfffffa9b
     af8:	62617369 	rsbvs	r7, r1, #-1543503871	; 0xa4000001
     afc:	5300656c 	movwpl	r6, #1388	; 0x56c
     b00:	74437379 	strbvc	r7, [r3], #-889	; 0xfffffc87
     b04:	746e496c 	strbtvc	r4, [lr], #-2412	; 0xfffff694
     b08:	62616e45 	rsbvs	r6, r1, #1104	; 0x450
     b0c:	5300656c 	movwpl	r6, #1388	; 0x56c
     b10:	74437379 	strbvc	r7, [r3], #-889	; 0xfffffc87
     b14:	6f72426c 	svcvs	0x0072426c
     b18:	754f6e77 	strbvc	r6, [pc, #-3703]	; fffffca9 <_ebss+0xdffff92d>
     b1c:	6e6f4374 	mcrvs	3, 3, r4, cr15, cr4, {3}
     b20:	53676966 	cmnpl	r7, #1671168	; 0x198000
     b24:	53007465 	movwpl	r7, #1125	; 0x465
     b28:	74437379 	strbvc	r7, [r3], #-889	; 0xfffffc87
     b2c:	616c466c 	cmnvs	ip, ip, ror #12
     b30:	69536873 	ldmdbvs	r3, {r0, r1, r4, r5, r6, fp, sp, lr}^
     b34:	6547657a 	strbvs	r6, [r7, #-1402]	; 0xfffffa86
     b38:	6c750074 	ldclvs	0, cr0, [r5], #-464	; 0xfffffe30
     b3c:	5363734f 	cmnpl	r3, #1006632961	; 0x3c000001
     b40:	63656c65 	cmnvs	r5, #25856	; 0x6500
     b44:	79530074 	ldmdbvc	r3, {r2, r4, r5, r6}^
     b48:	6c744373 	ldclvs	3, cr4, [r4], #-460	; 0xfffffe34
     b4c:	50425355 	subpl	r5, r2, r5, asr r3
     b50:	6e454c4c 	cdpvs	12, 4, cr4, cr5, cr12, {2}
     b54:	656c6261 	strbvs	r6, [ip, #-609]!	; 0xfffffd9f
     b58:	654e6200 	strbvs	r6, [lr, #-512]	; 0xfffffe00
     b5c:	4c4c5077 	mcrrmi	0, 7, r5, ip, cr7
     b60:	476c7500 	strbmi	r7, [ip, -r0, lsl #10]!
     b64:	504f4950 	subpl	r4, pc, r0, asr r9	; <UNPREDICTABLE>
     b68:	70697265 	rsbvc	r7, r9, r5, ror #4
     b6c:	61726568 	cmnvs	r2, r8, ror #10
     b70:	7953006c 	ldmdbvc	r3, {r2, r3, r5, r6}^
     b74:	6c744373 	ldclvs	3, cr4, [r4], #-460	; 0xfffffe34
     b78:	69726550 	ldmdbvs	r2!, {r4, r6, r8, sl, sp, lr}^
     b7c:	72656870 	rsbvc	r6, r5, #112, 16	; 0x700000
     b80:	72506c61 	subsvc	r6, r0, #24832	; 0x6100
     b84:	6e657365 	cdpvs	3, 6, cr7, cr5, cr5, {3}
     b88:	79530074 	ldmdbvc	r3, {r2, r4, r5, r6}^
     b8c:	6c744373 	ldclvs	3, cr4, [r4], #-460	; 0xfffffe34
     b90:	55746e49 	ldrbpl	r6, [r4, #-3657]!	; 0xfffff1b7
     b94:	6765726e 	strbvs	r7, [r5, -lr, ror #4]!
     b98:	65747369 	ldrbvs	r7, [r4, #-873]!	; 0xfffffc97
     b9c:	79530072 	ldmdbvc	r3, {r1, r4, r5, r6}^
     ba0:	6c744373 	ldclvs	3, cr4, [r4], #-460	; 0xfffffe34
     ba4:	616c6544 	cmnvs	ip, r4, asr #10
     ba8:	5f670079 	svcpl	0x00670079
     bac:	586c7570 	stmdapl	ip!, {r4, r5, r6, r8, sl, ip, sp, lr}^
     bb0:	736c6174 	cmnvc	ip, #116, 2
     bb4:	705f6700 	subsvc	r6, pc, r0, lsl #14
     bb8:	43446c75 	movtmi	r6, #19573	; 0x4c75
     bbc:	73676552 	cmnvc	r7, #343932928	; 0x14800000
     bc0:	705f6700 	subsvc	r6, pc, r0, lsl #14
     bc4:	52536c75 	subspl	r6, r3, #29952	; 0x7500
     bc8:	65525243 	ldrbvs	r5, [r2, #-579]	; 0xfffffdbd
     bcc:	75007367 	strvc	r7, [r0, #-871]	; 0xfffffc99
     bd0:	6e69506c 	cdpvs	0, 6, cr5, cr9, cr12, {3}
     bd4:	73795300 	cmnvc	r9, #0, 6
     bd8:	526c7443 	rsbpl	r7, ip, #1124073472	; 0x43000000
     bdc:	74657365 	strbtvc	r7, [r5], #-869	; 0xfffffc9b
     be0:	73756143 	cmnvc	r5, #-1073741808	; 0xc0000010
     be4:	656c4365 	strbvs	r4, [ip, #-869]!	; 0xfffffc9b
     be8:	53007261 	movwpl	r7, #609	; 0x261
     bec:	74437379 	strbvc	r7, [r3], #-889	; 0xfffffc87
     bf0:	6e69506c 	cdpvs	0, 6, cr5, cr9, cr12, {3}
     bf4:	73657250 	cmnvc	r5, #80, 4
     bf8:	00746e65 	rsbseq	r6, r4, r5, ror #28
     bfc:	6f436c75 	svcvs	0x00436c75
     c00:	00746e75 	rsbseq	r6, r4, r5, ror lr
     c04:	616e4562 	cmnvs	lr, r2, ror #10
     c08:	00656c62 	rsbeq	r6, r5, r2, ror #24
     c0c:	43737953 	cmnmi	r3, #1359872	; 0x14c000
     c10:	65526c74 	ldrbvs	r6, [r2, #-3188]	; 0xfffff38c
     c14:	43746573 	cmnmi	r4, #482344960	; 0x1cc00000
     c18:	65737561 	ldrbvs	r7, [r3, #-1377]!	; 0xfffffa9f
     c1c:	00746547 	rsbseq	r6, r4, r7, asr #10
     c20:	43737953 	cmnmi	r3, #1359872	; 0x14c000
     c24:	6c536c74 	mrrcvs	12, 7, r6, r3, cr4
     c28:	00706565 	rsbseq	r6, r0, r5, ror #10
     c2c:	4c506c75 	mrrcmi	12, 7, r6, r0, cr5
     c30:	7953004c 	ldmdbvc	r3, {r2, r3, r6}^
     c34:	6c744373 	ldclvs	3, cr4, [r4], #-460	; 0xfffffe34
     c38:	4f495047 	svcmi	0x00495047
     c3c:	44424841 	strbmi	r4, [r2], #-2113	; 0xfffff7bf
     c40:	62617369 	rsbvs	r7, r1, #-1543503871	; 0xa4000001
     c44:	5300656c 	movwpl	r6, #1388	; 0x56c
     c48:	74437379 	strbvc	r7, [r3], #-889	; 0xfffffc87
     c4c:	7265506c 	rsbvc	r5, r5, #108	; 0x6c
     c50:	65687069 	strbvs	r7, [r8, #-105]!	; 0xffffff97
     c54:	526c6172 	rsbpl	r6, ip, #-2147483620	; 0x8000001c
     c58:	79646165 	stmdbvc	r4!, {r0, r2, r5, r6, r8, sp, lr}^
     c5c:	73795300 	cmnvc	r9, #0, 6
     c60:	506c7443 	rsbpl	r7, ip, r3, asr #8
     c64:	70697265 	rsbvc	r7, r9, r5, ror #4
     c68:	61726568 	cmnvs	r2, r8, ror #10
     c6c:	776f506c 	strbvc	r5, [pc, -ip, rrx]!
     c70:	664f7265 	strbvs	r7, [pc], -r5, ror #4
     c74:	6c750066 	ldclvs	0, cr0, [r5], #-408	; 0xfffffe68
     c78:	65707954 	ldrbvs	r7, [r0, #-2388]!	; 0xfffff6ac
     c7c:	73795300 	cmnvc	r9, #0, 6
     c80:	4c6c7443 	cfstrdmi	mvd7, [ip], #-268	; 0xfffffef4
     c84:	6f434f44 	svcvs	0x00434f44
     c88:	6769666e 	strbvs	r6, [r9, -lr, ror #12]!
     c8c:	00746553 	rsbseq	r6, r4, r3, asr r5
     c90:	43737953 	cmnmi	r3, #1359872	; 0x14c000
     c94:	57506c74 			; <UNDEFINED> instruction: 0x57506c74
     c98:	6f6c434d 	svcvs	0x006c434d
     c9c:	65536b63 	ldrbvs	r6, [r3, #-2915]	; 0xfffff49d
     ca0:	79530074 	ldmdbvc	r3, {r2, r4, r5, r6}^
     ca4:	6c744373 	ldclvs	3, cr4, [r4], #-460	; 0xfffffe34
     ca8:	69726550 	ldmdbvs	r2!, {r4, r6, r8, sl, sp, lr}^
     cac:	72656870 	rsbvc	r6, r5, #112, 16	; 0x700000
     cb0:	65446c61 	strbvs	r6, [r4, #-3169]	; 0xfffff39f
     cb4:	6c537065 	mrrcvs	0, 6, r7, r3, cr5
     cb8:	45706565 	ldrbmi	r6, [r0, #-1381]!	; 0xfffffa9b
     cbc:	6c62616e 	stfvse	f6, [r2], #-440	; 0xfffffe48
     cc0:	5f670065 	svcpl	0x00670065
     cc4:	526c7570 	rsbpl	r7, ip, #112, 10	; 0x1c000000
     cc8:	52434743 	subpl	r4, r3, #17563648	; 0x10c0000
     ccc:	00736765 	rsbseq	r6, r3, r5, ror #14
     cd0:	43737953 	cmnmi	r3, #1359872	; 0x14c000
     cd4:	4c506c74 	mrrcmi	12, 7, r6, r0, cr4
     cd8:	7265564c 	rsbvc	r5, r5, #76, 12	; 0x4c00000
     cdc:	63696669 	cmnvs	r9, #110100480	; 0x6900000
     ce0:	6f697461 	svcvs	0x00697461
     ce4:	7465536e 	strbtvc	r5, [r5], #-878	; 0xfffffc92
     ce8:	52415500 	subpl	r5, r1, #0, 10
     cec:	69423954 	stmdbvs	r2, {r2, r4, r6, r8, fp, ip, sp}^
     cf0:	616e4574 	smcvs	58452	; 0xe454
     cf4:	00656c62 	rsbeq	r6, r5, r2, ror #24
     cf8:	54524155 	ldrbpl	r4, [r2], #-341	; 0xfffffeab
     cfc:	62616e45 	rsbvs	r6, r1, #1104	; 0x450
     d00:	5500656c 	strpl	r6, [r0, #-1388]	; 0xfffffa94
     d04:	42545241 	subsmi	r5, r4, #268435460	; 0x10000004
     d08:	6b616572 	blvs	185a2d8 <_etext+0x185857c>
     d0c:	006c7443 	rsbeq	r7, ip, r3, asr #8
     d10:	61566c75 	cmpvs	r6, r5, ror ip
     d14:	4155006c 	cmpmi	r5, ip, rrx
     d18:	6f435452 	svcvs	0x00435452
     d1c:	6769666e 	strbvs	r6, [r9, -lr, ror #12]!
     d20:	45746547 	ldrbmi	r6, [r4, #-1351]!	; 0xfffffab9
     d24:	6c437078 	mcrrvs	0, 7, r7, r3, cr8
     d28:	4155006b 	cmpmi	r5, fp, rrx
     d2c:	42395452 	eorsmi	r5, r9, #1375731712	; 0x52000000
     d30:	69447469 	stmdbvs	r4, {r0, r3, r5, r6, sl, ip, sp, lr}^
     d34:	6c626173 	stfvse	f6, [r2], #-460	; 0xfffffe34
     d38:	41550065 	cmpmi	r5, r5, rrx
     d3c:	6e495452 	mcrvs	4, 2, r5, cr9, cr2, {2}
     d40:	73694474 	cmnvc	r9, #116, 8	; 0x74000000
     d44:	656c6261 	strbvs	r6, [ip, #-609]!	; 0xfffffd9f
     d48:	52415500 	subpl	r5, r1, #0, 10
     d4c:	46494654 			; <UNDEFINED> instruction: 0x46494654
     d50:	76654c4f 	strbtvc	r4, [r5], -pc, asr #24
     d54:	65476c65 	strbvs	r6, [r7, #-3173]	; 0xfffff39b
     d58:	41550074 	cmpmi	r5, r4, ror r0
     d5c:	78525452 	ldmdavc	r2, {r1, r4, r6, sl, ip, lr}^
     d60:	6f727245 	svcvs	0x00727245
     d64:	74654772 	strbtvc	r4, [r5], #-1906	; 0xfffff88e
     d68:	6c757000 	ldclvs	0, cr7, [r5], #-0
     d6c:	654c7852 	strbvs	r7, [ip, #-2130]	; 0xfffff7ae
     d70:	006c6576 	rsbeq	r6, ip, r6, ror r5
     d74:	54524155 	ldrbpl	r4, [r2], #-341	; 0xfffffeab
     d78:	4f464946 	svcmi	0x00464946
     d7c:	61736944 	cmnvs	r3, r4, asr #18
     d80:	00656c62 	rsbeq	r6, r5, r2, ror #24
     d84:	74726175 	ldrbtvc	r6, [r2], #-373	; 0xfffffe8b
     d88:	5500632e 	strpl	r6, [r0, #-814]	; 0xfffffcd2
     d8c:	46545241 	ldrbmi	r5, [r4], -r1, asr #4
     d90:	43776f6c 	cmnmi	r7, #108, 30	; 0x1b0
     d94:	72746e6f 	rsbsvc	r6, r4, #1776	; 0x6f0
     d98:	65536c6f 	ldrbvs	r6, [r3, #-3183]	; 0xfffff391
     d9c:	75700074 	ldrbvc	r0, [r0, #-116]!	; 0xffffff8c
     da0:	4c78546c 	cfldrdmi	mvd5, [r8], #-432	; 0xfffffe50
     da4:	6c657665 	stclvs	6, cr7, [r5], #-404	; 0xfffffe6c
     da8:	6f4c6200 	svcvs	0x004c6200
     dac:	776f5077 			; <UNDEFINED> instruction: 0x776f5077
     db0:	75007265 	strvc	r7, [r0, #-613]	; 0xfffffd9b
     db4:	74614463 	strbtvc	r4, [r1], #-1123	; 0xfffffb9d
     db8:	6c750061 	ldclvs	0, cr0, [r5], #-388	; 0xfffffe7c
     dbc:	00766944 	rsbseq	r6, r6, r4, asr #18
     dc0:	54524155 	ldrbpl	r4, [r2], #-341	; 0xfffffeab
     dc4:	62616e45 	rsbvs	r6, r1, #1104	; 0x450
     dc8:	4953656c 	ldmdbmi	r3, {r2, r3, r5, r6, r8, sl, sp, lr}^
     dcc:	63750052 	cmnvs	r5, #82	; 0x52
     dd0:	72646441 	rsbvc	r6, r4, #1090519040	; 0x41000000
     dd4:	52415500 	subpl	r5, r1, #0, 10
     dd8:	72615054 	rsbvc	r5, r1, #84	; 0x54
     ddc:	4d797469 	cfldrdmi	mvd7, [r9, #-420]!	; 0xfffffe5c
     de0:	4765646f 	strbmi	r6, [r5, -pc, ror #8]!
     de4:	55007465 	strpl	r7, [r0, #-1125]	; 0xfffffb9b
     de8:	39545241 	ldmdbcc	r4, {r0, r6, r9, ip, lr}^
     dec:	41746942 	cmnmi	r4, r2, asr #18
     df0:	53726464 	cmnpl	r2, #100, 8	; 0x64000000
     df4:	75007465 	strvc	r7, [r0, #-1125]	; 0xfffffb9b
     df8:	6e6f436c 	cdpvs	3, 6, cr4, cr15, cr12, {3}
     dfc:	6c6f7274 	sfmvs	f7, 2, [pc], #-464	; c34 <SysCtlPeripheralReady+0x3c>
     e00:	52415500 	subpl	r5, r1, #0, 10
     e04:	72615054 	rsbvc	r5, r1, #84	; 0x54
     e08:	4d797469 	cfldrdmi	mvd7, [r9, #-420]!	; 0xfffffe5c
     e0c:	5365646f 	cmnpl	r5, #1862270976	; 0x6f000000
     e10:	55007465 	strpl	r7, [r0, #-1125]	; 0xfffffb9b
     e14:	44545241 	ldrbmi	r5, [r4], #-577	; 0xfffffdbf
     e18:	6e45414d 	dvfvssm	f4, f5, #5.0
     e1c:	656c6261 	strbvs	r6, [ip, #-609]!	; 0xfffffd9f
     e20:	466c7500 	strbtmi	r7, [ip], -r0, lsl #10
     e24:	00636172 	rsbeq	r6, r3, r2, ror r1
     e28:	54524155 	ldrbpl	r4, [r2], #-341	; 0xfffffeab
     e2c:	72616d53 	rsbvc	r6, r1, #5312	; 0x14c0
     e30:	72614374 	rsbvc	r4, r1, #116, 6	; 0xd0000001
     e34:	616e4564 	cmnvs	lr, r4, ror #10
     e38:	00656c62 	rsbeq	r6, r5, r2, ror #24
     e3c:	6e496c75 	mcrvs	12, 2, r6, cr9, cr5, {3}
     e40:	616c4674 	smcvs	50276	; 0xc464
     e44:	55007367 	strpl	r7, [r0, #-871]	; 0xfffffc99
     e48:	4d545241 	lfmmi	f5, 2, [r4, #-260]	; 0xfffffefc
     e4c:	6d65646f 	cfstrdvs	mvd6, [r5, #-444]!	; 0xfffffe44
     e50:	746e6f43 	strbtvc	r6, [lr], #-3907	; 0xfffff0bd
     e54:	536c6f72 	cmnpl	ip, #456	; 0x1c8
     e58:	55007465 	strpl	r7, [r0, #-1125]	; 0xfffffb9b
     e5c:	54545241 	ldrbpl	r5, [r4], #-577	; 0xfffffdbf
     e60:	746e4978 	strbtvc	r4, [lr], #-2424	; 0xfffff688
     e64:	65646f4d 	strbvs	r6, [r4, #-3917]!	; 0xfffff0b3
     e68:	00746547 	rsbseq	r6, r4, r7, asr #10
     e6c:	4d446c75 	stclmi	12, cr6, [r4, #-468]	; 0xfffffe2c
     e70:	616c4641 	cmnvs	ip, r1, asr #12
     e74:	55007367 	strpl	r7, [r0, #-871]	; 0xfffffc99
     e78:	53545241 	cmppl	r4, #268435460	; 0x10000004
     e7c:	7472616d 	ldrbtvc	r6, [r2], #-365	; 0xfffffe93
     e80:	64726143 	ldrbtvs	r6, [r2], #-323	; 0xfffffebd
     e84:	61736944 	cmnvs	r3, r4, asr #18
     e88:	00656c62 	rsbeq	r6, r5, r2, ror #24
     e8c:	54524155 	ldrbpl	r4, [r2], #-341	; 0xfffffeab
     e90:	65646f4d 	strbvs	r6, [r4, #-3917]!	; 0xfffff0b3
     e94:	6174536d 	cmnvs	r4, sp, ror #6
     e98:	47737574 			; <UNDEFINED> instruction: 0x47737574
     e9c:	55007465 	strpl	r7, [r0, #-1125]	; 0xfffffb9b
     ea0:	43545241 	cmpmi	r4, #268435460	; 0x10000004
     ea4:	50726168 	rsbspl	r6, r2, r8, ror #2
     ea8:	6f4e7475 	svcvs	0x004e7475
     eac:	6f6c426e 	svcvs	0x006c426e
     eb0:	6e696b63 	vnmulvs.f64	d22, d9, d19
     eb4:	41550067 	cmpmi	r5, r7, rrx
     eb8:	6c435452 	cfstrdvs	mvd5, [r3], {82}	; 0x52
     ebc:	536b636f 	cmnpl	fp, #-1140850687	; 0xbc000001
     ec0:	6372756f 	cmnvs	r2, #465567744	; 0x1bc00000
     ec4:	74654765 	strbtvc	r4, [r5], #-1893	; 0xfffff89b
     ec8:	4c6c7500 	cfstr64mi	mvdx7, [ip], #-0
     ecc:	00485243 	subeq	r5, r8, r3, asr #4
     ed0:	54524155 	ldrbpl	r4, [r2], #-341	; 0xfffffeab
     ed4:	65646f4d 	strbvs	r6, [r4, #-3917]!	; 0xfffff0b3
     ed8:	6e6f436d 	cdpvs	3, 6, cr4, cr15, cr13, {3}
     edc:	6c6f7274 	sfmvs	f7, 2, [pc], #-464	; d14 <SysCtlPeripheralReset+0x38>
     ee0:	61656c43 	cmnvs	r5, r3, asr #24
     ee4:	75700072 	ldrbvc	r0, [r0, #-114]!	; 0xffffff8e
     ee8:	7561426c 	strbvc	r4, [r1, #-620]!	; 0xfffffd94
     eec:	6c750064 	ldclvs	0, cr0, [r5], #-400	; 0xfffffe70
     ef0:	54524155 	ldrbpl	r4, [r2], #-341	; 0xfffffeab
     ef4:	006b6c43 	rsbeq	r6, fp, r3, asr #24
     ef8:	54524155 	ldrbpl	r4, [r2], #-341	; 0xfffffeab
     efc:	61736944 	cmnvs	r3, r4, asr #18
     f00:	53656c62 	cmnpl	r5, #25088	; 0x6200
     f04:	55005249 	strpl	r5, [r0, #-585]	; 0xfffffdb7
     f08:	43545241 	cmpmi	r4, #268435460	; 0x10000004
     f0c:	73726168 	cmnvc	r2, #104, 2
     f10:	69617641 	stmdbvs	r1!, {r0, r6, r9, sl, ip, sp, lr}^
     f14:	4155006c 	cmpmi	r5, ip, rrx
     f18:	78545452 	ldmdavc	r4, {r1, r4, r6, sl, ip, lr}^
     f1c:	4d746e49 	ldclmi	14, cr6, [r4, #-292]!	; 0xfffffedc
     f20:	5365646f 	cmnpl	r5, #1862270976	; 0x6f000000
     f24:	55007465 	strpl	r7, [r0, #-1125]	; 0xfffffb9b
     f28:	49545241 	ldmdbmi	r4, {r0, r6, r9, ip, lr}^
     f2c:	754e746e 	strbvc	r7, [lr, #-1134]	; 0xfffffb92
     f30:	7265626d 	rsbvc	r6, r5, #-805306362	; 0xd0000006
     f34:	00746547 	rsbseq	r6, r4, r7, asr #10
     f38:	54524155 	ldrbpl	r4, [r2], #-341	; 0xfffffeab
     f3c:	65646f4d 	strbvs	r6, [r4, #-3917]!	; 0xfffff0b3
     f40:	6e6f436d 	cdpvs	3, 6, cr4, cr15, cr13, {3}
     f44:	6c6f7274 	sfmvs	f7, 2, [pc], #-464	; d7c <SysCtlPeripheralEnable+0x14>
     f48:	00746547 	rsbseq	r6, r4, r7, asr #10
     f4c:	614d6375 	hvcvs	54837	; 0xd635
     f50:	55006b73 	strpl	r6, [r0, #-2931]	; 0xfffff48d
     f54:	39545241 	ldmdbcc	r4, {r0, r6, r9, ip, lr}^
     f58:	41746942 	cmnmi	r4, r2, asr #18
     f5c:	53726464 	cmnpl	r2, #100, 8	; 0x64000000
     f60:	00646e65 	rsbeq	r6, r4, r5, ror #28
     f64:	54524155 	ldrbpl	r4, [r2], #-341	; 0xfffffeab
     f68:	53746e49 	cmnpl	r4, #1168	; 0x490
     f6c:	75746174 	ldrbvc	r6, [r4, #-372]!	; 0xfffffe8c
     f70:	6c750073 	ldclvs	0, cr0, [r5], #-460	; 0xfffffe34
     f74:	69726150 	ldmdbvs	r2!, {r4, r6, r8, sp, lr}^
     f78:	75007974 	strvc	r7, [r0, #-2420]	; 0xfffff68c
     f7c:	756f536c 	strbvc	r5, [pc, #-876]!	; c18 <SysCtlPeripheralReady+0x20>
     f80:	00656372 	rsbeq	r6, r5, r2, ror r3
     f84:	54524155 	ldrbpl	r4, [r2], #-341	; 0xfffffeab
     f88:	44414d44 	strbmi	r4, [r1], #-3396	; 0xfffff2bc
     f8c:	62617369 	rsbvs	r7, r1, #-1543503871	; 0xa4000001
     f90:	5500656c 	strpl	r6, [r0, #-1388]	; 0xfffffa94
     f94:	43545241 	cmpmi	r4, #268435460	; 0x10000004
     f98:	6b636f6c 	blvs	18dcd50 <_etext+0x18daff4>
     f9c:	72756f53 	rsbsvc	r6, r5, #332	; 0x14c
     fa0:	65536563 	ldrbvs	r6, [r3, #-1379]	; 0xfffffa9d
     fa4:	41550074 	cmpmi	r5, r4, ror r0
     fa8:	78525452 	ldmdavc	r2, {r1, r4, r6, sl, ip, lr}^
     fac:	6f727245 	svcvs	0x00727245
     fb0:	656c4372 	strbvs	r4, [ip, #-882]!	; 0xfffffc8e
     fb4:	55007261 	strpl	r7, [r0, #-609]	; 0xfffffd9f
     fb8:	46545241 	ldrbmi	r5, [r4], -r1, asr #4
     fbc:	454f4649 	strbmi	r4, [pc, #-1609]	; 97b <IntEnable+0x17>
     fc0:	6c62616e 	stfvse	f6, [r2], #-440	; 0xfffffe48
     fc4:	41550065 	cmpmi	r5, r5, rrx
     fc8:	6e495452 	mcrvs	4, 2, r5, cr9, cr2, {2}
     fcc:	726e5574 	rsbvc	r5, lr, #116, 10	; 0x1d000000
     fd0:	73696765 	cmnvc	r9, #26476544	; 0x1940000
     fd4:	00726574 	rsbseq	r6, r2, r4, ror r5
     fd8:	6f4d6c75 	svcvs	0x004d6c75
     fdc:	75006564 	strvc	r6, [r0, #-1380]	; 0xfffffa9c
     fe0:	746e496c 	strbtvc	r4, [lr], #-2412	; 0xfffff694
     fe4:	6c757000 	ldclvs	0, cr7, [r5], #-0
     fe8:	666e6f43 	strbtvs	r6, [lr], -r3, asr #30
     fec:	55006769 	strpl	r6, [r0, #-1897]	; 0xfffff897
     ff0:	49545241 	ldmdbmi	r4, {r0, r6, r9, ip, lr}^
     ff4:	6e45746e 	cdpvs	4, 4, cr7, cr5, cr14, {3}
     ff8:	656c6261 	strbvs	r6, [ip, #-609]!	; 0xfffffd9f
     ffc:	52415500 	subpl	r5, r1, #0, 10
    1000:	746e4954 	strbtvc	r4, [lr], #-2388	; 0xfffff6ac
    1004:	61656c43 	cmnvs	r5, r3, asr #24
    1008:	41550072 	cmpmi	r5, r2, ror r0
    100c:	68435452 	stmdavs	r3, {r1, r4, r6, sl, ip, lr}^
    1010:	65477261 	strbvs	r7, [r7, #-609]	; 0xfffffd9f
    1014:	6e6f4e74 	mcrvs	14, 3, r4, cr15, cr4, {3}
    1018:	636f6c42 	cmnvs	pc, #16896	; 0x4200
    101c:	676e696b 	strbvs	r6, [lr, -fp, ror #18]!
    1020:	705f6700 	subsvc	r6, pc, r0, lsl #14
    1024:	556c7570 	strbpl	r7, [ip, #-1392]!	; 0xfffffa90
    1028:	49545241 	ldmdbmi	r4, {r0, r6, r9, ip, lr}^
    102c:	614d746e 	cmpvs	sp, lr, ror #8
    1030:	42620070 	rsbmi	r0, r2, #112	; 0x70
    1034:	6b616572 	blvs	185a604 <_etext+0x18588a8>
    1038:	74617453 	strbtvc	r7, [r1], #-1107	; 0xfffffbad
    103c:	41550065 	cmpmi	r5, r5, rrx
    1040:	75425452 	strbvc	r5, [r2, #-1106]	; 0xfffffbae
    1044:	55007973 	strpl	r7, [r0, #-2419]	; 0xfffff68d
    1048:	46545241 	ldrbmi	r5, [r4], -r1, asr #4
    104c:	4c4f4649 	mcrrmi	6, 4, r4, pc, cr9
    1050:	6c657665 	stclvs	6, cr7, [r5], #-404	; 0xfffffe6c
    1054:	00746553 	rsbseq	r6, r4, r3, asr r5
    1058:	54524155 	ldrbpl	r4, [r2], #-341	; 0xfffffeab
    105c:	52746e49 	rsbspl	r6, r4, #1168	; 0x490
    1060:	73696765 	cmnvc	r9, #26476544	; 0x1940000
    1064:	00726574 	rsbseq	r6, r2, r4, ror r5
    1068:	54524155 	ldrbpl	r4, [r2], #-341	; 0xfffffeab
    106c:	61736944 	cmnvs	r3, r4, asr #18
    1070:	00656c62 	rsbeq	r6, r5, r2, ror #24
    1074:	54524155 	ldrbpl	r4, [r2], #-341	; 0xfffffeab
    1078:	63617053 	cmnvs	r1, #83	; 0x53
    107c:	61764165 	cmnvs	r6, r5, ror #2
    1080:	55006c69 	strpl	r6, [r0, #-3177]	; 0xfffff397
    1084:	46545241 	ldrbmi	r5, [r4], -r1, asr #4
    1088:	43776f6c 	cmnmi	r7, #108, 30	; 0x1b0
    108c:	72746e6f 	rsbsvc	r6, r4, #1776	; 0x6f0
    1090:	65476c6f 	strbvs	r6, [r7, #-3183]	; 0xfffff391
    1094:	6c750074 	ldclvs	0, cr0, [r5], #-464	; 0xfffffe30
    1098:	4277654e 	rsbsmi	r6, r7, #327155712	; 0x13800000
    109c:	70657361 	rsbvc	r7, r5, r1, ror #6
    10a0:	43006972 	movwmi	r6, #2418	; 0x972
    10a4:	72705550 	rsbsvc	r5, r0, #80, 10	; 0x14000000
    10a8:	73616d69 	cmnvc	r1, #6720	; 0x1a40
    10ac:	7063006b 	rsbvc	r0, r3, fp, rrx
    10b0:	00632e75 	rsbeq	r2, r3, r5, ror lr

Disassembly of section .comment:

00000000 <.comment>:
   0:	3a434347 	bcc	10d0d24 <_etext+0x10cefc8>
   4:	4e472820 	cdpmi	8, 4, cr2, cr7, cr0, {1}
   8:	72412055 	subvc	r2, r1, #85	; 0x55
   c:	6d45206d 	stclvs	0, cr2, [r5, #-436]	; 0xfffffe4c
  10:	64646562 	strbtvs	r6, [r4], #-1378	; 0xfffffa9e
  14:	54206465 	strtpl	r6, [r0], #-1125	; 0xfffffb9b
  18:	636c6f6f 	cmnvs	ip, #444	; 0x1bc
  1c:	6e696168 	powvsez	f6, f1, #0.0
  20:	322d3920 	eorcc	r3, sp, #32, 18	; 0x80000
  24:	2d303230 	lfmcs	f3, 4, [r0, #-192]!	; 0xffffff40
  28:	752d3271 	strvc	r3, [sp, #-625]!	; 0xfffffd8f
  2c:	74616470 	strbtvc	r6, [r1], #-1136	; 0xfffffb90
  30:	39202965 	stmdbcc	r0!, {r0, r2, r5, r6, r8, fp, sp}
  34:	312e332e 			; <UNDEFINED> instruction: 0x312e332e
  38:	32303220 	eorscc	r3, r0, #32, 4
  3c:	30343030 	eorscc	r3, r4, r0, lsr r0
  40:	72282038 	eorvc	r2, r8, #56	; 0x38
  44:	61656c65 	cmnvs	r5, r5, ror #24
  48:	00296573 	eoreq	r6, r9, r3, ror r5

Disassembly of section .ARM.attributes:

00000000 <.ARM.attributes>:
   0:	00003141 	andeq	r3, r0, r1, asr #2
   4:	61656100 	cmnvs	r5, r0, lsl #2
   8:	01006962 	tsteq	r0, r2, ror #18
   c:	00000027 	andeq	r0, r0, r7, lsr #32
  10:	2d453705 	stclcs	7, cr3, [r5, #-20]	; 0xffffffec
  14:	0d06004d 	stceq	0, cr0, [r6, #-308]	; 0xfffffecc
  18:	02094d07 	andeq	r4, r9, #448	; 0x1c0
  1c:	0412060a 	ldreq	r0, [r2], #-1546	; 0xfffff9f6
  20:	01150114 	tsteq	r5, r4, lsl r1
  24:	01180317 	tsteq	r8, r7, lsl r3
  28:	011a0119 	tsteq	sl, r9, lsl r1
  2c:	021e011c 	andseq	r0, lr, #28, 2
  30:	Address 0x00000030 is out of bounds.


Disassembly of section .debug_frame:

00000000 <.debug_frame>:
   0:	0000000c 	andeq	r0, r0, ip
   4:	ffffffff 			; <UNDEFINED> instruction: 0xffffffff
   8:	7c020001 	stcvc	0, cr0, [r2], {1}
   c:	000d0c0e 	andeq	r0, sp, lr, lsl #24
  10:	0000000c 	andeq	r0, r0, ip
  14:	00000000 	andeq	r0, r0, r0
  18:	0000011c 	andeq	r0, r0, ip, lsl r1
  1c:	00000002 	andeq	r0, r0, r2
  20:	0000000c 	andeq	r0, r0, ip
  24:	00000000 	andeq	r0, r0, r0
  28:	00000120 	andeq	r0, r0, r0, lsr #2
  2c:	00000002 	andeq	r0, r0, r2
  30:	0000000c 	andeq	r0, r0, ip
  34:	00000000 	andeq	r0, r0, r0
  38:	00000124 	andeq	r0, r0, r4, lsr #2
  3c:	00000002 	andeq	r0, r0, r2
  40:	00000018 	andeq	r0, r0, r8, lsl r0
  44:	00000000 	andeq	r0, r0, r0
  48:	00000128 	andeq	r0, r0, r8, lsr #2
  4c:	00000050 	andeq	r0, r0, r0, asr r0
  50:	83080e44 	movwhi	r0, #36420	; 0x8e44
  54:	5b018e02 	blpl	63864 <_etext+0x61b08>
  58:	000ec3ce 	andeq	ip, lr, lr, asr #7
  5c:	0000000c 	andeq	r0, r0, ip
  60:	ffffffff 			; <UNDEFINED> instruction: 0xffffffff
  64:	7c020001 	stcvc	0, cr0, [r2], {1}
  68:	000d0c0e 	andeq	r0, sp, lr, lsl #24
  6c:	0000000c 	andeq	r0, r0, ip
  70:	0000005c 	andeq	r0, r0, ip, asr r0
  74:	00000180 	andeq	r0, r0, r0, lsl #3
  78:	00000010 	andeq	r0, r0, r0, lsl r0
  7c:	00000024 	andeq	r0, r0, r4, lsr #32
  80:	0000005c 	andeq	r0, r0, ip, asr r0
  84:	00000194 	muleq	r0, r4, r1
  88:	0000009c 	muleq	r0, ip, r0
  8c:	840c0e41 	strhi	r0, [ip], #-3649	; 0xfffff1bf
  90:	8e028503 	cfsh32hi	mvfx8, mvfx2, #3
  94:	140e4201 	strne	r4, [lr], #-513	; 0xfffffdff
  98:	05055005 	streq	r5, [r5, #-5]
  9c:	0e450451 	mcreq	4, 2, r0, cr5, cr1, {2}
  a0:	00000020 	andeq	r0, r0, r0, lsr #32
  a4:	0000000c 	andeq	r0, r0, ip
  a8:	ffffffff 			; <UNDEFINED> instruction: 0xffffffff
  ac:	7c020001 	stcvc	0, cr0, [r2], {1}
  b0:	000d0c0e 	andeq	r0, sp, lr, lsl #24
  b4:	0000000c 	andeq	r0, r0, ip
  b8:	000000a4 	andeq	r0, r0, r4, lsr #1
  bc:	00000230 	andeq	r0, r0, r0, lsr r2
  c0:	00000140 	andeq	r0, r0, r0, asr #2
  c4:	00000018 	andeq	r0, r0, r8, lsl r0
  c8:	000000a4 	andeq	r0, r0, r4, lsr #1
  cc:	00000370 	andeq	r0, r0, r0, ror r3
  d0:	00000030 	andeq	r0, r0, r0, lsr r0
  d4:	84040e43 	strhi	r0, [r4], #-3651	; 0xfffff1bd
  d8:	0ec44c01 	cdpeq	12, 12, cr4, cr4, cr1, {0}
  dc:	00000000 	andeq	r0, r0, r0
  e0:	0000000c 	andeq	r0, r0, ip
  e4:	000000a4 	andeq	r0, r0, r4, lsr #1
  e8:	000003a0 	andeq	r0, r0, r0, lsr #7
  ec:	00000022 	andeq	r0, r0, r2, lsr #32
  f0:	00000018 	andeq	r0, r0, r8, lsl r0
  f4:	000000a4 	andeq	r0, r0, r4, lsr #1
  f8:	000003c4 	andeq	r0, r0, r4, asr #7
  fc:	00000044 	andeq	r0, r0, r4, asr #32
 100:	84040e43 	strhi	r0, [r4], #-3651	; 0xfffff1bd
 104:	0ec45601 	cdpeq	6, 12, cr5, cr4, cr1, {0}
 108:	00000000 	andeq	r0, r0, r0
 10c:	00000018 	andeq	r0, r0, r8, lsl r0
 110:	000000a4 	andeq	r0, r0, r4, lsr #1
 114:	00000408 	andeq	r0, r0, r8, lsl #8
 118:	00000034 	andeq	r0, r0, r4, lsr r0
 11c:	84040e42 	strhi	r0, [r4], #-3650	; 0xfffff1be
 120:	0ec45701 	cdpeq	7, 12, cr5, cr4, cr1, {0}
 124:	00000000 	andeq	r0, r0, r0
 128:	00000028 	andeq	r0, r0, r8, lsr #32
 12c:	000000a4 	andeq	r0, r0, r4, lsr #1
 130:	0000043c 	andeq	r0, r0, ip, lsr r4
 134:	000000c4 	andeq	r0, r0, r4, asr #1
 138:	840c0e41 	strhi	r0, [ip], #-3649	; 0xfffff1bf
 13c:	86028503 	strhi	r8, [r2], -r3, lsl #10
 140:	0a510201 	beq	144094c <_etext+0x143ebf0>
 144:	0ec4c5c6 	cdpeq	5, 12, cr12, cr4, cr6, {6}
 148:	4d0b4100 	stfmis	f4, [fp, #-0]
 14c:	0ec4c5c6 	cdpeq	5, 12, cr12, cr4, cr6, {6}
 150:	00000000 	andeq	r0, r0, r0
 154:	00000018 	andeq	r0, r0, r8, lsl r0
 158:	000000a4 	andeq	r0, r0, r4, lsr #1
 15c:	00000500 	andeq	r0, r0, r0, lsl #10
 160:	00000072 	andeq	r0, r0, r2, ror r0
 164:	84080e41 	strhi	r0, [r8], #-3649	; 0xfffff1bf
 168:	76018502 	strvc	r8, [r1], -r2, lsl #10
 16c:	000ec4c5 	andeq	ip, lr, r5, asr #9
 170:	0000000c 	andeq	r0, r0, ip
 174:	000000a4 	andeq	r0, r0, r4, lsr #1
 178:	00000574 	andeq	r0, r0, r4, ror r5
 17c:	0000000c 	andeq	r0, r0, ip
 180:	0000000c 	andeq	r0, r0, ip
 184:	000000a4 	andeq	r0, r0, r4, lsr #1
 188:	00000580 	andeq	r0, r0, r0, lsl #11
 18c:	0000000e 	andeq	r0, r0, lr
 190:	0000000c 	andeq	r0, r0, ip
 194:	000000a4 	andeq	r0, r0, r4, lsr #1
 198:	00000590 	muleq	r0, r0, r5
 19c:	0000000e 	andeq	r0, r0, lr
 1a0:	0000000c 	andeq	r0, r0, ip
 1a4:	000000a4 	andeq	r0, r0, r4, lsr #1
 1a8:	000005a0 	andeq	r0, r0, r0, lsr #11
 1ac:	00000006 	andeq	r0, r0, r6
 1b0:	00000018 	andeq	r0, r0, r8, lsl r0
 1b4:	000000a4 	andeq	r0, r0, r4, lsr #1
 1b8:	000005a8 	andeq	r0, r0, r8, lsr #11
 1bc:	00000016 	andeq	r0, r0, r6, lsl r0
 1c0:	84080e41 	strhi	r0, [r8], #-3649	; 0xfffff1bf
 1c4:	48018e02 	stmdami	r1, {r1, r9, sl, fp, pc}
 1c8:	000ec4ce 	andeq	ip, lr, lr, asr #9
 1cc:	00000018 	andeq	r0, r0, r8, lsl r0
 1d0:	000000a4 	andeq	r0, r0, r4, lsr #1
 1d4:	000005c0 	andeq	r0, r0, r0, asr #11
 1d8:	00000016 	andeq	r0, r0, r6, lsl r0
 1dc:	84080e41 	strhi	r0, [r8], #-3649	; 0xfffff1bf
 1e0:	48018e02 	stmdami	r1, {r1, r9, sl, fp, pc}
 1e4:	000ec4ce 	andeq	ip, lr, lr, asr #9
 1e8:	0000000c 	andeq	r0, r0, ip
 1ec:	000000a4 	andeq	r0, r0, r4, lsr #1
 1f0:	000005d8 	ldrdeq	r0, [r0], -r8
 1f4:	00000006 	andeq	r0, r0, r6
 1f8:	0000000c 	andeq	r0, r0, ip
 1fc:	000000a4 	andeq	r0, r0, r4, lsr #1
 200:	000005e0 	andeq	r0, r0, r0, ror #11
 204:	00000006 	andeq	r0, r0, r6
 208:	00000018 	andeq	r0, r0, r8, lsl r0
 20c:	000000a4 	andeq	r0, r0, r4, lsr #1
 210:	000005e8 	andeq	r0, r0, r8, ror #11
 214:	00000026 	andeq	r0, r0, r6, lsr #32
 218:	84040e41 	strhi	r0, [r4], #-3649	; 0xfffff1bf
 21c:	0ec44a01 	vdiveq.f32	s9, s8, s2
 220:	00000000 	andeq	r0, r0, r0
 224:	00000018 	andeq	r0, r0, r8, lsl r0
 228:	000000a4 	andeq	r0, r0, r4, lsr #1
 22c:	00000610 	andeq	r0, r0, r0, lsl r6
 230:	00000026 	andeq	r0, r0, r6, lsr #32
 234:	84040e41 	strhi	r0, [r4], #-3649	; 0xfffff1bf
 238:	0ec44e01 	cdpeq	14, 12, cr4, cr4, cr1, {0}
 23c:	00000000 	andeq	r0, r0, r0
 240:	0000000c 	andeq	r0, r0, ip
 244:	000000a4 	andeq	r0, r0, r4, lsr #1
 248:	00000638 	andeq	r0, r0, r8, lsr r6
 24c:	00000004 	andeq	r0, r0, r4
 250:	0000000c 	andeq	r0, r0, ip
 254:	000000a4 	andeq	r0, r0, r4, lsr #1
 258:	0000063c 	andeq	r0, r0, ip, lsr r6
 25c:	00000004 	andeq	r0, r0, r4
 260:	0000000c 	andeq	r0, r0, ip
 264:	000000a4 	andeq	r0, r0, r4, lsr #1
 268:	00000640 	andeq	r0, r0, r0, asr #12
 26c:	00000004 	andeq	r0, r0, r4
 270:	0000000c 	andeq	r0, r0, ip
 274:	000000a4 	andeq	r0, r0, r4, lsr #1
 278:	00000644 	andeq	r0, r0, r4, asr #12
 27c:	00000004 	andeq	r0, r0, r4
 280:	00000018 	andeq	r0, r0, r8, lsl r0
 284:	000000a4 	andeq	r0, r0, r4, lsr #1
 288:	00000648 	andeq	r0, r0, r8, asr #12
 28c:	00000026 	andeq	r0, r0, r6, lsr #32
 290:	84040e41 	strhi	r0, [r4], #-3649	; 0xfffff1bf
 294:	0ec44e01 	cdpeq	14, 12, cr4, cr4, cr1, {0}
 298:	00000000 	andeq	r0, r0, r0
 29c:	00000018 	andeq	r0, r0, r8, lsl r0
 2a0:	000000a4 	andeq	r0, r0, r4, lsr #1
 2a4:	00000670 	andeq	r0, r0, r0, ror r6
 2a8:	00000026 	andeq	r0, r0, r6, lsr #32
 2ac:	84040e41 	strhi	r0, [r4], #-3649	; 0xfffff1bf
 2b0:	0ec44a01 	vdiveq.f32	s9, s8, s2
 2b4:	00000000 	andeq	r0, r0, r0
 2b8:	00000018 	andeq	r0, r0, r8, lsl r0
 2bc:	000000a4 	andeq	r0, r0, r4, lsr #1
 2c0:	00000698 	muleq	r0, r8, r6
 2c4:	00000026 	andeq	r0, r0, r6, lsr #32
 2c8:	83100e41 	tsthi	r0, #1040	; 0x410
 2cc:	85038404 	strhi	r8, [r3, #-1028]	; 0xfffffbfc
 2d0:	00018e02 	andeq	r8, r1, r2, lsl #28
 2d4:	00000018 	andeq	r0, r0, r8, lsl r0
 2d8:	000000a4 	andeq	r0, r0, r4, lsr #1
 2dc:	000006c0 	andeq	r0, r0, r0, asr #13
 2e0:	00000026 	andeq	r0, r0, r6, lsr #32
 2e4:	83100e41 	tsthi	r0, #1040	; 0x410
 2e8:	85038404 	strhi	r8, [r3, #-1028]	; 0xfffffbfc
 2ec:	00018e02 	andeq	r8, r1, r2, lsl #28
 2f0:	00000018 	andeq	r0, r0, r8, lsl r0
 2f4:	000000a4 	andeq	r0, r0, r4, lsr #1
 2f8:	000006e8 	andeq	r0, r0, r8, ror #13
 2fc:	00000026 	andeq	r0, r0, r6, lsr #32
 300:	84040e41 	strhi	r0, [r4], #-3649	; 0xfffff1bf
 304:	0ec44e01 	cdpeq	14, 12, cr4, cr4, cr1, {0}
 308:	00000000 	andeq	r0, r0, r0
 30c:	00000028 	andeq	r0, r0, r8, lsr #32
 310:	000000a4 	andeq	r0, r0, r4, lsr #1
 314:	00000710 	andeq	r0, r0, r0, lsl r7
 318:	00000088 	andeq	r0, r0, r8, lsl #1
 31c:	84100e41 	ldrhi	r0, [r0], #-3649	; 0xfffff1bf
 320:	86038504 	strhi	r8, [r3], -r4, lsl #10
 324:	6f018702 	svcvs	0x00018702
 328:	c5c6c70a 	strbgt	ip, [r6, #1802]	; 0x70a
 32c:	44000ec4 	strmi	r0, [r0], #-3780	; 0xfffff13c
 330:	c6c7430b 	strbgt	r4, [r7], fp, lsl #6
 334:	000ec4c5 	andeq	ip, lr, r5, asr #9
 338:	0000000c 	andeq	r0, r0, ip
 33c:	000000a4 	andeq	r0, r0, r4, lsr #1
 340:	00000798 	muleq	r0, r8, r7
 344:	00000004 	andeq	r0, r0, r4
 348:	0000000c 	andeq	r0, r0, ip
 34c:	000000a4 	andeq	r0, r0, r4, lsr #1
 350:	0000079c 	muleq	r0, ip, r7
 354:	00000004 	andeq	r0, r0, r4
 358:	0000000c 	andeq	r0, r0, ip
 35c:	000000a4 	andeq	r0, r0, r4, lsr #1
 360:	000007a0 	andeq	r0, r0, r0, lsr #15
 364:	00000004 	andeq	r0, r0, r4
 368:	0000000c 	andeq	r0, r0, ip
 36c:	000000a4 	andeq	r0, r0, r4, lsr #1
 370:	000007a4 	andeq	r0, r0, r4, lsr #15
 374:	00000004 	andeq	r0, r0, r4
 378:	0000000c 	andeq	r0, r0, ip
 37c:	000000a4 	andeq	r0, r0, r4, lsr #1
 380:	000007a8 	andeq	r0, r0, r8, lsr #15
 384:	00000004 	andeq	r0, r0, r4
 388:	00000018 	andeq	r0, r0, r8, lsl r0
 38c:	000000a4 	andeq	r0, r0, r4, lsr #1
 390:	000007ac 	andeq	r0, r0, ip, lsr #15
 394:	00000026 	andeq	r0, r0, r6, lsr #32
 398:	84040e41 	strhi	r0, [r4], #-3649	; 0xfffff1bf
 39c:	0ec44e01 	cdpeq	14, 12, cr4, cr4, cr1, {0}
 3a0:	00000000 	andeq	r0, r0, r0
 3a4:	0000000c 	andeq	r0, r0, ip
 3a8:	000000a4 	andeq	r0, r0, r4, lsr #1
 3ac:	000007d4 	ldrdeq	r0, [r0], -r4
 3b0:	00000004 	andeq	r0, r0, r4
 3b4:	0000000c 	andeq	r0, r0, ip
 3b8:	000000a4 	andeq	r0, r0, r4, lsr #1
 3bc:	000007d8 	ldrdeq	r0, [r0], -r8
 3c0:	00000004 	andeq	r0, r0, r4
 3c4:	0000000c 	andeq	r0, r0, ip
 3c8:	000000a4 	andeq	r0, r0, r4, lsr #1
 3cc:	000007dc 	ldrdeq	r0, [r0], -ip
 3d0:	00000004 	andeq	r0, r0, r4
 3d4:	0000000c 	andeq	r0, r0, ip
 3d8:	000000a4 	andeq	r0, r0, r4, lsr #1
 3dc:	000007e0 	andeq	r0, r0, r0, ror #15
 3e0:	00000004 	andeq	r0, r0, r4
 3e4:	0000000c 	andeq	r0, r0, ip
 3e8:	000000a4 	andeq	r0, r0, r4, lsr #1
 3ec:	000007e4 	andeq	r0, r0, r4, ror #15
 3f0:	00000004 	andeq	r0, r0, r4
 3f4:	00000018 	andeq	r0, r0, r8, lsl r0
 3f8:	000000a4 	andeq	r0, r0, r4, lsr #1
 3fc:	000007e8 	andeq	r0, r0, r8, ror #15
 400:	0000004c 	andeq	r0, r0, ip, asr #32
 404:	84040e48 	strhi	r0, [r4], #-3656	; 0xfffff1b8
 408:	c40a5301 	strgt	r5, [sl], #-769	; 0xfffffcff
 40c:	0b43000e 	bleq	10c044c <_etext+0x10be6f0>
 410:	0000000c 	andeq	r0, r0, ip
 414:	000000a4 	andeq	r0, r0, r4, lsr #1
 418:	00000834 	andeq	r0, r0, r4, lsr r8
 41c:	0000000c 	andeq	r0, r0, ip
 420:	0000000c 	andeq	r0, r0, ip
 424:	000000a4 	andeq	r0, r0, r4, lsr #1
 428:	00000840 	andeq	r0, r0, r0, asr #16
 42c:	0000000e 	andeq	r0, r0, lr
 430:	0000000c 	andeq	r0, r0, ip
 434:	000000a4 	andeq	r0, r0, r4, lsr #1
 438:	00000850 	andeq	r0, r0, r0, asr r8
 43c:	0000000c 	andeq	r0, r0, ip
 440:	0000000c 	andeq	r0, r0, ip
 444:	000000a4 	andeq	r0, r0, r4, lsr #1
 448:	0000085c 	andeq	r0, r0, ip, asr r8
 44c:	0000000e 	andeq	r0, r0, lr
 450:	0000000c 	andeq	r0, r0, ip
 454:	ffffffff 			; <UNDEFINED> instruction: 0xffffffff
 458:	7c020001 	stcvc	0, cr0, [r2], {1}
 45c:	000d0c0e 	andeq	r0, sp, lr, lsl #24
 460:	0000000c 	andeq	r0, r0, ip
 464:	00000450 	andeq	r0, r0, r0, asr r4
 468:	0000086c 	andeq	r0, r0, ip, ror #16
 46c:	00000002 	andeq	r0, r0, r2
 470:	00000014 	andeq	r0, r0, r4, lsl r0
 474:	00000450 	andeq	r0, r0, r0, asr r4
 478:	00000870 	andeq	r0, r0, r0, ror r8
 47c:	0000000a 	andeq	r0, r0, sl
 480:	83080e41 	movwhi	r0, #36417	; 0x8e41
 484:	00018e02 	andeq	r8, r1, r2, lsl #28
 488:	00000014 	andeq	r0, r0, r4, lsl r0
 48c:	00000450 	andeq	r0, r0, r0, asr r4
 490:	0000087c 	andeq	r0, r0, ip, ror r8
 494:	0000000a 	andeq	r0, r0, sl
 498:	83080e41 	movwhi	r0, #36417	; 0x8e41
 49c:	00018e02 	andeq	r8, r1, r2, lsl #28
 4a0:	0000001c 	andeq	r0, r0, ip, lsl r0
 4a4:	00000450 	andeq	r0, r0, r0, asr r4
 4a8:	00000888 	andeq	r0, r0, r8, lsl #17
 4ac:	00000038 	andeq	r0, r0, r8, lsr r0
 4b0:	840c0e42 	strhi	r0, [ip], #-3650	; 0xfffff1be
 4b4:	86028503 	strhi	r8, [r2], -r3, lsl #10
 4b8:	c5c65401 	strbgt	r5, [r6, #1025]	; 0x401
 4bc:	00000ec4 	andeq	r0, r0, r4, asr #29
 4c0:	0000000c 	andeq	r0, r0, ip
 4c4:	00000450 	andeq	r0, r0, r0, asr r4
 4c8:	000008c0 	andeq	r0, r0, r0, asr #17
 4cc:	00000014 	andeq	r0, r0, r4, lsl r0
 4d0:	0000000c 	andeq	r0, r0, ip
 4d4:	00000450 	andeq	r0, r0, r0, asr r4
 4d8:	000008d4 	ldrdeq	r0, [r0], -r4
 4dc:	0000001c 	andeq	r0, r0, ip, lsl r0
 4e0:	0000000c 	andeq	r0, r0, ip
 4e4:	00000450 	andeq	r0, r0, r0, asr r4
 4e8:	000008f0 	strdeq	r0, [r0], -r0	; <UNPREDICTABLE>
 4ec:	00000028 	andeq	r0, r0, r8, lsr #32
 4f0:	00000018 	andeq	r0, r0, r8, lsl r0
 4f4:	00000450 	andeq	r0, r0, r0, asr r4
 4f8:	00000918 	andeq	r0, r0, r8, lsl r9
 4fc:	0000002c 	andeq	r0, r0, ip, lsr #32
 500:	84040e45 	strhi	r0, [r4], #-3653	; 0xfffff1bb
 504:	0ec44e01 	cdpeq	14, 12, cr4, cr4, cr1, {0}
 508:	00000000 	andeq	r0, r0, r0
 50c:	0000000c 	andeq	r0, r0, ip
 510:	00000450 	andeq	r0, r0, r0, asr r4
 514:	00000944 	andeq	r0, r0, r4, asr #18
 518:	00000020 	andeq	r0, r0, r0, lsr #32
 51c:	0000000c 	andeq	r0, r0, ip
 520:	00000450 	andeq	r0, r0, r0, asr r4
 524:	00000964 	andeq	r0, r0, r4, ror #18
 528:	0000006c 	andeq	r0, r0, ip, rrx
 52c:	0000000c 	andeq	r0, r0, ip
 530:	00000450 	andeq	r0, r0, r0, asr r4
 534:	000009d0 	ldrdeq	r0, [r0], -r0	; <UNPREDICTABLE>
 538:	0000006c 	andeq	r0, r0, ip, rrx
 53c:	0000000c 	andeq	r0, r0, ip
 540:	00000450 	andeq	r0, r0, r0, asr r4
 544:	00000a3c 	andeq	r0, r0, ip, lsr sl
 548:	00000068 	andeq	r0, r0, r8, rrx
 54c:	0000000c 	andeq	r0, r0, ip
 550:	00000450 	andeq	r0, r0, r0, asr r4
 554:	00000aa4 	andeq	r0, r0, r4, lsr #21
 558:	00000058 	andeq	r0, r0, r8, asr r0
 55c:	0000000c 	andeq	r0, r0, ip
 560:	00000450 	andeq	r0, r0, r0, asr r4
 564:	00000afc 	strdeq	r0, [r0], -ip
 568:	00000048 	andeq	r0, r0, r8, asr #32
 56c:	0000000c 	andeq	r0, r0, ip
 570:	00000450 	andeq	r0, r0, r0, asr r4
 574:	00000b44 	andeq	r0, r0, r4, asr #22
 578:	00000004 	andeq	r0, r0, r4
 57c:	0000000c 	andeq	r0, r0, ip
 580:	00000450 	andeq	r0, r0, r0, asr r4
 584:	00000b48 	andeq	r0, r0, r8, asr #22
 588:	00000004 	andeq	r0, r0, r4
 58c:	0000000c 	andeq	r0, r0, ip
 590:	ffffffff 			; <UNDEFINED> instruction: 0xffffffff
 594:	7c020001 	stcvc	0, cr0, [r2], {1}
 598:	000d0c0e 	andeq	r0, sp, lr, lsl #24
 59c:	0000000c 	andeq	r0, r0, ip
 5a0:	0000058c 	andeq	r0, r0, ip, lsl #11
 5a4:	00000b4c 	andeq	r0, r0, ip, asr #22
 5a8:	00000018 	andeq	r0, r0, r8, lsl r0
 5ac:	0000000c 	andeq	r0, r0, ip
 5b0:	0000058c 	andeq	r0, r0, ip, lsl #11
 5b4:	00000b64 	andeq	r0, r0, r4, ror #22
 5b8:	00000018 	andeq	r0, r0, r8, lsl r0
 5bc:	0000000c 	andeq	r0, r0, ip
 5c0:	0000058c 	andeq	r0, r0, ip, lsl #11
 5c4:	00000b7c 	andeq	r0, r0, ip, ror fp
 5c8:	00000014 	andeq	r0, r0, r4, lsl r0
 5cc:	0000000c 	andeq	r0, r0, ip
 5d0:	0000058c 	andeq	r0, r0, ip, lsl #11
 5d4:	00000b90 	muleq	r0, r0, fp
 5d8:	00000068 	andeq	r0, r0, r8, rrx
 5dc:	0000000c 	andeq	r0, r0, ip
 5e0:	0000058c 	andeq	r0, r0, ip, lsl #11
 5e4:	00000bf8 	strdeq	r0, [r0], -r8
 5e8:	0000004c 	andeq	r0, r0, ip, asr #32
 5ec:	0000000c 	andeq	r0, r0, ip
 5f0:	0000058c 	andeq	r0, r0, ip, lsl #11
 5f4:	00000c44 	andeq	r0, r0, r4, asr #24
 5f8:	0000004c 	andeq	r0, r0, ip, asr #32
 5fc:	0000000c 	andeq	r0, r0, ip
 600:	0000058c 	andeq	r0, r0, ip, lsl #11
 604:	00000c90 	muleq	r0, r0, ip
 608:	0000004c 	andeq	r0, r0, ip, asr #32
 60c:	00000018 	andeq	r0, r0, r8, lsl r0
 610:	0000058c 	andeq	r0, r0, ip, lsl #11
 614:	00000cdc 	ldrdeq	r0, [r0], -ip
 618:	0000008c 	andeq	r0, r0, ip, lsl #1
 61c:	60080e45 	andvs	r0, r8, r5, asr #28
 620:	41000e0a 	tstmi	r0, sl, lsl #28
 624:	000e5b0b 	andeq	r5, lr, fp, lsl #22
 628:	0000000c 	andeq	r0, r0, ip
 62c:	0000058c 	andeq	r0, r0, ip, lsl #11
 630:	00000d68 	andeq	r0, r0, r8, ror #26
 634:	0000004c 	andeq	r0, r0, ip, asr #32
 638:	0000000c 	andeq	r0, r0, ip
 63c:	0000058c 	andeq	r0, r0, ip, lsl #11
 640:	00000db4 			; <UNDEFINED> instruction: 0x00000db4
 644:	00000050 	andeq	r0, r0, r0, asr r0
 648:	0000000c 	andeq	r0, r0, ip
 64c:	0000058c 	andeq	r0, r0, ip, lsl #11
 650:	00000e04 	andeq	r0, r0, r4, lsl #28
 654:	0000004c 	andeq	r0, r0, ip, asr #32
 658:	0000000c 	andeq	r0, r0, ip
 65c:	0000058c 	andeq	r0, r0, ip, lsl #11
 660:	00000e50 	andeq	r0, r0, r0, asr lr
 664:	00000050 	andeq	r0, r0, r0, asr r0
 668:	0000000c 	andeq	r0, r0, ip
 66c:	0000058c 	andeq	r0, r0, ip, lsl #11
 670:	00000ea0 	andeq	r0, r0, r0, lsr #29
 674:	0000004c 	andeq	r0, r0, ip, asr #32
 678:	0000000c 	andeq	r0, r0, ip
 67c:	0000058c 	andeq	r0, r0, ip, lsl #11
 680:	00000eec 	andeq	r0, r0, ip, ror #29
 684:	00000050 	andeq	r0, r0, r0, asr r0
 688:	0000000c 	andeq	r0, r0, ip
 68c:	0000058c 	andeq	r0, r0, ip, lsl #11
 690:	00000f3c 	andeq	r0, r0, ip, lsr pc
 694:	0000001c 	andeq	r0, r0, ip, lsl r0
 698:	00000018 	andeq	r0, r0, r8, lsl r0
 69c:	0000058c 	andeq	r0, r0, ip, lsl #11
 6a0:	00000f58 	andeq	r0, r0, r8, asr pc
 6a4:	00000014 	andeq	r0, r0, r4, lsl r0
 6a8:	83080e41 	movwhi	r0, #36417	; 0x8e41
 6ac:	46018e02 	strmi	r8, [r1], -r2, lsl #28
 6b0:	000ec3ce 	andeq	ip, lr, lr, asr #7
 6b4:	00000018 	andeq	r0, r0, r8, lsl r0
 6b8:	0000058c 	andeq	r0, r0, ip, lsl #11
 6bc:	00000f6c 	andeq	r0, r0, ip, ror #30
 6c0:	00000012 	andeq	r0, r0, r2, lsl r0
 6c4:	83080e41 	movwhi	r0, #36417	; 0x8e41
 6c8:	45018e02 	strmi	r8, [r1, #-3586]	; 0xfffff1fe
 6cc:	000ec3ce 	andeq	ip, lr, lr, asr #7
 6d0:	0000000c 	andeq	r0, r0, ip
 6d4:	0000058c 	andeq	r0, r0, ip, lsl #11
 6d8:	00000f80 	andeq	r0, r0, r0, lsl #31
 6dc:	00000010 	andeq	r0, r0, r0, lsl r0
 6e0:	0000000c 	andeq	r0, r0, ip
 6e4:	0000058c 	andeq	r0, r0, ip, lsl #11
 6e8:	00000f90 	muleq	r0, r0, pc	; <UNPREDICTABLE>
 6ec:	00000010 	andeq	r0, r0, r0, lsl r0
 6f0:	0000000c 	andeq	r0, r0, ip
 6f4:	0000058c 	andeq	r0, r0, ip, lsl #11
 6f8:	00000fa0 	andeq	r0, r0, r0, lsr #31
 6fc:	0000000c 	andeq	r0, r0, ip
 700:	0000000c 	andeq	r0, r0, ip
 704:	0000058c 	andeq	r0, r0, ip, lsl #11
 708:	00000fac 	andeq	r0, r0, ip, lsr #31
 70c:	00000018 	andeq	r0, r0, r8, lsl r0
 710:	0000000c 	andeq	r0, r0, ip
 714:	0000058c 	andeq	r0, r0, ip, lsl #11
 718:	00000fc4 	andeq	r0, r0, r4, asr #31
 71c:	0000000c 	andeq	r0, r0, ip
 720:	0000000c 	andeq	r0, r0, ip
 724:	0000058c 	andeq	r0, r0, ip, lsl #11
 728:	00000fd0 	ldrdeq	r0, [r0], -r0	; <UNPREDICTABLE>
 72c:	0000000c 	andeq	r0, r0, ip
 730:	0000000c 	andeq	r0, r0, ip
 734:	0000058c 	andeq	r0, r0, ip, lsl #11
 738:	00000fdc 	ldrdeq	r0, [r0], -ip
 73c:	0000000c 	andeq	r0, r0, ip
 740:	0000000c 	andeq	r0, r0, ip
 744:	0000058c 	andeq	r0, r0, ip, lsl #11
 748:	00000fe8 	andeq	r0, r0, r8, ror #31
 74c:	00000010 	andeq	r0, r0, r0, lsl r0
 750:	0000000c 	andeq	r0, r0, ip
 754:	0000058c 	andeq	r0, r0, ip, lsl #11
 758:	00000ff8 	strdeq	r0, [r0], -r8
 75c:	00000004 	andeq	r0, r0, r4
 760:	00000014 	andeq	r0, r0, r4, lsl r0
 764:	0000058c 	andeq	r0, r0, ip, lsl #11
 768:	00000ffc 	strdeq	r0, [r0], -ip
 76c:	00000020 	andeq	r0, r0, r0, lsr #32
 770:	84080e41 	strhi	r0, [r8], #-3649	; 0xfffff1bf
 774:	00018e02 	andeq	r8, r1, r2, lsl #28
 778:	0000000c 	andeq	r0, r0, ip
 77c:	0000058c 	andeq	r0, r0, ip, lsl #11
 780:	0000101c 	andeq	r1, r0, ip, lsl r0
 784:	0000000c 	andeq	r0, r0, ip
 788:	0000000c 	andeq	r0, r0, ip
 78c:	0000058c 	andeq	r0, r0, ip, lsl #11
 790:	00001028 	andeq	r1, r0, r8, lsr #32
 794:	00000010 	andeq	r0, r0, r0, lsl r0
 798:	0000000c 	andeq	r0, r0, ip
 79c:	0000058c 	andeq	r0, r0, ip, lsl #11
 7a0:	00001038 	andeq	r1, r0, r8, lsr r0
 7a4:	00000010 	andeq	r0, r0, r0, lsl r0
 7a8:	0000000c 	andeq	r0, r0, ip
 7ac:	0000058c 	andeq	r0, r0, ip, lsl #11
 7b0:	00001048 	andeq	r1, r0, r8, asr #32
 7b4:	00000008 	andeq	r0, r0, r8
 7b8:	0000000c 	andeq	r0, r0, ip
 7bc:	0000058c 	andeq	r0, r0, ip, lsl #11
 7c0:	00001050 	andeq	r1, r0, r0, asr r0
 7c4:	0000000c 	andeq	r0, r0, ip
 7c8:	0000000c 	andeq	r0, r0, ip
 7cc:	0000058c 	andeq	r0, r0, ip, lsl #11
 7d0:	0000105c 	andeq	r1, r0, ip, asr r0
 7d4:	00000048 	andeq	r0, r0, r8, asr #32
 7d8:	00000028 	andeq	r0, r0, r8, lsr #32
 7dc:	0000058c 	andeq	r0, r0, ip, lsl #11
 7e0:	000010a4 	andeq	r1, r0, r4, lsr #1
 7e4:	00000178 	andeq	r0, r0, r8, ror r1
 7e8:	84180e46 	ldrhi	r0, [r8], #-3654	; 0xfffff1ba
 7ec:	86058506 	strhi	r8, [r5], -r6, lsl #10
 7f0:	88038704 	stmdahi	r3, {r2, r8, r9, sl, pc}
 7f4:	02018e02 	andeq	r8, r1, #2, 28
 7f8:	c8ce0a86 	stmiagt	lr, {r1, r2, r7, r9, fp}^
 7fc:	c4c5c6c7 	strbgt	ip, [r5], #1735	; 0x6c7
 800:	0b43000e 	bleq	10c0840 <_etext+0x10beae4>
 804:	00000034 	andeq	r0, r0, r4, lsr r0
 808:	0000058c 	andeq	r0, r0, ip, lsl #11
 80c:	0000121c 	andeq	r1, r0, ip, lsl r2
 810:	00000234 	andeq	r0, r0, r4, lsr r2
 814:	84080e46 	strhi	r0, [r8], #-3654	; 0xfffff1ba
 818:	63018502 	movwvs	r8, #5378	; 0x1502
 81c:	0ec4c50a 	cdpeq	5, 12, cr12, cr4, cr10, {0}
 820:	680b4100 	stmdavs	fp, {r8, lr}
 824:	0ec4c50a 	cdpeq	5, 12, cr12, cr4, cr10, {0}
 828:	6c0b4300 	stcvs	3, cr4, [fp], {-0}
 82c:	0ec4c50a 	cdpeq	5, 12, cr12, cr4, cr10, {0}
 830:	420b4300 	andmi	r4, fp, #0, 6
 834:	0ec4c50a 	cdpeq	5, 12, cr12, cr4, cr10, {0}
 838:	000b4100 	andeq	r4, fp, r0, lsl #2
 83c:	0000000c 	andeq	r0, r0, ip
 840:	0000058c 	andeq	r0, r0, ip, lsl #11
 844:	00001450 	andeq	r1, r0, r0, asr r4
 848:	0000000c 	andeq	r0, r0, ip
 84c:	0000000c 	andeq	r0, r0, ip
 850:	0000058c 	andeq	r0, r0, ip, lsl #11
 854:	0000145c 	andeq	r1, r0, ip, asr r4
 858:	00000014 	andeq	r0, r0, r4, lsl r0
 85c:	0000000c 	andeq	r0, r0, ip
 860:	0000058c 	andeq	r0, r0, ip, lsl #11
 864:	00001470 	andeq	r1, r0, r0, ror r4
 868:	00000018 	andeq	r0, r0, r8, lsl r0
 86c:	0000000c 	andeq	r0, r0, ip
 870:	0000058c 	andeq	r0, r0, ip, lsl #11
 874:	00001488 	andeq	r1, r0, r8, lsl #9
 878:	00000024 	andeq	r0, r0, r4, lsr #32
 87c:	0000000c 	andeq	r0, r0, ip
 880:	0000058c 	andeq	r0, r0, ip, lsl #11
 884:	000014ac 	andeq	r1, r0, ip, lsr #9
 888:	00000010 	andeq	r0, r0, r0, lsl r0
 88c:	0000000c 	andeq	r0, r0, ip
 890:	0000058c 	andeq	r0, r0, ip, lsl #11
 894:	000014bc 			; <UNDEFINED> instruction: 0x000014bc
 898:	0000001c 	andeq	r0, r0, ip, lsl r0
 89c:	0000000c 	andeq	r0, r0, ip
 8a0:	0000058c 	andeq	r0, r0, ip, lsl #11
 8a4:	000014d8 	ldrdeq	r1, [r0], -r8
 8a8:	0000001c 	andeq	r0, r0, ip, lsl r0
 8ac:	0000000c 	andeq	r0, r0, ip
 8b0:	0000058c 	andeq	r0, r0, ip, lsl #11
 8b4:	000014f4 	strdeq	r1, [r0], -r4
 8b8:	0000001c 	andeq	r0, r0, ip, lsl r0
 8bc:	0000000c 	andeq	r0, r0, ip
 8c0:	0000058c 	andeq	r0, r0, ip, lsl #11
 8c4:	00001510 	andeq	r1, r0, r0, lsl r5
 8c8:	00000010 	andeq	r0, r0, r0, lsl r0
 8cc:	0000000c 	andeq	r0, r0, ip
 8d0:	0000058c 	andeq	r0, r0, ip, lsl #11
 8d4:	00001520 	andeq	r1, r0, r0, lsr #10
 8d8:	00000010 	andeq	r0, r0, r0, lsl r0
 8dc:	0000000c 	andeq	r0, r0, ip
 8e0:	0000058c 	andeq	r0, r0, ip, lsl #11
 8e4:	00001530 	andeq	r1, r0, r0, lsr r5
 8e8:	00000014 	andeq	r0, r0, r4, lsl r0
 8ec:	0000000c 	andeq	r0, r0, ip
 8f0:	0000058c 	andeq	r0, r0, ip, lsl #11
 8f4:	00001544 	andeq	r1, r0, r4, asr #10
 8f8:	00000010 	andeq	r0, r0, r0, lsl r0
 8fc:	0000000c 	andeq	r0, r0, ip
 900:	0000058c 	andeq	r0, r0, ip, lsl #11
 904:	00001554 	andeq	r1, r0, r4, asr r5
 908:	00000010 	andeq	r0, r0, r0, lsl r0
 90c:	00000034 	andeq	r0, r0, r4, lsr r0
 910:	0000058c 	andeq	r0, r0, ip, lsl #11
 914:	00001564 	andeq	r1, r0, r4, ror #10
 918:	000000e4 	andeq	r0, r0, r4, ror #1
 91c:	84100e43 	ldrhi	r0, [r0], #-3651	; 0xfffff1bd
 920:	86038504 	strhi	r8, [r3], -r4, lsl #10
 924:	02018702 	andeq	r8, r1, #524288	; 0x80000
 928:	c6c70a40 	strbgt	r0, [r7], r0, asr #20
 92c:	000ec4c5 	andeq	ip, lr, r5, asr #9
 930:	0e570b41 	vnmlaeq.f64	d16, d7, d1
 934:	c6c5c400 	strbgt	ip, [r5], r0, lsl #8
 938:	100e44c7 	andne	r4, lr, r7, asr #9
 93c:	03850484 	orreq	r0, r5, #132, 8	; 0x84000000
 940:	01870286 	orreq	r0, r7, r6, lsl #5
 944:	0000000c 	andeq	r0, r0, ip
 948:	ffffffff 			; <UNDEFINED> instruction: 0xffffffff
 94c:	7c020001 	stcvc	0, cr0, [r2], {1}
 950:	000d0c0e 	andeq	r0, sp, lr, lsl #24
 954:	0000000c 	andeq	r0, r0, ip
 958:	00000944 	andeq	r0, r0, r4, asr #18
 95c:	00001648 	andeq	r1, r0, r8, asr #12
 960:	0000000c 	andeq	r0, r0, ip
 964:	0000000c 	andeq	r0, r0, ip
 968:	00000944 	andeq	r0, r0, r4, asr #18
 96c:	00001654 	andeq	r1, r0, r4, asr r6
 970:	00000008 	andeq	r0, r0, r8
 974:	0000000c 	andeq	r0, r0, ip
 978:	00000944 	andeq	r0, r0, r4, asr #18
 97c:	0000165c 	andeq	r1, r0, ip, asr r6
 980:	00000006 	andeq	r0, r0, r6
 984:	0000000c 	andeq	r0, r0, ip
 988:	00000944 	andeq	r0, r0, r4, asr #18
 98c:	00001664 	andeq	r1, r0, r4, ror #12
 990:	00000010 	andeq	r0, r0, r0, lsl r0
 994:	00000018 	andeq	r0, r0, r8, lsl r0
 998:	00000944 	andeq	r0, r0, r4, asr #18
 99c:	00001674 	andeq	r1, r0, r4, ror r6
 9a0:	00000068 	andeq	r0, r0, r8, rrx
 9a4:	84080e41 	strhi	r0, [r8], #-3649	; 0xfffff1bf
 9a8:	71018502 	tstvc	r1, r2, lsl #10
 9ac:	000ec4c5 	andeq	ip, lr, r5, asr #9
 9b0:	00000018 	andeq	r0, r0, r8, lsl r0
 9b4:	00000944 	andeq	r0, r0, r4, asr #18
 9b8:	000016dc 	ldrdeq	r1, [r0], -ip
 9bc:	00000028 	andeq	r0, r0, r8, lsr #32
 9c0:	84080e41 	strhi	r0, [r8], #-3649	; 0xfffff1bf
 9c4:	51018502 	tstpl	r1, r2, lsl #10
 9c8:	000ec4c5 	andeq	ip, lr, r5, asr #9
 9cc:	0000000c 	andeq	r0, r0, ip
 9d0:	00000944 	andeq	r0, r0, r4, asr #18
 9d4:	00001704 	andeq	r1, r0, r4, lsl #14
 9d8:	00000016 	andeq	r0, r0, r6, lsl r0
 9dc:	0000000c 	andeq	r0, r0, ip
 9e0:	00000944 	andeq	r0, r0, r4, asr #18
 9e4:	0000171c 	andeq	r1, r0, ip, lsl r7
 9e8:	00000020 	andeq	r0, r0, r0, lsr #32
 9ec:	0000000c 	andeq	r0, r0, ip
 9f0:	00000944 	andeq	r0, r0, r4, asr #18
 9f4:	0000173c 	andeq	r1, r0, ip, lsr r7
 9f8:	0000000a 	andeq	r0, r0, sl
 9fc:	0000000c 	andeq	r0, r0, ip
 a00:	00000944 	andeq	r0, r0, r4, asr #18
 a04:	00001748 	andeq	r1, r0, r8, asr #14
 a08:	0000000a 	andeq	r0, r0, sl
 a0c:	0000000c 	andeq	r0, r0, ip
 a10:	00000944 	andeq	r0, r0, r4, asr #18
 a14:	00001754 	andeq	r1, r0, r4, asr r7
 a18:	00000014 	andeq	r0, r0, r4, lsl r0
 a1c:	0000000c 	andeq	r0, r0, ip
 a20:	00000944 	andeq	r0, r0, r4, asr #18
 a24:	00001768 	andeq	r1, r0, r8, ror #14
 a28:	0000000a 	andeq	r0, r0, sl
 a2c:	0000000c 	andeq	r0, r0, ip
 a30:	00000944 	andeq	r0, r0, r4, asr #18
 a34:	00001774 	andeq	r1, r0, r4, ror r7
 a38:	00000016 	andeq	r0, r0, r6, lsl r0
 a3c:	0000000c 	andeq	r0, r0, ip
 a40:	00000944 	andeq	r0, r0, r4, asr #18
 a44:	0000178c 	andeq	r1, r0, ip, lsl #15
 a48:	0000000a 	andeq	r0, r0, sl
 a4c:	0000000c 	andeq	r0, r0, ip
 a50:	00000944 	andeq	r0, r0, r4, asr #18
 a54:	00001798 	muleq	r0, r8, r7
 a58:	0000000c 	andeq	r0, r0, ip
 a5c:	0000000c 	andeq	r0, r0, ip
 a60:	00000944 	andeq	r0, r0, r4, asr #18
 a64:	000017a4 	andeq	r1, r0, r4, lsr #15
 a68:	0000000e 	andeq	r0, r0, lr
 a6c:	0000000c 	andeq	r0, r0, ip
 a70:	00000944 	andeq	r0, r0, r4, asr #18
 a74:	000017b4 			; <UNDEFINED> instruction: 0x000017b4
 a78:	00000008 	andeq	r0, r0, r8
 a7c:	0000000c 	andeq	r0, r0, ip
 a80:	00000944 	andeq	r0, r0, r4, asr #18
 a84:	000017bc 			; <UNDEFINED> instruction: 0x000017bc
 a88:	0000000a 	andeq	r0, r0, sl
 a8c:	0000000c 	andeq	r0, r0, ip
 a90:	00000944 	andeq	r0, r0, r4, asr #18
 a94:	000017c8 	andeq	r1, r0, r8, asr #15
 a98:	0000000c 	andeq	r0, r0, ip
 a9c:	0000000c 	andeq	r0, r0, ip
 aa0:	00000944 	andeq	r0, r0, r4, asr #18
 aa4:	000017d4 	ldrdeq	r1, [r0], -r4
 aa8:	00000008 	andeq	r0, r0, r8
 aac:	0000000c 	andeq	r0, r0, ip
 ab0:	00000944 	andeq	r0, r0, r4, asr #18
 ab4:	000017dc 	ldrdeq	r1, [r0], -ip
 ab8:	0000000c 	andeq	r0, r0, ip
 abc:	0000000c 	andeq	r0, r0, ip
 ac0:	00000944 	andeq	r0, r0, r4, asr #18
 ac4:	000017e8 	andeq	r1, r0, r8, ror #15
 ac8:	00000008 	andeq	r0, r0, r8
 acc:	0000000c 	andeq	r0, r0, ip
 ad0:	00000944 	andeq	r0, r0, r4, asr #18
 ad4:	000017f0 	strdeq	r1, [r0], -r0
 ad8:	0000000c 	andeq	r0, r0, ip
 adc:	0000000c 	andeq	r0, r0, ip
 ae0:	00000944 	andeq	r0, r0, r4, asr #18
 ae4:	000017fc 	strdeq	r1, [r0], -ip
 ae8:	0000000c 	andeq	r0, r0, ip
 aec:	0000000c 	andeq	r0, r0, ip
 af0:	00000944 	andeq	r0, r0, r4, asr #18
 af4:	00001808 	andeq	r1, r0, r8, lsl #16
 af8:	0000000e 	andeq	r0, r0, lr
 afc:	0000000c 	andeq	r0, r0, ip
 b00:	00000944 	andeq	r0, r0, r4, asr #18
 b04:	00001818 	andeq	r1, r0, r8, lsl r8
 b08:	0000000e 	andeq	r0, r0, lr
 b0c:	0000000c 	andeq	r0, r0, ip
 b10:	00000944 	andeq	r0, r0, r4, asr #18
 b14:	00001828 	andeq	r1, r0, r8, lsr #16
 b18:	0000000e 	andeq	r0, r0, lr
 b1c:	0000000c 	andeq	r0, r0, ip
 b20:	00000944 	andeq	r0, r0, r4, asr #18
 b24:	00001838 	andeq	r1, r0, r8, lsr r8
 b28:	0000000e 	andeq	r0, r0, lr
 b2c:	0000000c 	andeq	r0, r0, ip
 b30:	00000944 	andeq	r0, r0, r4, asr #18
 b34:	00001848 	andeq	r1, r0, r8, asr #16
 b38:	00000016 	andeq	r0, r0, r6, lsl r0
 b3c:	0000000c 	andeq	r0, r0, ip
 b40:	00000944 	andeq	r0, r0, r4, asr #18
 b44:	00001860 	andeq	r1, r0, r0, ror #16
 b48:	00000008 	andeq	r0, r0, r8
 b4c:	00000024 	andeq	r0, r0, r4, lsr #32
 b50:	00000944 	andeq	r0, r0, r4, asr #18
 b54:	00001868 	andeq	r1, r0, r8, ror #16
 b58:	00000044 	andeq	r0, r0, r4, asr #32
 b5c:	84080e41 	strhi	r0, [r8], #-3649	; 0xfffff1bf
 b60:	43018e02 	movwmi	r8, #7682	; 0x1e02
 b64:	0a50100e 	beq	1404ba4 <_etext+0x1402e48>
 b68:	ce42080e 	cdpgt	8, 4, cr0, cr2, cr14, {0}
 b6c:	42000ec4 	andmi	r0, r0, #196, 28	; 0xc40
 b70:	0000000b 	andeq	r0, r0, fp
 b74:	00000020 	andeq	r0, r0, r0, lsr #32
 b78:	00000944 	andeq	r0, r0, r4, asr #18
 b7c:	000018ac 	andeq	r1, r0, ip, lsr #17
 b80:	00000044 	andeq	r0, r0, r4, asr #32
 b84:	8e040e41 	cdphi	14, 0, cr0, cr4, cr1, {2}
 b88:	100e4301 	andne	r4, lr, r1, lsl #6
 b8c:	040e0a50 	streq	r0, [lr], #-2640	; 0xfffff5b0
 b90:	000ece42 	andeq	ip, lr, r2, asr #28
 b94:	00000b42 	andeq	r0, r0, r2, asr #22
 b98:	0000000c 	andeq	r0, r0, ip
 b9c:	00000944 	andeq	r0, r0, r4, asr #18
 ba0:	000018f0 	strdeq	r1, [r0], -r0
 ba4:	00000008 	andeq	r0, r0, r8
 ba8:	0000000c 	andeq	r0, r0, ip
 bac:	00000944 	andeq	r0, r0, r4, asr #18
 bb0:	000018f8 	strdeq	r1, [r0], -r8
 bb4:	0000000a 	andeq	r0, r0, sl
 bb8:	0000000c 	andeq	r0, r0, ip
 bbc:	00000944 	andeq	r0, r0, r4, asr #18
 bc0:	00001904 	andeq	r1, r0, r4, lsl #18
 bc4:	0000000a 	andeq	r0, r0, sl
 bc8:	0000000c 	andeq	r0, r0, ip
 bcc:	00000944 	andeq	r0, r0, r4, asr #18
 bd0:	00001910 	andeq	r1, r0, r0, lsl r9
 bd4:	00000004 	andeq	r0, r0, r4
 bd8:	0000000c 	andeq	r0, r0, ip
 bdc:	00000944 	andeq	r0, r0, r4, asr #18
 be0:	00001914 	andeq	r1, r0, r4, lsl r9
 be4:	00000008 	andeq	r0, r0, r8
 be8:	0000000c 	andeq	r0, r0, ip
 bec:	00000944 	andeq	r0, r0, r4, asr #18
 bf0:	0000191c 	andeq	r1, r0, ip, lsl r9
 bf4:	0000000a 	andeq	r0, r0, sl
 bf8:	0000000c 	andeq	r0, r0, ip
 bfc:	00000944 	andeq	r0, r0, r4, asr #18
 c00:	00001928 	andeq	r1, r0, r8, lsr #18
 c04:	00000008 	andeq	r0, r0, r8
 c08:	0000000c 	andeq	r0, r0, ip
 c0c:	00000944 	andeq	r0, r0, r4, asr #18
 c10:	00001930 	andeq	r1, r0, r0, lsr r9
 c14:	00000006 	andeq	r0, r0, r6
 c18:	0000000c 	andeq	r0, r0, ip
 c1c:	00000944 	andeq	r0, r0, r4, asr #18
 c20:	00001938 	andeq	r1, r0, r8, lsr r9
 c24:	00000006 	andeq	r0, r0, r6
 c28:	0000000c 	andeq	r0, r0, ip
 c2c:	00000944 	andeq	r0, r0, r4, asr #18
 c30:	00001940 	andeq	r1, r0, r0, asr #18
 c34:	00000006 	andeq	r0, r0, r6
 c38:	0000000c 	andeq	r0, r0, ip
 c3c:	00000944 	andeq	r0, r0, r4, asr #18
 c40:	00001948 	andeq	r1, r0, r8, asr #18
 c44:	0000000e 	andeq	r0, r0, lr
 c48:	0000000c 	andeq	r0, r0, ip
 c4c:	00000944 	andeq	r0, r0, r4, asr #18
 c50:	00001958 	andeq	r1, r0, r8, asr r9
 c54:	0000000e 	andeq	r0, r0, lr
 c58:	0000000c 	andeq	r0, r0, ip
 c5c:	00000944 	andeq	r0, r0, r4, asr #18
 c60:	00001968 	andeq	r1, r0, r8, ror #18
 c64:	0000000a 	andeq	r0, r0, sl
 c68:	00000018 	andeq	r0, r0, r8, lsl r0
 c6c:	00000944 	andeq	r0, r0, r4, asr #18
 c70:	00001974 	andeq	r1, r0, r4, ror r9
 c74:	0000002c 	andeq	r0, r0, ip, lsr #32
 c78:	84040e41 	strhi	r0, [r4], #-3649	; 0xfffff1bf
 c7c:	0ec45401 	cdpeq	4, 12, cr5, cr4, cr1, {0}
 c80:	00000000 	andeq	r0, r0, r0
 c84:	0000000c 	andeq	r0, r0, ip
 c88:	ffffffff 			; <UNDEFINED> instruction: 0xffffffff
 c8c:	7c020001 	stcvc	0, cr0, [r2], {1}
 c90:	000d0c0e 	andeq	r0, sp, lr, lsl #24
 c94:	0000000c 	andeq	r0, r0, ip
 c98:	00000c84 	andeq	r0, r0, r4, lsl #25
 c9c:	000019a0 	andeq	r1, r0, r0, lsr #19
 ca0:	00000008 	andeq	r0, r0, r8
 ca4:	0000000c 	andeq	r0, r0, ip
 ca8:	00000c84 	andeq	r0, r0, r4, lsl #25
 cac:	000019a8 	andeq	r1, r0, r8, lsr #19
 cb0:	00000006 	andeq	r0, r0, r6
 cb4:	0000000c 	andeq	r0, r0, ip
 cb8:	00000c84 	andeq	r0, r0, r4, lsl #25
 cbc:	000019b0 			; <UNDEFINED> instruction: 0x000019b0
 cc0:	00000008 	andeq	r0, r0, r8
 cc4:	0000000c 	andeq	r0, r0, ip
 cc8:	00000c84 	andeq	r0, r0, r4, lsl #25
 ccc:	000019b8 			; <UNDEFINED> instruction: 0x000019b8
 cd0:	00000004 	andeq	r0, r0, r4
 cd4:	0000000c 	andeq	r0, r0, ip
 cd8:	00000c84 	andeq	r0, r0, r4, lsl #25
 cdc:	000019bc 			; <UNDEFINED> instruction: 0x000019bc
 ce0:	00000006 	andeq	r0, r0, r6
 ce4:	0000000c 	andeq	r0, r0, ip
 ce8:	00000c84 	andeq	r0, r0, r4, lsl #25
 cec:	000019c4 	andeq	r1, r0, r4, asr #19
 cf0:	00000006 	andeq	r0, r0, r6

Disassembly of section .debug_ranges:

00000000 <.debug_ranges>:
   0:	00000180 	andeq	r0, r0, r0, lsl #3
   4:	00000190 	muleq	r0, r0, r1
   8:	00000194 	muleq	r0, r4, r1
   c:	00000230 	andeq	r0, r0, r0, lsr r2
	...
  18:	000003b8 			; <UNDEFINED> instruction: 0x000003b8
  1c:	000003b8 			; <UNDEFINED> instruction: 0x000003b8
  20:	000003ba 			; <UNDEFINED> instruction: 0x000003ba
  24:	000003ca 	andeq	r0, r0, sl, asr #7
  28:	000003ce 	andeq	r0, r0, lr, asr #7
  2c:	000003d6 	ldrdeq	r0, [r0], -r6
	...
  38:	000003e2 	andeq	r0, r0, r2, ror #7
  3c:	000003f2 	strdeq	r0, [r0], -r2
  40:	000003f4 	strdeq	r0, [r0], -r4
  44:	000003fa 	strdeq	r0, [r0], -sl
	...
  50:	0000041a 	andeq	r0, r0, sl, lsl r4
  54:	0000042a 	andeq	r0, r0, sl, lsr #8
  58:	0000042c 	andeq	r0, r0, ip, lsr #8
  5c:	00000432 	andeq	r0, r0, r2, lsr r4
	...
  68:	00000440 	andeq	r0, r0, r0, asr #8
  6c:	00000440 	andeq	r0, r0, r0, asr #8
  70:	00000442 	andeq	r0, r0, r2, asr #8
  74:	00000452 	andeq	r0, r0, r2, asr r4
  78:	00000456 	andeq	r0, r0, r6, asr r4
  7c:	0000045e 	andeq	r0, r0, lr, asr r4
	...
  88:	000004ba 			; <UNDEFINED> instruction: 0x000004ba
  8c:	000004ca 	andeq	r0, r0, sl, asr #9
  90:	000004cc 	andeq	r0, r0, ip, asr #9
  94:	000004d2 	ldrdeq	r0, [r0], -r2
	...
  a0:	000004e2 	andeq	r0, r0, r2, ror #9
  a4:	000004e6 	andeq	r0, r0, r6, ror #9
  a8:	000004e8 	andeq	r0, r0, r8, ror #9
  ac:	000004fa 	strdeq	r0, [r0], -sl
  b0:	00000504 	andeq	r0, r0, r4, lsl #10
  b4:	00000504 	andeq	r0, r0, r4, lsl #10
	...
  c0:	0000057e 	andeq	r0, r0, lr, ror r5
  c4:	0000058e 	andeq	r0, r0, lr, lsl #11
  c8:	00000590 	muleq	r0, r0, r5
  cc:	00000596 	muleq	r0, r6, r5
	...
  d8:	0000002c 	andeq	r0, r0, ip, lsr #32
  dc:	0000002c 	andeq	r0, r0, ip, lsr #32
  e0:	00000032 	andeq	r0, r0, r2, lsr r0
  e4:	0000004c 	andeq	r0, r0, ip, asr #32
	...
  f0:	0000007c 	andeq	r0, r0, ip, ror r0
  f4:	0000008e 	andeq	r0, r0, lr, lsl #1
  f8:	00000090 	muleq	r0, r0, r0
  fc:	00000092 	muleq	r0, r2, r0
	...
 108:	00000226 	andeq	r0, r0, r6, lsr #4
 10c:	00000226 	andeq	r0, r0, r6, lsr #4
 110:	00000228 	andeq	r0, r0, r8, lsr #4
 114:	0000023e 	andeq	r0, r0, lr, lsr r2
 118:	00000250 	andeq	r0, r0, r0, asr r2
 11c:	00000264 	andeq	r0, r0, r4, ror #4
	...
 128:	0000026a 	andeq	r0, r0, sl, ror #4
 12c:	0000026a 	andeq	r0, r0, sl, ror #4
 130:	0000026c 	andeq	r0, r0, ip, ror #4
 134:	00000282 	andeq	r0, r0, r2, lsl #5
 138:	00000294 	muleq	r0, r4, r2
 13c:	000002a8 	andeq	r0, r0, r8, lsr #5
	...
